(dp0
S'SAMPL5_017'
p1
(dp2
S'cyclohexane'
p3
(lp4
cnumpy.core.multiarray
scalar
p5
(cnumpy
dtype
p6
(S'f8'
p7
I0
I1
tp8
Rp9
(I3
S'<'
p10
NNNI-1
I-1
I0
tp11
bS'\xeaz\xaa44\x04R@'
p12
tp13
Rp14
ag5
(g9
S'\xec\xc6Vu\xc8\x08\xc8?'
p15
tp16
Rp17
asS'Smiles'
p18
S'c1ccc2c(c1)c(nc(n2)c3ccccc3O)NC4CCCC4'
p19
sS'LogD_calc'
p20
cnumpy.core.multiarray
_reconstruct
p21
(cnumpy
ndarray
p22
(I0
tp23
S'b'
p24
tp25
Rp26
(I1
(I2
tp27
g9
I00
S'\xf0;F\xcc\xd1\xff\x18@\x82\x10\xb9_\xdf\x01\xa4?'
p28
tp29
bsS'water'
p30
(lp31
g5
(g9
S'~\x0e<\xc6!2B@'
p32
tp33
Rp34
ag5
(g9
S'Rs}1#\xd2\xbe?'
p35
tp36
Rp37
asS'EmolID'
p38
S'2425478'
p39
ssS'SAMPL5_058'
p40
(dp41
g3
(lp42
g5
(g9
S'\xfb\xf4\xd7\xa7\xfd\xb6I@'
p43
tp44
Rp45
ag5
(g9
S'\x1f\xdf\x17\xf3(N\xc4?'
p46
tp47
Rp48
asg18
S'c1ccc(cc1)n2c(=O)c3ccccc3cn2'
p49
sg20
g21
(g22
(I0
tp50
g24
tp51
Rp52
(I1
(I2
tp53
g9
I00
S'\xd0\x00\xbe\xa438\xee?\xdfk\xd5Dv\xfb\xa0?'
p54
tp55
bsg30
(lp56
g5
(g9
S'\x9c\xbd\x19\x84\x04\x05G@'
p57
tp58
Rp59
ag5
(g9
S'G\xefP\x9e\x80t\xba?'
p60
tp61
Rp62
asg38
S'3730323'
p63
ssS'SAMPL5_059'
p64
(dp65
g3
(lp66
g5
(g9
S'6\x02\xa7\xa2\x1e\tE@'
p67
tp68
Rp69
ag5
(g9
S'w\xd4D~\x10\x03\xc0?'
p70
tp71
Rp72
asg18
S'c1ccc(cc1)c2nc(sn2)N'
p73
sg20
g21
(g22
(I0
tp74
g24
tp75
Rp76
(I1
(I2
tp77
g9
I00
S'\xb5$5&\xa8"\xe5\xbf\x14;\xb8\xb1\xd8\x92\x9b?'
p78
tp79
bsg30
(lp80
g5
(g9
S'\xb2\x05\x15\xe1\xae\xebF@'
p81
tp82
Rp83
ag5
(g9
S'\xb3\xf7\x92%\xd6\xdc\xb6?'
p84
tp85
Rp86
asg38
S'711981'
p87
ssS'SAMPL5_013'
p88
(dp89
g3
(lp90
g5
(g9
S'\x13\xa8NJu\xe1T@'
p91
tp92
Rp93
ag5
(g9
S'v\xd9\x00\x03d\x0e\xca?'
p94
tp95
Rp96
asg18
S'Cc1ccc(cc1)c2nc(c3c(n2)n(c(=O)[nH]3)c4ccccc4)C(=O)N'
p97
sg20
g21
(g22
(I0
tp98
g24
tp99
Rp100
(I1
(I2
tp101
g9
I00
S'a\xac\x7f\x88z\xa4\xf1?sUi*.w\xa5?'
p102
tp103
bsg30
(lp104
g5
(g9
S'nD\x9b\xf1\xa4NS@'
p105
tp106
Rp107
ag5
(g9
S'\xdd(w\xa1\xbf\x1a\xc0?'
p108
tp109
Rp110
asg38
S'16095985'
p111
ssS'SAMPL5_010'
p112
(dp113
g3
(lp114
g5
(g9
S'\xa1\xbf\x08\xe2P\x81K@'
p115
tp116
Rp117
ag5
(g9
S'\x80\xed\x92\xcd%d\xc3?'
p118
tp119
Rp120
asg18
S'c1cc(cc(c1)NCc2ccncc2)C(=O)O'
p121
sg20
g21
(g22
(I0
tp122
g24
tp123
Rp124
(I1
(I2
tp125
g9
I00
S'\x86\x88\xadWo:\xf6\xbf\xc0%\xb6\x12\xe3\xac\xa0?'
p126
tp127
bsg30
(lp128
g5
(g9
S'<\xf1\xc0+YxO@'
p129
tp130
Rp131
ag5
(g9
S'\x86\x82\xd7L|\x95\xbb?'
p132
tp133
Rp134
asg38
S'1491855'
p135
ssS'SAMPL5_011'
p136
(dp137
g3
(lp138
g5
(g9
S'\xb2\xb4\xd9\x81\xc3`M@'
p139
tp140
Rp141
ag5
(g9
S')\xeb\xa2\xfc\xf7\xde\xc4?'
p142
tp143
Rp144
asg18
S'Cc1cc(nc(n1)Nc2ccccc2C(=O)O)C'
p145
sg20
g21
(g22
(I0
tp146
g24
tp147
Rp148
(I1
(I2
tp149
g9
I00
S'M\xae\\\xeb\xd2}\xfb?\xa2\x85a\xc9Ih\xa1?'
p150
tp151
bsg30
(lp152
g5
(g9
S'(tg\xfccyH@'
p153
tp154
Rp155
ag5
(g9
S'Bx\x11\xa2\xba\xf0\xba?'
p156
tp157
Rp158
asg38
S'542592'
p159
ssS'SAMPL5_074'
p160
(dp161
g3
(lp162
g5
(g9
S'\t\x18l\x00\xb2\x8aQ@'
p163
tp164
Rp165
ag5
(g9
S'\xe6\xbb\xab\xf8X(\xc4?'
p166
tp167
Rp168
asg18
S'c1nc(c2c(n1)n(cn2)[C@H]3[C@@H]([C@@H]([C@H](O3)CO)O)O)N'
p169
sg20
g21
(g22
(I0
tp170
g24
tp171
Rp172
(I1
(I2
tp173
g9
I00
S'\x9c+T\xe8z\x13\x0e\xc0N\xcb\xba\xda\x8d\xb0\xa4?'
p174
tp175
bsg30
(lp176
g5
(g9
S'\x141Bl\x17\xe8V@'
p177
tp178
Rp179
ag5
(g9
S'\xb0\x0c\xc5\xfei\x92\xc5?'
p180
tp181
Rp182
asg38
S''
p183
ssS'SAMPL5_075'
p184
(dp185
g3
(lp186
g5
(g9
S'=/\xd8\xeb\xc5\xfaL@'
p187
tp188
Rp189
ag5
(g9
S'\xd7\xaf\x8f\x01C\x0e\xc9?'
p190
tp191
Rp192
asg18
S'CC(C)NC[C@@H](COc1ccc(cc1)CCOC)O'
p193
sg20
g21
(g22
(I0
tp194
g24
tp195
Rp196
(I1
(I2
tp197
g9
I00
S'\x05\xe5\xa7\x8c\xdd\xd8\x04@\xd3D\xcf\xb5\x05\xaf\xa6?'
p198
tp199
bsg30
(lp200
g5
(g9
S'\x92w\x99,\xd8\x8aE@'
p201
tp202
Rp203
ag5
(g9
S'\xc5j5\xedx~\xc4?'
p204
tp205
Rp206
asg38
g183
ssS'SAMPL5_050'
p207
(dp208
g3
(lp209
g5
(g9
S'6D\xa0\xa4\x90bK@'
p210
tp211
Rp212
ag5
(g9
S'\x8a\xe0\xa3\x82%\xea\xc2?'
p213
tp214
Rp215
asg18
S'Cc1ccc2c(n1)nn3c2nc(cc3O)C'
p216
sg20
g21
(g22
(I0
tp217
g24
tp218
Rp219
(I1
(I2
tp220
g9
I00
S'\x10\x1d\xa5\x9f\xa31\xf3?\xac\x927\x83u\xea\xa3?'
p221
tp222
bsg30
(lp223
g5
(g9
S'r\xe4r\xfe\x17\xf6G@'
p224
tp225
Rp226
ag5
(g9
S'\x0e\x16\xfd\x0b)6\xc5?'
p227
tp228
Rp229
asg38
S'5663556'
p230
ssS'SAMPL5_056'
p231
(dp232
g3
(lp233
g5
(g9
S'\xad\x11%\x9e\xbe\xefK@'
p234
tp235
Rp236
ag5
(g9
S'7P\xb5l"\xd8\xc4?'
p237
tp238
Rp239
asg18
S'CC(C)[C@@H]1Cc2c(cc(c(n2)O)C#N)CO1'
p240
sg20
g21
(g22
(I0
tp241
g24
tp242
Rp243
(I1
(I2
tp244
g9
I00
S'\xa6\xb7{I\x91\x89\x05@\x15\xbf)^\xa6$\xa1?'
p245
tp246
bsg30
(lp247
g5
(g9
S'C\xe74\x01\xc7@D@'
p248
tp249
Rp250
ag5
(g9
S'Sh\x10\x0e4\x9c\xb9?'
p251
tp252
Rp253
asg38
g183
ssS'SAMPL5_071'
p254
(dp255
g3
(lp256
g5
(g9
S'\x87?,\xcb\xdd\x96M@'
p257
tp258
Rp259
ag5
(g9
S'\x0b?\x82\x89=\x98\xc7?'
p260
tp261
Rp262
asg18
S'CCOc1cc(c(cc1N2CCOCC2)OCC)N'
p263
sg20
g21
(g22
(I0
tp264
g24
tp265
Rp266
(I1
(I2
tp267
g9
I00
S'\x00z\xc5~\x9f%\xe9?\xbf\xbd\xc6\x03\xf3\xd2\xa3?'
p268
tp269
bsg30
(lp270
g5
(g9
S'\xed\xed_\xd5\xb5XK@'
p271
tp272
Rp273
ag5
(g9
S'\xfbf\xb9X]6\xbf?'
p274
tp275
Rp276
asg38
g183
ssS'SAMPL5_072'
p277
(dp278
g3
(lp279
g5
(g9
S'\x1c\xb4\xd4(\xfbJJ@'
p280
tp281
Rp282
ag5
(g9
S'H]H\x9e\xbe\x97\xc8?'
p283
tp284
Rp285
asg18
S'CN(C)CCOC(c1ccccc1)c2ccccc2'
p286
sg20
g21
(g22
(I0
tp287
g24
tp288
Rp289
(I1
(I2
tp290
g9
I00
S'7Z\x19\x1a\xe0R\x0c@:\x96:\x03V@\xa5?'
p291
tp292
bsg30
(lp293
g5
(g9
S'\xb9\x9e\xb1\x87:0@@'
p294
tp295
Rp296
ag5
(g9
S'\x01}o\x8bh\xbe\xc1?'
p297
tp298
Rp299
asg38
g183
ssS'SAMPL5_019'
p300
(dp301
g3
(lp302
g5
(g9
S'\xa3}2\x82V\xcfQ@'
p303
tp304
Rp305
ag5
(g9
S'\xb9&\xc5M\xab\x07\xc8?'
p306
tp307
Rp308
asg18
S'Cc1ccc(cc1)Nc2ccnc(n2)Nc3ccc(cc3)C'
p309
sg20
g21
(g22
(I0
tp310
g24
tp311
Rp312
(I1
(I2
tp313
g9
I00
S'\x9c.\xec4\xbd\x11\x07@\xd7"\x90\x03F\xf6\xa3?'
p314
tp315
bsg30
(lp316
g5
(g9
S'p#y\x1f\xcdcK@'
p317
tp318
Rp319
ag5
(g9
S']\x86A1#\x98\xbe?'
p320
tp321
Rp322
asg38
S'43423819'
p323
ssS'SAMPL5_015'
p324
(dp325
g3
(lp326
g5
(g9
S'9\xa7\x84\xb1\x98\xa8K@'
p327
tp328
Rp329
ag5
(g9
S'L5z;\x90\xd1\xc2?'
p330
tp331
Rp332
asg18
S'Cc1ccc2c(c1)c(ncn2)NCC(=O)O'
p333
sg20
g21
(g22
(I0
tp334
g24
tp335
Rp336
(I1
(I2
tp337
g9
I00
S"\xcb\xa5\xbf\xd7\x0f\xdd\xea\xbf\xf8+\xcd\x87\x9d'\xa0?"
p338
tp339
bsg30
(lp340
g5
(g9
S'w\xcd\x90\xee\xf1\rN@'
p341
tp342
Rp343
ag5
(g9
S'v\xb9\x16l^\xa1\xba?'
p344
tp345
Rp346
asg38
S'1355949'
p347
ssS'SAMPL5_065'
p348
(dp349
g3
(lp350
g5
(g9
S'C\xb4\x15\x0c<\xa3`@'
p351
tp352
Rp353
ag5
(g9
S'\xbf0zB\xf5\xe2\xd3?'
p354
tp355
Rp356
asg18
S'COc1ccc2c(c1)[nH]c3c2CC[N@]4[C@@H]3C[C@H]5[C@@H](C4)C[C@H]([C@@H]([C@H]5C(=O)OC)OC)OC(=O)c6cc(c(c(c6)OC)OC)OC'
p357
sg20
g21
(g22
(I0
tp358
g24
tp359
Rp360
(I1
(I2
tp361
g9
I00
S'\x90\xact\x8aJ\xc9\x05@t\xbeL\x19\x87*\xb0?'
p362
tp363
bsg30
(lp364
g5
(g9
S'\xc2K\x83h\x9ec]@'
p365
tp366
Rp367
ag5
(g9
S']H\xc6\xd9gb\xc7?'
p368
tp369
Rp370
asg38
g183
ssS'SAMPL5_085'
p371
(dp372
g3
(lp373
g5
(g9
S'\xb3,\xa9={\xc1L@'
p374
tp375
Rp376
ag5
(g9
S'F\xa7\xda\xda\x01I\xc5?'
p377
tp378
Rp379
asg18
S'c1ccc(cc1)C2(C(=O)NC(=O)N2)c3ccccc3'
p380
sg20
g21
(g22
(I0
tp381
g24
tp382
Rp383
(I1
(I2
tp384
g9
I00
S'\xa9\x05\x93~iC\x00\xc0\xc6\xe6\xb7\x1a\xa0\xee\xa1?'
p385
tp386
bsg30
(lp387
g5
(g9
S'\xcf\xa3\x93\xddcGQ@'
p388
tp389
Rp390
ag5
(g9
S'\xe0\x1bF\x95Sh\xbc?'
p391
tp392
Rp393
asg38
g183
ssS'SAMPL5_084'
p394
(dp395
g3
(lp396
g5
(g9
S'\xaf=i\x8c{YR@'
p397
tp398
Rp399
ag5
(g9
S'\x80R\x16\xd5x\xdb\xce?'
p400
tp401
Rp402
asg18
S'c1cc(ccc1C(=O)CCCN2CCC(CC2)(c3ccc(cc3)Cl)O)F'
p403
sg20
g21
(g22
(I0
tp404
g24
tp405
Rp406
(I1
(I2
tp407
g9
I00
S'\x99\x0f@\x82\x8b\xe1\t@"\x92\xa6\x07\xae5\xb4?'
p408
tp409
bsg30
(lp410
g5
(g9
S'\xd2$r\xb4LwK@'
p411
tp412
Rp413
ag5
(g9
S'|RH|x]\xd8?'
p414
tp415
Rp416
asg38
g183
ssS'SAMPL5_086'
p417
(dp418
g3
(lp419
g5
(g9
S'\x8c\xd6\xe5\xa6\x04\x01S@'
p420
tp421
Rp422
ag5
(g9
S'\xc6t\xbe\xb5\xdc\xf5\xcd?'
p423
tp424
Rp425
asg18
S'CCCCOc1cc(c2ccccc2n1)C(=O)NCCN(CC)CC'
p426
sg20
g21
(g22
(I0
tp427
g24
tp428
Rp429
(I1
(I2
tp430
g9
I00
S'\x8b\xc6U\xc9\x0fR\x08@\x15\xc6sZD\x7f\xac?'
p431
tp432
bsg30
(lp433
g5
(g9
S'1\xda\x91\xf5\xe2TM@'
p434
tp435
Rp436
ag5
(g9
S'\x1e\xef\xbb2\x16\x7f\xcb?'
p437
tp438
Rp439
asg38
g183
ssS'SAMPL5_081'
p440
(dp441
g3
(lp442
g5
(g9
S'cb\xd4\x18-RM@'
p443
tp444
Rp445
ag5
(g9
S'\xfe#\xae\xc1Y\xb3\xc7?'
p446
tp447
Rp448
asg18
S'CC(C)NC[C@H](COc1ccc(cc1)CC(=O)N)O'
p449
sg20
g21
(g22
(I0
tp450
g24
tp451
Rp452
(I1
(I2
tp453
g9
I00
S'\x98*\xbfq8\xfd\x00\xc0A\xba\x87\x9a^\x0c\xa9?'
p454
tp455
bsg30
(lp456
g5
(g9
S'\xb2O\x98\x8e\xe1\xb0Q@'
p457
tp458
Rp459
ag5
(g9
S'\x18#\x01o\xaf\xc1\xca?'
p460
tp461
Rp462
asg38
g183
ssS'SAMPL5_080'
p463
(dp464
g3
(lp465
g5
(g9
S'T\xc3\x0e\x88\xae J@'
p466
tp467
Rp468
ag5
(g9
S'\x10q\x17\xbe\xd3\xfd\xc0?'
p469
tp470
Rp471
asg18
S'Cn1cnc2c1c(=O)n(c(=O)n2C)C'
p472
sg20
g21
(g22
(I0
tp473
g24
tp474
Rp475
(I1
(I2
tp476
g9
I00
S'^AJN\xa2\r\x0e\xc0\xc1\x9d@\x1d2\x1f\x9e?'
p477
tp478
bsg30
(lp479
g5
(g9
S'\xaae\xf9\xba\xb1lR@'
p480
tp481
Rp482
ag5
(g9
S'\x84v\tf\x11R\xba?'
p483
tp484
Rp485
asg38
g183
ssS'SAMPL5_083'
p486
(dp487
g3
(lp488
g5
(g9
S'\xdfZ\xa7B\xc4\xa2b@'
p489
tp490
Rp491
ag5
(g9
S't\xa1\xc7\xe2\xc2L\xdc?'
p492
tp493
Rp494
asg18
S'C[C@H]1/C=C/C=C(\\C(=O)NC\\2=C(C3=C(C(=C4C(=C3C(=O)/C2=C/NN5CCN(CC5)C)C(=O)[C@](O4)(O/C=C/[C@@H]([C@H]([C@H]([C@@H]([C@@H]([C@@H]([C@H]1O)C)O)C)OC(=O)C)C)OC)C)C)O)O)/C'
p495
sg20
g21
(g22
(I0
tp496
g24
tp497
Rp498
(I1
(I2
tp499
g9
I00
S'j]x,7S\xf3?R\x19\xfb\xec\x18h\xb7?'
p500
tp501
bsg30
(lp502
g5
(g9
S'\x1ae5\xca&\xc6a@'
p503
tp504
Rp505
ag5
(g9
S'7\xa2\xb0\xe4\xda\xbd\xd1?'
p506
tp507
Rp508
asg38
g183
ssS'SAMPL5_082'
p509
(dp510
g3
(lp511
g5
(g9
S'oJ\xfeNc\xeeQ@'
p512
tp513
Rp514
ag5
(g9
S'.T\x1c\xae\xd7\xf7\xcf?'
p515
tp516
Rp517
asg18
S'CC/C(=C(\\c1ccccc1)/c2ccc(cc2)OCCN(C)C)/c3ccccc3'
p518
sg20
g21
(g22
(I0
tp519
g24
tp520
Rp521
(I1
(I2
tp522
g9
I00
S'\xd2\xd8\x14\xc9\xc4<\x1a@\xf9;\x93\xb2\x80\xac\xaa?'
p523
tp524
bsg30
(lp525
g5
(g9
S'\xa2\xa6\xbd@[$A@'
p526
tp527
Rp528
ag5
(g9
S'\xff\xa83\xb26\xa9\xc4?'
p529
tp530
Rp531
asg38
g183
ssS'SAMPL5_007'
p532
(dp533
g3
(lp534
g5
(g9
S'\x030\x82\x7fy\xb6P@'
p535
tp536
Rp537
ag5
(g9
S'\xa3}\x99\x16>\x0c\xc7?'
p538
tp539
Rp540
asg18
S'c1ccc(cc1)CCNc2c3cc(ccc3ncn2)Br'
p541
sg20
g21
(g22
(I0
tp542
g24
tp543
Rp544
(I1
(I2
tp545
g9
I00
S'\x9f5P\xafr\x91\x12@\x05\x0f\xf3;\x12R\xa3?'
p546
tp547
bsg30
(lp548
g5
(g9
S'{\x95\xbcN\\-D@'
p549
tp550
Rp551
ag5
(g9
S'\xdf\x18\x91V\xccB\xbe?'
p552
tp553
Rp554
asg38
S'1373587'
p555
ssS'SAMPL5_027'
p556
(dp557
g3
(lp558
g5
(g9
S'\x7f\xac\x1b\xc6q\xb2J@'
p559
tp560
Rp561
ag5
(g9
S'[8\xd3\xd5\xf7\xf4\xc1?'
p562
tp563
Rp564
asg18
S'c1ccc(cc1)CNc2ncnc(n2)N'
p565
sg20
g21
(g22
(I0
tp566
g24
tp567
Rp568
(I1
(I2
tp569
g9
I00
S'\x07~\xb4=4\xb6\x01\xc0\xec\x15}\xc2CY\x9f?'
p570
tp571
bsg30
(lp572
g5
(g9
S'\x8b/\x8f\xfe\x02\x82P@'
p573
tp574
Rp575
ag5
(g9
S'&\x90\xf6\x02\xfb\xab\xba?'
p576
tp577
Rp578
asg38
S'2483781'
p579
ssS'SAMPL5_026'
p580
(dp581
g3
(lp582
g5
(g9
S'\xc3\xd8vx0TH@'
p583
tp584
Rp585
ag5
(g9
S'\x05|\xe8*Cw\xc5?'
p586
tp587
Rp588
asg18
S'Cc1cc(c2c(c1)c(c([nH]2)C)CC(=O)O)C'
p589
sg20
g21
(g22
(I0
tp590
g24
tp591
Rp592
(I1
(I2
tp593
g9
I00
S'y\xf6n\x07\xd8m\xfb\xbf\x0f\x18$\xa24\x9e\xa4?'
p594
tp595
bsg30
(lp596
g5
(g9
S'#9MG\xb68M@'
p597
tp598
Rp599
ag5
(g9
S'\x8fp7|\n\x1f\xc4?'
p600
tp601
Rp602
asg38
S'703690'
p603
ssS'SAMPL5_024'
p604
(dp605
g3
(lp606
g5
(g9
S'\xcd\x1cQ\xd2\x10\xfeS@'
p607
tp608
Rp609
ag5
(g9
S'm\xad\x14\xa6\xc4Q\xca?'
p610
tp611
Rp612
asg18
S'Cc1ccc2c(c1)cc3cc(sc3n2)C(=O)Nc4ccc(c(c4)C)C'
p613
sg20
g21
(g22
(I0
tp614
g24
tp615
Rp616
(I1
(I2
tp617
g9
I00
S'\x10\x85\x00|x\xa1\xdf?\xa9\xd3\x88$\xac)\xa6?'
p618
tp619
bsg30
(lp620
g5
(g9
S'\x97\xd4]i\x84IS@'
p621
tp622
Rp623
ag5
(g9
S'\xcd\xde\xfc\xcf:\x89\xc1?'
p624
tp625
Rp626
asg38
S'16329490'
p627
ssS'SAMPL5_021'
p628
(dp629
g3
(lp630
g5
(g9
S"\x7f\x10Yfb'M@"
p631
tp632
Rp633
ag5
(g9
S'C\x9eG\xa6\xf2\xed\xc4?'
p634
tp635
Rp636
asg18
S'Cc1nn2cc(nc2s1)c3cccc(c3)OC'
p637
sg20
g21
(g22
(I0
tp638
g24
tp639
Rp640
(I1
(I2
tp641
g9
I00
S'\x01y\x11i\xe0l\n@>>I\xe8\x9dl\xa1?'
p642
tp643
bsg30
(lp644
g5
(g9
S'\x10C,\x1d\x03\xbaC@'
p645
tp646
Rp647
ag5
(g9
S'{\xac\xbft\xff\xd8\xba?'
p648
tp649
Rp650
asg38
S'31467689'
p651
ssS'SAMPL5_020'
p652
(dp653
g3
(lp654
g5
(g9
S'\x9d\xd6\xc3H\xcf\xa4M@'
p655
tp656
Rp657
ag5
(g9
S'?\x8d\xa5\xd9\x03\x94\xc7?'
p658
tp659
Rp660
asg18
S'CCCC(=O)Nc1nc2ccc(cc2s1)C(C)C'
p661
sg20
g21
(g22
(I0
tp662
g24
tp663
Rp664
(I1
(I2
tp665
g9
I00
S'\xe5\xbd\x99\x9c\xc8\xcd\x0e\xc0H\x80\xc9@kh\xa4?'
p666
tp667
bsg30
(lp668
g5
(g9
S'sG\xc4o\x08QT@'
p669
tp670
Rp671
ag5
(g9
S'\x11\x94\r\x14\xc4\x17\xc1?'
p672
tp673
Rp674
asg38
S'5522978'
p675
ssS'SAMPL5_049'
p676
(dp677
g3
(lp678
g5
(g9
S'ml\xb9\xa5\xd0\x8dJ@'
p679
tp680
Rp681
ag5
(g9
S'%\xf8V?iV\xc4?'
p682
tp683
Rp684
asg18
S'c1cc(c(c(c1)Cl)Cl)NC(=O)c2ccno2'
p685
sg20
g21
(g22
(I0
tp686
g24
tp687
Rp688
(I1
(I2
tp689
g9
I00
S'?Z\xa2\xc9H\x9f\x01@zv\x1a\xdb\xd6\x14\xa1?'
p690
tp691
bsg30
(lp692
g5
(g9
S'\xfd\x96\x0c\xa6iDD@'
p693
tp694
Rp695
ag5
(g9
S'\x17\x15\xd5ub\xdf\xba?'
p696
tp697
Rp698
asg38
S'5627856'
p699
ssS'SAMPL5_004'
p700
(dp701
g3
(lp702
g5
(g9
S'@\x87Z7\xa8wP@'
p703
tp704
Rp705
ag5
(g9
S'\xff\x8e\xca\xf3p\x94\xc7?'
p706
tp707
Rp708
asg18
S'CCOc1ccc(cc1)Nc2cc(c3ccccc3n2)C'
p709
sg20
g21
(g22
(I0
tp710
g24
tp711
Rp712
(I1
(I2
tp713
g9
I00
S'\xe5\x06\\\xe5\xd1\xfe\x11@\xc3\x91KSp\x99\xa3?'
p714
tp715
bsg30
(lp716
g5
(g9
S'\xeaA0EX\x18D@'
p717
tp718
Rp719
ag5
(g9
S'+\xea\xe1V\xc3\x14\xbe?'
p720
tp721
Rp722
asg38
S'1221528'
p723
ssS'SAMPL5_061'
p724
(dp725
g3
(lp726
g5
(g9
S'V\xb33\x96xgG@'
p727
tp728
Rp729
ag5
(g9
S'$\xd8\xce\xf0!\xe4\xc3?'
p730
tp731
Rp732
asg18
S'Cc1nccc(n1)[C@@]2(CNCCO2)C'
p733
sg20
g21
(g22
(I0
tp734
g24
tp735
Rp736
(I1
(I2
tp737
g9
I00
S"\xf0\xadT\xfc\xf9P\xfe?'|\\\xfd\t\xbc\xa2?"
p738
tp739
bsg30
(lp740
g5
(g9
S'[\xd7\xb4\xfd\x1a\xffA@'
p741
tp742
Rp743
ag5
(g9
S"'\xce\x05\x11\xbc\xdc\xc1?"
p744
tp745
Rp746
asg38
S'43241882'
p747
ssS'SAMPL5_060'
p748
(dp749
g3
(lp750
g5
(g9
S'\x91\xaa\x95v\x90\x88J@'
p751
tp752
Rp753
ag5
(g9
S'\x8d\x83\n\x7f\xecY\xc2?'
p754
tp755
Rp756
asg18
S'c1ccc2c(c1)c3cc(ncc3[nH]2)C(=O)O'
p757
sg20
g21
(g22
(I0
tp758
g24
tp759
Rp760
(I1
(I2
tp761
g9
I00
S'\x1e\x8b\x80\xbeD\x95\r\xc0_\xfc[\xea\xd5\xa8\x9f?'
p762
tp763
bsg30
(lp764
g5
(g9
S'#tOR*\x8bR@'
p765
tp766
Rp767
ag5
(g9
S'\xdd21\x17\xfeW\xba?'
p768
tp769
Rp770
asg38
S'42618372'
p771
ssS'SAMPL5_067'
p772
(dp773
g3
(lp774
g5
(g9
S'\xc2\xbbU\xcbK\xfbJ@'
p775
tp776
Rp777
ag5
(g9
S'\x94\x0f\xab\xc9a\x8b\xc8?'
p778
tp779
Rp780
asg18
S'CC(C)NC[C@@H](COc1cccc2c1cccc2)O'
p781
sg20
g21
(g22
(I0
tp782
g24
tp783
Rp784
(I1
(I2
tp785
g9
I00
S'\xeb\x05\xa6~\xd4g\x06@\xf06X\xf1\x1fC\xa9?'
p786
tp787
bsg30
(lp788
g5
(g9
S'\xd8\xa96^\t\xfdB@'
p789
tp790
Rp791
ag5
(g9
S'>q\xc2T&g\xca?'
p792
tp793
Rp794
asg38
g183
ssS'SAMPL5_003'
p795
(dp796
g3
(lp797
g5
(g9
S'\xabR^G\xd1\x04J@'
p798
tp799
Rp800
ag5
(g9
S'\x9b<&\xbc\xd0\x11\xc4?'
p801
tp802
Rp803
asg18
S'c1ccc2c(c1)c(=O)oc(n2)c3ccccc3F'
p804
sg20
g21
(g22
(I0
tp805
g24
tp806
Rp807
(I1
(I2
tp808
g9
I00
S'\xfc\x05\x8f/\xa2\x9c\xff?\xb7\x96\x8d\x9dA\xa5\xa0?'
p809
tp810
bsg30
(lp811
g5
(g9
S'\xf4\xda}\xe1JaD@'
p812
tp813
Rp814
ag5
(g9
S'\xe3\xb7\xce\xf3#i\xb9?'
p815
tp816
Rp817
asg38
S'1231787'
p818
ssS'SAMPL5_002'
p819
(dp820
g3
(lp821
g5
(g9
S'\xa8\xc5\x06\x07?\x9aM@'
p822
tp823
Rp824
ag5
(g9
S']\xdeU\xd0#\x12\xc6?'
p825
tp826
Rp827
asg18
S'CCOC(=O)c1c(c2c(c(c(nc2s1)C)C)C)N'
p828
sg20
g21
(g22
(I0
tp829
g24
tp830
Rp831
(I1
(I2
tp832
g9
I00
S'\xd5\x10\xe09\xc0L\x01@\x95\x08\x87\xce\nE\xa2?'
p833
tp834
bsg30
(lp835
g5
(g9
S'U\x1d\x9b\xa6InG@'
p836
tp837
Rp838
ag5
(g9
S'8\xf0\x0f\x02\xf8\xc0\xbb?'
p839
tp840
Rp841
asg38
S'1254130'
p842
ssS'SAMPL5_070'
p843
(dp844
g3
(lp845
g5
(g9
S'Cq}\x7fR\xe1L@'
p846
tp847
Rp848
ag5
(g9
S'\xc4f\xa55\xb8h\xca?'
p849
tp850
Rp851
asg18
S'CN(C)CCC=C1c2ccccc2CCc3c1cccc3'
p852
sg20
g21
(g22
(I0
tp853
g24
tp854
Rp855
(I1
(I2
tp856
g9
I00
S'\x14\x9e\xaf\x00\xd4\xf1\x12@\x85d\xfeM;\xad\xa5?'
p857
tp858
bsg30
(lp859
g5
(g9
S'v\xda\r\xc2\xee\xb9>@'
p860
tp861
Rp862
ag5
(g9
S'\x04\xeb\xad7\n\x1b\xc0?'
p863
tp864
Rp865
asg38
g183
ssS'SAMPL5_069'
p866
(dp867
g3
(lp868
g5
(g9
S'D_mHP\xd4R@'
p869
tp870
Rp871
ag5
(g9
S'Z\xd3q\xc4\xcam\xca?'
p872
tp873
Rp874
asg18
S'C[N@]1CCc2cc(c(c-3c2[C@@H]1Cc4c3cc(c(c4)O)OC)OC)O'
p875
sg20
g21
(g22
(I0
tp876
g24
tp877
Rp878
(I1
(I2
tp879
g9
I00
S'QG\xde./,\x07@u\xbc\xbb^W\x9d\xa6?'
p880
tp881
bsg30
(lp882
g5
(g9
S'\xbe\xad\xe5zQdM@'
p883
tp884
Rp885
ag5
(g9
S'\xedb+l\xc1\x84\xc2?'
p886
tp887
Rp888
asg38
g183
ssS'SAMPL5_068'
p889
(dp890
g3
(lp891
g5
(g9
S'\x80\x900\xb5\xf4\x8bQ@'
p892
tp893
Rp894
ag5
(g9
S'\xf8\xce\x1a\xcd<\xfd\xc9?'
p895
tp896
Rp897
asg18
S'c1ccc(cc1)c2c(nnc(n2)c3ccccn3)c4ccccc4'
p898
sg20
g21
(g22
(I0
tp899
g24
tp900
Rp901
(I1
(I2
tp902
g9
I00
S'\xd0\x8a\xab\x98t-\x11@\xf1\x9a\x97\xaa$\x19\xa5?'
p903
tp904
bsg30
(lp905
g5
(g9
S'\xf7~G\xf7R\xd6F@'
p906
tp907
Rp908
ag5
(g9
S'\xf1\x9b)l\xc9e\xbe?'
p909
tp910
Rp911
asg38
g183
ssS'SAMPL5_045'
p912
(dp913
g3
(lp914
g5
(g9
S'\xf0\xabB\xde\xcf\xc7G@'
p915
tp916
Rp917
ag5
(g9
S'\xa6\xfa\xf7\x8b"\x8d\xc2?'
p918
tp919
Rp920
asg18
S'CCC(=O)Nc1ccc2c(c1)ncs2'
p921
sg20
g21
(g22
(I0
tp922
g24
tp923
Rp924
(I1
(I2
tp925
g9
I00
S'E\x8c\xeb\xbe\x96\xbe\xff\xbfh\xa5\x92p\xd4\xa9\xa0?'
p926
tp927
bsg30
(lp928
g5
(g9
S'\xa6\x08\x9b\xcddqM@'
p929
tp930
Rp931
ag5
(g9
S'"\x1f\xd24*\xc0\xbd?'
p932
tp933
Rp934
asg38
S'12474692'
p935
ssS'SAMPL5_044'
p936
(dp937
g3
(lp938
g5
(g9
S'\xfdi\x89\xc4\x98\x19S@'
p939
tp940
Rp941
ag5
(g9
S'\x8e\xdbAW\x85Z\xc7?'
p942
tp943
Rp944
asg18
S'c1ccc2c(c1)cc(c(=O)o2)C(=O)Nc3ccc4c(c3)scn4'
p945
sg20
g21
(g22
(I0
tp946
g24
tp947
Rp948
(I1
(I2
tp949
g9
I00
S'%a\x07\xfa\xce^\x04@\xc0\xbc\xc6\x06\xe0e\xa3?'
p950
tp951
bsg30
(lp952
g5
(g9
S'w\xbe\xc2\x03\xcf\xeeN@'
p953
tp954
Rp955
ag5
(g9
S'\x94\xefI!\xb4\xb8\xbd?'
p956
tp957
Rp958
asg38
S'4987019'
p959
ssS'SAMPL5_048'
p960
(dp961
g3
(lp962
g5
(g9
S'\xdb|\x96w\xfe\x1fS@'
p963
tp964
Rp965
ag5
(g9
S'\xc6\xb0\xd1\xa5\xee\xd8\xc8?'
p966
tp967
Rp968
asg18
S'c1ccc2c(c1)nc(s2)c3cccc(c3)NC(=O)c4ccno4'
p969
sg20
g21
(g22
(I0
tp970
g24
tp971
Rp972
(I1
(I2
tp973
g9
I00
S'\xb3.u\x0fk\x0e\xf2?-\xdd"\x10\xf7\xd6\xa4?'
p974
tp975
bsg30
(lp976
g5
(g9
S'\xb0\xa3_N\xbb\x83Q@'
p977
tp978
Rp979
ag5
(g9
S'\xa8\x9d\xf3U\xddV\xc0?'
p980
tp981
Rp982
asg38
S'5627798'
p983
ssS'SAMPL5_046'
p984
(dp985
g3
(lp986
g5
(g9
S'6\x11\xf2[SeQ@'
p987
tp988
Rp989
ag5
(g9
S'\xaa\x19\xb6C{\xf2\xc7?'
p990
tp991
Rp992
asg18
S'CSc1ccc(cc1)CC(=O)Nc2c3ccsc3ncn2'
p993
sg20
g21
(g22
(I0
tp994
g24
tp995
Rp996
(I1
(I2
tp997
g9
I00
S'\x8e>\x9c;\x07\x89\xff?L\xe5\xbd]Ra\xa4?'
p998
tp999
bsg30
(lp1000
g5
(g9
S'\x19a\xb7\x93\x9f*M@'
p1001
tp1002
Rp1003
ag5
(g9
S'\xffk\xfe\x08\x95\x80\xc0?'
p1004
tp1005
Rp1006
asg38
S'12046880'
p1007
ssS'SAMPL5_006'
p1008
(dp1009
g3
(lp1010
g5
(g9
S'\xbeB\x9e\xb7\xa2\x99H@'
p1011
tp1012
Rp1013
ag5
(g9
S'j\x11\xbd|\xd9v\xc4?'
p1014
tp1015
Rp1016
asg18
S'C=C(Cn1c2ccccc2nc1CO)Br'
p1017
sg20
g21
(g22
(I0
tp1018
g24
tp1019
Rp1020
(I1
(I2
tp1021
g9
I00
S'^D\xfb\xe2rz\xf5?\x12\xa2\x8aoxs\xa1?'
p1022
tp1023
bsg30
(lp1024
g5
(g9
S'\x93nKK\xd9\xc4D@'
p1025
tp1026
Rp1027
ag5
(g9
S'k\xd3#\xc5Oa\xbc?'
p1028
tp1029
Rp1030
asg38
S'2118862'
p1031
ssS'SAMPL5_063'
p1032
(dp1033
g3
(lp1034
g5
(g9
S'M\xef\x9bhT\xa7J@'
p1035
tp1036
Rp1037
ag5
(g9
S'l\xc0l@\xa4\x14\xc5?'
p1038
tp1039
Rp1040
asg18
S'C1C[C@H](CNC1)N2CCC(CC2)C(=O)N'
p1041
sg20
g21
(g22
(I0
tp1042
g24
tp1043
Rp1044
(I1
(I2
tp1045
g9
I00
S'\xd69\xe2]\xac\xb6\r\xc0\xc8\x08\x8a\xa4x\xcb\xa1?'
p1046
tp1047
bsg30
(lp1048
g5
(g9
S'\x86\x96\x04\xb1\x81\xa0R@'
p1049
tp1050
Rp1051
ag5
(g9
S'\x98\xd1\xc5;kP\xbc?'
p1052
tp1053
Rp1054
asg38
S'38498425'
p1055
ssS'SAMPL5_047'
p1056
(dp1057
g3
(lp1058
g5
(g9
S'\xa6\xc1\xd1\x11c\xd6P@'
p1059
tp1060
Rp1061
ag5
(g9
S'YL^\x85Z\x8f\xc6?'
p1062
tp1063
Rp1064
asg18
S'c1cnoc1C(=O)Nc2c(c3c(s2)CCCC3)C#N'
p1065
sg20
g21
(g22
(I0
tp1066
g24
tp1067
Rp1068
(I1
(I2
tp1069
g9
I00
S'4\xfe\x15>\xc7\xdf\t@\xc5\xf4\xddA\tw\xa2?'
p1070
tp1071
bsg30
(lp1072
g5
(g9
S'\xd1\xe5\xe0\x17\xbdqH@'
p1073
tp1074
Rp1075
ag5
(g9
S'\xa4mn\x85z:\xbb?'
p1076
tp1077
Rp1078
asg38
S'5627778'
p1079
ssS'SAMPL5_055'
p1080
(dp1081
g3
(lp1082
g5
(g9
S'\xf6|]\x1a\xa0\x87E@'
p1083
tp1084
Rp1085
ag5
(g9
S':h*&\xeb\xe4\xbf?'
p1086
tp1087
Rp1088
asg18
S'c1ccc2c(c1)ncc(n2)C(=O)N'
p1089
sg20
g21
(g22
(I0
tp1090
g24
tp1091
Rp1092
(I1
(I2
tp1093
g9
I00
S'\xf1\xfc\xfe\xbcc\n\xe1\xbf\xf4\xeeG\xd6\xbcL\x9b?'
p1094
tp1095
bsg30
(lp1096
g5
(g9
S'4\xf0\xeaH\xb2\x0cG@'
p1097
tp1098
Rp1099
ag5
(g9
S'\xfd\x13\xf6)\x92^\xb6?'
p1100
tp1101
Rp1102
asg38
S'3800934'
p1103
ssS'SAMPL5_088'
p1104
(dp1105
g3
(lp1106
g5
(g9
S'|\x88\x9fojXM@'
p1107
tp1108
Rp1109
ag5
(g9
S'\xaf\\\x8b\xbf\xd1\xe6\xc9?'
p1110
tp1111
Rp1112
asg18
S'CCN(Cc1ccncc1)C(=O)[C@H](CO)c2ccccc2'
p1113
sg20
g21
(g22
(I0
tp1114
g24
tp1115
Rp1116
(I1
(I2
tp1117
g9
I00
S'\xf2\xa8\xe8\xb4\xacA\xa5\xbf\xe5!H^\x9d\x88\xa5?'
p1118
tp1119
bsg30
(lp1120
g5
(g9
S'\x9cN\xb6\xb6\xbfvM@'
p1121
tp1122
Rp1123
ag5
(g9
S'/\x169t\x84\x88\xc0?'
p1124
tp1125
Rp1126
asg38
g183
ssS'SAMPL5_092'
p1127
(dp1128
g3
(lp1129
g5
(g9
S'I\x8d\xae\x83\xa4T[@'
p1130
tp1131
Rp1132
ag5
(g9
S'\xe1\xd4\xb9.\xaa\xb1\xd3?'
p1133
tp1134
Rp1135
asg18
S'CC(=O)N1CCN(CC1)c2ccc(cc2)OC[C@H]3CO[C@](O3)(Cn4ccnc4)c5ccc(cc5Cl)Cl'
p1136
sg20
g21
(g22
(I0
tp1137
g24
tp1138
Rp1139
(I1
(I2
tp1140
g9
I00
S'\xcf\xe04\x8f\x16f\xf8?\xabE~%\xc1i\xb4?'
p1141
tp1142
bsg30
(lp1143
g5
(g9
S"\x81{\x06\xaf\x91'Y@"
p1144
tp1145
Rp1146
ag5
(g9
S'9\x05\x8c\x8a\x9ev\xd5?'
p1147
tp1148
Rp1149
asg38
g183
ssS'SAMPL5_090'
p1150
(dp1151
g3
(lp1152
g5
(g9
S'\x8b\xc2#\x9d\xb8\xb7Q@'
p1153
tp1154
Rp1155
ag5
(g9
S"H+f3\x12'\xca?"
p1156
tp1157
Rp1158
asg18
S'Cc1cc2c(cc1C)nc(c(n2)c3ccccn3)c4ccccn4'
p1159
sg20
g21
(g22
(I0
tp1160
g24
tp1161
Rp1162
(I1
(I2
tp1163
g9
I00
S"\xe9\x15\xd6\xdc\xb6G\x11@\xbb^\x07\xd5'z\xa7?"
p1164
tp1165
bsg30
(lp1166
g5
(g9
S'{\xd8\xa5o\x1e\x1bG@'
p1167
tp1168
Rp1169
ag5
(g9
S'\xe4l|\x9fB\xf0\xc4?'
p1170
tp1171
Rp1172
asg38
g183
ssS'SAMPL5_005'
p1173
(dp1174
g3
(lp1175
g5
(g9
S'\xb5^-\x01\xa8>Q@'
p1176
tp1177
Rp1178
ag5
(g9
S'\n(\x15\xfd\xe3j\xc6?'
p1179
tp1180
Rp1181
asg18
S'Cn1ccnc1SCC(=O)Nc2ccc3c(c2)OCO3'
p1182
sg20
g21
(g22
(I0
tp1183
g24
tp1184
Rp1185
(I1
(I2
tp1186
g9
I00
S'l\x0bC\x93\x18\xa6\xf0?\x84\x99\x9d_\xc8^\xa6?'
p1187
tp1188
bsg30
(lp1189
g5
(g9
S'\xd9z\x19u\x0f\x85O@'
p1190
tp1191
Rp1192
ag5
(g9
S'\xeby>\xdf\xf8\xb9\xc6?'
p1193
tp1194
Rp1195
asg38
S'1363085'
p1196
ssS'SAMPL5_042'
p1197
(dp1198
g3
(lp1199
g5
(g9
S'\xf3\x1f(\xf1q:P@'
p1200
tp1201
Rp1202
ag5
(g9
S'}9\x97\xd1.\xd0\xc7?'
p1203
tp1204
Rp1205
asg18
S'c1ccc(cc1)c2ccccc2NC(=O)c3ccc(=O)[nH]n3'
p1206
sg20
g21
(g22
(I0
tp1207
g24
tp1208
Rp1209
(I1
(I2
tp1210
g9
I00
S'`k\xfe\x1e\xf6\xbe\xf5\xbf|\xb5\xb1l\xdb\xc5\xa7?'
p1211
tp1212
bsg30
(lp1213
g5
(g9
S'\x81\xdd\x87\xef\xf2*R@'
p1214
tp1215
Rp1216
ag5
(g9
S'N\xd0m\x1bE)\xc8?'
p1217
tp1218
Rp1219
asg38
S'1552842'
p1220
ssS'SAMPL5_033'
p1221
(dp1222
g3
(lp1223
g5
(g9
S'\x00u\x01\x14\x9f\xecQ@'
p1224
tp1225
Rp1226
ag5
(g9
S'\xb9;\xa0*0\xd8\xca?'
p1227
tp1228
Rp1229
asg18
S'Cc1ccc(cc1NC(=O)N2CCCCC[C@@H]2c3cccs3)Cl'
p1230
sg20
g21
(g22
(I0
tp1231
g24
tp1232
Rp1233
(I1
(I2
tp1234
g9
I00
S'q\xb8\xb2\xcb\r\x92\x0e@\r\x95\x0c\xfb\xe5\x8d\xa6?'
p1235
tp1236
bsg30
(lp1237
g5
(g9
S'\xc0<S\x92K\xf1H@'
p1238
tp1239
Rp1240
ag5
(g9
S'_\xe2\xbd\xcaV\xc1\xc1?'
p1241
tp1242
Rp1243
asg38
S'16363773'
p1244
ssS'SAMPL5_037'
p1245
(dp1246
g3
(lp1247
g5
(g9
S'B5\xe2\x06\x1f\x12G@'
p1248
tp1249
Rp1250
ag5
(g9
S'\x11\xab\xb9\xdbx\t\xc2?'
p1251
tp1252
Rp1253
asg18
S'CN(C)S(=O)(=O)N1CCNCC1'
p1254
sg20
g21
(g22
(I0
tp1255
g24
tp1256
Rp1257
(I1
(I2
tp1258
g9
I00
S'<\xd5\xac\xed\xee\xb3\x12\xc0\xa8(\xc1)\xc3\x9b\x9f?'
p1259
tp1260
bsg30
(lp1261
g5
(g9
S'\xa5*>V(5R@'
p1262
tp1263
Rp1264
ag5
(g9
S'M\xae\xa1\xe8\xaa\x13\xbb?'
p1265
tp1266
Rp1267
asg38
S'833953'
p1268
ss.