(dp0
S'SAMPL5_017'
p1
(dp2
S'cyclohexane'
p3
(lp4
cnumpy.core.multiarray
scalar
p5
(cnumpy
dtype
p6
(S'f8'
p7
I0
I1
tp8
Rp9
(I3
S'<'
p10
NNNI-1
I-1
I0
tp11
bS'\xeaz\xaa44\x04R@'
p12
tp13
Rp14
ag5
(g9
S'\xec\xc6Vu\xc8\x08\xc8?'
p15
tp16
Rp17
asS'Smiles'
p18
S'c1ccc2c(c1)c(nc(n2)c3ccccc3O)NC4CCCC4'
p19
sS'pKa_acidic'
p20
F8.93
sS'Conj_Acid'
p21
(lp22
F8.93
aF14.36
asS'EmolID'
p23
S'2425478'
p24
sS'LogD_baseCorrected'
p25
(lp26
g5
(g9
S't\xfd\x9c\x1f\xbf\xf5\x18@'
p27
tp28
Rp29
ag5
(g9
S'\x82\x10\xb9_\xdf\x01\xa4?'
p30
tp31
Rp32
asS'LogD_bothCorrected'
p33
(lp34
g5
(g9
S'U/-\xfa\x18\xe9\x18@'
p35
tp36
Rp37
ag32
asS'pKa_basic'
p38
F5.76
sS'Conj_Base'
p39
(lp40
F0.78
aF3.94
aF5.76
asS'water'
p41
(lp42
g5
(g9
S'~\x0e<\xc6!2B@'
p43
tp44
Rp45
ag5
(g9
S'Rs}1#\xd2\xbe?'
p46
tp47
Rp48
asS'logD_PickardCorrected'
p49
(lp50
g5
(g9
S'\xb0.l%^\xff\x18@'
p51
tp52
Rp53
ag5
(g9
S'\x82\x10\xb9_\xdf\x01\xa4?'
p54
tp55
Rp56
asS'StatePenaltyCorrection'
p57
g5
(g9
S'\xaelGu\xef^\xf2\xbf'
p58
tp59
Rp60
sS'LogD_oneCorrected'
p61
(lp62
g5
(g9
S'6|\xe0\x89\xe2\xf2\x18@'
p63
tp64
Rp65
ag32
asS'LogD_calc'
p66
cnumpy.core.multiarray
_reconstruct
p67
(cnumpy
ndarray
p68
(I0
tp69
S'b'
p70
tp71
Rp72
(I1
(I2
tp73
g6
(S'f8'
p74
I0
I1
tp75
Rp76
(I3
S'<'
p77
NNNI-1
I-1
I0
tp78
bI00
S'\xf0;F\xcc\xd1\xff\x18@\x82\x10\xb9_\xdf\x01\xa4?'
p79
tp80
bsS'LogD_acidCorrected'
p81
(lp82
g65
ag32
asS'logD_stateCorrected'
p83
(lp84
g5
(g9
S'\xc4`\xf4\xee\x15h\x14@'
p85
tp86
Rp87
ag5
(g9
S'\x82\x10\xb9_\xdf\x01\xa4?'
p88
tp89
Rp90
assS'SAMPL5_058'
p91
(dp92
g3
(lp93
g5
(g9
S'\xfb\xf4\xd7\xa7\xfd\xb6I@'
p94
tp95
Rp96
ag5
(g9
S'\x1f\xdf\x17\xf3(N\xc4?'
p97
tp98
Rp99
asg18
S'c1ccc(cc1)n2c(=O)c3ccccc3cn2'
p100
sg20
Nsg21
(lp101
sg23
S'3730323'
p102
sg25
(lp103
g5
(g9
S'O\x8ea\xa438\xee?'
p104
tp105
Rp106
ag5
(g9
S'\xdfk\xd5Dv\xfb\xa0?'
p107
tp108
Rp109
asg33
(lp110
g5
(g9
S'O\x8ea\xa438\xee?'
p111
tp112
Rp113
ag109
asg38
F-1.41
sg39
(lp114
F-1.41
asg41
(lp115
g5
(g9
S'\x9c\xbd\x19\x84\x04\x05G@'
p116
tp117
Rp118
ag5
(g9
S'G\xefP\x9e\x80t\xba?'
p119
tp120
Rp121
asg49
(lp122
g5
(g9
S'\xd0\x00\xbe\xa438\xee?'
p123
tp124
Rp125
ag5
(g9
S'\xdfk\xd5Dv\xfb\xa0?'
p126
tp127
Rp128
asg57
g5
(g9
S'\x00\x00\x00\x00\x00\x00\x00\x00'
p129
tp130
Rp131
sg61
(lp132
g106
ag109
asg66
g67
(g68
(I0
tp133
g70
tp134
Rp135
(I1
(I2
tp136
g76
I00
S'\xd0\x00\xbe\xa438\xee?\xdfk\xd5Dv\xfb\xa0?'
p137
tp138
bsg81
(lp139
g5
(g9
S'\xd0\x00\xbe\xa438\xee?'
p140
tp141
Rp142
ag109
asg83
(lp143
g5
(g9
S'\xd0\x00\xbe\xa438\xee?'
p144
tp145
Rp146
ag5
(g9
S'\xdfk\xd5Dv\xfb\xa0?'
p147
tp148
Rp149
assS'SAMPL5_059'
p150
(dp151
g3
(lp152
g5
(g9
S'6\x02\xa7\xa2\x1e\tE@'
p153
tp154
Rp155
ag5
(g9
S'w\xd4D~\x10\x03\xc0?'
p156
tp157
Rp158
asg18
S'c1ccc(cc1)c2nc(sn2)N'
p159
sg20
F13.54
sg21
(lp160
F13.54
aF13.54
asg23
S'711981'
p161
sg25
(lp162
g5
(g9
S'\xc0\xe3\xc7\xdb\xd6"\xe5\xbf'
p163
tp164
Rp165
ag5
(g9
S'\x14;\xb8\xb1\xd8\x92\x9b?'
p166
tp167
Rp168
asg33
(lp169
g5
(g9
S'\xd3\x7f\xae\x84\xd7"\xe5\xbf'
p170
tp171
Rp172
ag168
asg38
F3.11
sg39
(lp173
F-0.4
aF3.11
aF-0.16
asg41
(lp174
g5
(g9
S'\xb2\x05\x15\xe1\xae\xebF@'
p175
tp176
Rp177
ag5
(g9
S'\xb3\xf7\x92%\xd6\xdc\xb6?'
p178
tp179
Rp180
asg49
(lp181
g5
(g9
S'\xb5$5&\xa8"\xe5\xbf'
p182
tp183
Rp184
ag5
(g9
S'\x14;\xb8\xb1\xd8\x92\x9b?'
p185
tp186
Rp187
asg57
g5
(g9
S'\x00\x00\x00\x00\x00\x00\x00\x00'
p188
tp189
Rp190
sg61
(lp191
g165
ag168
asg66
g67
(g68
(I0
tp192
g70
tp193
Rp194
(I1
(I2
tp195
g76
I00
S'\xb5$5&\xa8"\xe5\xbf\x14;\xb8\xb1\xd8\x92\x9b?'
p196
tp197
bsg81
(lp198
g5
(g9
S'y\xf8\x1d\xcf\xa8"\xe5\xbf'
p199
tp200
Rp201
ag168
asg83
(lp202
g5
(g9
S'\xb5$5&\xa8"\xe5\xbf'
p203
tp204
Rp205
ag5
(g9
S'\x14;\xb8\xb1\xd8\x92\x9b?'
p206
tp207
Rp208
assS'SAMPL5_013'
p209
(dp210
g3
(lp211
g5
(g9
S'\x13\xa8NJu\xe1T@'
p212
tp213
Rp214
ag5
(g9
S'v\xd9\x00\x03d\x0e\xca?'
p215
tp216
Rp217
asg18
S'Cc1ccc(cc1)c2nc(c3c(n2)n(c(=O)[nH]3)c4ccccc4)C(=O)N'
p218
sg20
F7.37
sg21
(lp219
F10.75
aF10.75
aF7.37
asg23
S'16095985'
p220
sg25
(lp221
g5
(g9
S'Wg!yz\xa4\xf1?'
p222
tp223
Rp224
ag5
(g9
S'sUi*.w\xa5?'
p225
tp226
Rp227
asg33
(lp228
g5
(g9
S'\x1d\xb7S\xee\xea)\xe9?'
p229
tp230
Rp231
ag227
asg38
F0.52
sg39
(lp232
F0.52
aF0.12
aF-2.93
asg41
(lp233
g5
(g9
S'nD\x9b\xf1\xa4NS@'
p234
tp235
Rp236
ag5
(g9
S'\xdd(w\xa1\xbf\x1a\xc0?'
p237
tp238
Rp239
asg49
(lp240
g5
(g9
S'a\xac\x7f\x88z\xa4\xf1?'
p241
tp242
Rp243
ag5
(g9
S'sUi*.w\xa5?'
p244
tp245
Rp246
asg57
g5
(g9
S'\xa2]\x82\x1e\xa9\xd2,\xbf'
p247
tp248
Rp249
sg61
(lp250
g5
(g9
S"}'*\xfd\xea)\xe9?"
p251
tp252
Rp253
ag227
asg66
g67
(g68
(I0
tp254
g70
tp255
Rp256
(I1
(I2
tp257
g76
I00
S'a\xac\x7f\x88z\xa4\xf1?sUi*.w\xa5?'
p258
tp259
bsg81
(lp260
g253
ag227
asg83
(lp261
g5
(g9
S'N\xb86\xf3\x93\xa3\xf1?'
p262
tp263
Rp264
ag5
(g9
S'sUi*.w\xa5?'
p265
tp266
Rp267
assS'SAMPL5_010'
p268
(dp269
g3
(lp270
g5
(g9
S'\xa1\xbf\x08\xe2P\x81K@'
p271
tp272
Rp273
ag5
(g9
S'\x80\xed\x92\xcd%d\xc3?'
p274
tp275
Rp276
asg18
S'c1cc(cc(c1)NCc2ccncc2)C(=O)O'
p277
sg20
F4.33
sg21
(lp278
F4.33
aF14.68
asg23
S'1491855'
p279
sg25
(lp280
g5
(g9
S'\xea\x03/\xb5\x91K\xf7\xbf'
p281
tp282
Rp283
ag5
(g9
S'\xc0%\xb6\x12\xe3\xac\xa0?'
p284
tp285
Rp286
asg33
(lp287
g5
(g9
S'\x1cMS\xd7\xba\xd6\x11\xc0'
p288
tp289
Rp290
ag286
asg38
F6.62
sg39
(lp291
F2.63
aF6.62
asg41
(lp292
g5
(g9
S'<\xf1\xc0+YxO@'
p293
tp294
Rp295
ag5
(g9
S'\x86\x82\xd7L|\x95\xbb?'
p296
tp297
Rp298
asg49
(lp299
g5
(g9
S'\xe8i|Q\xdd\x82\x0b\xc0'
p300
tp301
Rp302
ag5
(g9
S'\xc0%\xb6\x12\xe3\xac\xa0?'
p303
tp304
Rp305
asg57
g5
(g9
S'7\xe6\xabtm\xb1\n\xc0'
p306
tp307
Rp308
sg61
(lp309
g5
(g9
S'^PF\xc6\xaa\xd6\x11\xc0'
p310
tp311
Rp312
ag286
asg66
g67
(g68
(I0
tp313
g70
tp314
Rp315
(I1
(I2
tp316
g76
I00
S'\x86\x88\xadWo:\xf6\xbf\xc0%\xb6\x12\xe3\xac\xa0?'
p317
tp318
bsg81
(lp319
g312
ag286
asg83
(lp320
g5
(g9
S'=UA\x90R\xe7\x12\xc0'
p321
tp322
Rp323
ag5
(g9
S'\xc0%\xb6\x12\xe3\xac\xa0?'
p324
tp325
Rp326
assS'SAMPL5_011'
p327
(dp328
g3
(lp329
g5
(g9
S'\xb2\xb4\xd9\x81\xc3`M@'
p330
tp331
Rp332
ag5
(g9
S')\xeb\xa2\xfc\xf7\xde\xc4?'
p333
tp334
Rp335
asg18
S'Cc1cc(nc(n1)Nc2ccccc2C(=O)O)C'
p336
sg20
F4.57
sg21
(lp337
F4.57
aF12.85
asg23
S'542592'
p338
sg25
(lp339
g5
(g9
S'\x14B\xbc-"{\xfb?'
p340
tp341
Rp342
ag5
(g9
S'\xa2\x85a\xc9Ih\xa1?'
p343
tp344
Rp345
asg33
(lp346
g5
(g9
S'\xdd\x9a\xd5@}\xcc\xf1\xbf'
p347
tp348
Rp349
ag345
asg38
F4.58
sg39
(lp350
F4.58
aF4.58
asg41
(lp351
g5
(g9
S'(tg\xfccyH@'
p352
tp353
Rp354
ag5
(g9
S'Bx\x11\xa2\xba\xf0\xba?'
p355
tp356
Rp357
asg49
(lp358
g5
(g9
S'\x7f\x1ep\xe1\xf9\xce\xf2\xbf'
p359
tp360
Rp361
ag5
(g9
S'\xa2\x85a\xc9Ih\xa1?'
p362
tp363
Rp364
asg57
g5
(g9
S'\xda\xf0\xb2\x1a^/\x08\xc0'
p365
tp366
Rp367
sg61
(lp368
g5
(g9
S'J\xde:<|\xcc\xf1\xbf'
p369
tp370
Rp371
ag345
asg66
g67
(g68
(I0
tp372
g70
tp373
Rp374
(I1
(I2
tp375
g76
I00
S'M\xae\\\xeb\xd2}\xfb?\xa2\x85a\xc9Ih\xa1?'
p376
tp377
bsg81
(lp378
g371
ag345
asg83
(lp379
g5
(g9
S'g3\tJ\xe9\xe0\xf4\xbf'
p380
tp381
Rp382
ag5
(g9
S'\xa2\x85a\xc9Ih\xa1?'
p383
tp384
Rp385
assS'SAMPL5_074'
p386
(dp387
g3
(lp388
g5
(g9
S'\t\x18l\x00\xb2\x8aQ@'
p389
tp390
Rp391
ag5
(g9
S'\xe6\xbb\xab\xf8X(\xc4?'
p392
tp393
Rp394
asg18
S'c1nc(c2c(n1)n(cn2)[C@H]3[C@@H]([C@@H]([C@H](O3)CO)O)O)N'
p395
sg20
F12.0
sg21
(lp396
F14.06
aF12.6
aF12.0
aF13.04
aF13.04
asg23
S''
p397
sg25
(lp398
g5
(g9
S'U"\x1a}\xcf\x13\x0e\xc0'
p399
tp400
Rp401
ag5
(g9
S'N\xcb\xba\xda\x8d\xb0\xa4?'
p402
tp403
Rp404
asg33
(lp405
g5
(g9
S'\x9d\x0f\xb84\xd5\x13\x0e\xc0'
p406
tp407
Rp408
ag404
asg38
F3.97
sg39
(lp409
F2.92
aF3.97
aF-0.4
aF-0.69
aF-1.84
aF-2.3
asg41
(lp410
g5
(g9
S'\x141Bl\x17\xe8V@'
p411
tp412
Rp413
ag5
(g9
S'\xb0\x0c\xc5\xfei\x92\xc5?'
p414
tp415
Rp416
asg49
(lp417
g5
(g9
S'\x9c+T\xe8z\x13\x0e\xc0'
p418
tp419
Rp420
ag5
(g9
S'N\xcb\xba\xda\x8d\xb0\xa4?'
p421
tp422
Rp423
asg57
g5
(g9
S'\x00\x00\x00\x00\x00\x00\x00\x00'
p424
tp425
Rp426
sg61
(lp427
g401
ag404
asg66
g67
(g68
(I0
tp428
g70
tp429
Rp430
(I1
(I2
tp431
g76
I00
S'\x9c+T\xe8z\x13\x0e\xc0N\xcb\xba\xda\x8d\xb0\xa4?'
p432
tp433
bsg81
(lp434
g5
(g9
S'\xf4M}\xa0\x80\x13\x0e\xc0'
p435
tp436
Rp437
ag404
asg83
(lp438
g5
(g9
S'\x9c+T\xe8z\x13\x0e\xc0'
p439
tp440
Rp441
ag5
(g9
S'N\xcb\xba\xda\x8d\xb0\xa4?'
p442
tp443
Rp444
assS'SAMPL5_075'
p445
(dp446
g3
(lp447
g5
(g9
S'=/\xd8\xeb\xc5\xfaL@'
p448
tp449
Rp450
ag5
(g9
S'\xd7\xaf\x8f\x01C\x0e\xc9?'
p451
tp452
Rp453
asg18
S'CC(C)NC[C@@H](COc1ccc(cc1)CCOC)O'
p454
sg20
F13.32
sg21
(lp455
F13.32
asg23
g397
sg25
(lp456
g5
(g9
S'\x104\xdb\xe1[\xfe\xe7?'
p457
tp458
Rp459
ag5
(g9
S'\xd3D\xcf\xb5\x05\xaf\xa6?'
p460
tp461
Rp462
asg33
(lp463
g5
(g9
S'u\xa8\xf3\xdd[\xfe\xe7?'
p464
tp465
Rp466
ag462
asg38
F9.25
sg39
(lp467
F9.25
aF-1.29
asg41
(lp468
g5
(g9
S'\x92w\x99,\xd8\x8aE@'
p469
tp470
Rp471
ag5
(g9
S'\xc5j5\xedx~\xc4?'
p472
tp473
Rp474
asg49
(lp475
g5
(g9
S"T\x9a\xc3\x0e\xc6'\x02@"
p476
tp477
Rp478
ag5
(g9
S'\xd3D\xcf\xb5\x05\xaf\xa6?'
p479
tp480
Rp481
asg57
g5
(g9
S'F\xb3\x9e\x1aX\xb1\xff\xbf'
p482
tp483
Rp484
sg61
(lp485
g459
ag462
asg66
g67
(g68
(I0
tp486
g70
tp487
Rp488
(I1
(I2
tp489
g76
I00
S'\x05\xe5\xa7\x8c\xdd\xd8\x04@\xd3D\xcf\xb5\x05\xaf\xa6?'
p490
tp491
bsg81
(lp492
g5
(g9
S'\xd5k\x93F\xdd\xd8\x04@'
p493
tp494
Rp495
ag462
asg83
(lp496
g5
(g9
S'\x88-b\xfd\xc5\x00\xe4?'
p497
tp498
Rp499
ag5
(g9
S'\xd3D\xcf\xb5\x05\xaf\xa6?'
p500
tp501
Rp502
assS'SAMPL5_050'
p503
(dp504
g3
(lp505
g5
(g9
S'6D\xa0\xa4\x90bK@'
p506
tp507
Rp508
ag5
(g9
S'\x8a\xe0\xa3\x82%\xea\xc2?'
p509
tp510
Rp511
asg18
S'Cc1ccc2c(n1)nn3c2nc(cc3O)C'
p512
sg20
F-3.58
sg21
(lp513
F-3.58
asg23
S'5663556'
p514
sg25
(lp515
g5
(g9
S'\xb1\x19\xe5]\x971\xf3?'
p516
tp517
Rp518
ag5
(g9
S'\xac\x927\x83u\xea\xa3?'
p519
tp520
Rp521
asg33
(lp522
g5
(g9
S'T\x8fg\x1b\x8e\x8f#\xc0'
p523
tp524
Rp525
ag521
asg38
F2.83
sg39
(lp526
F0.35
aF2.83
asg41
(lp527
g5
(g9
S'r\xe4r\xfe\x17\xf6G@'
p528
tp529
Rp530
ag5
(g9
S'\x0e\x16\xfd\x0b)6\xc5?'
p531
tp532
Rp533
asg49
(lp534
g5
(g9
S'~\xae?t&v\x14\xc0'
p535
tp536
Rp537
ag5
(g9
S'\xac\x927\x83u\xea\xa3?'
p538
tp539
Rp540
asg57
g5
(g9
S"\xd4~G\xd5\xa3\xcd'\xc0"
p541
tp542
Rp543
sg61
(lp544
g5
(g9
S'T\x8fg\x1b\x8e\x8f#\xc0'
p545
tp546
Rp547
ag521
asg66
g67
(g68
(I0
tp548
g70
tp549
Rp550
(I1
(I2
tp551
g76
I00
S'\x10\x1d\xa5\x9f\xa31\xf3?\xac\x927\x83u\xea\xa3?'
p552
tp553
bsg81
(lp554
g547
ag521
asg83
(lp555
g5
(g9
S'2\xdbRaog%\xc0'
p556
tp557
Rp558
ag5
(g9
S'\xac\x927\x83u\xea\xa3?'
p559
tp560
Rp561
assS'SAMPL5_056'
p562
(dp563
g3
(lp564
g5
(g9
S'\xad\x11%\x9e\xbe\xefK@'
p565
tp566
Rp567
ag5
(g9
S'7P\xb5l"\xd8\xc4?'
p568
tp569
Rp570
asg18
S'CC(C)[C@@H]1Cc2c(cc(c(n2)O)C#N)CO1'
p571
sg20
F3.26
sg21
(lp572
F3.26
asg23
g397
sg25
(lp573
g5
(g9
S'\xd8\xbf\x0fE\x91\x89\x05@'
p574
tp575
Rp576
ag5
(g9
S'\x15\xbf)^\xa6$\xa1?'
p577
tp578
Rp579
asg33
(lp580
g5
(g9
S'\x8d\x9a\x0b\x0eo*\xf7\xbf'
p581
tp582
Rp583
ag579
asg38
F0.28
sg39
(lp584
F0.28
asg41
(lp585
g5
(g9
S'C\xe74\x01\xc7@D@'
p586
tp587
Rp588
ag5
(g9
S'Sh\x10\x0e4\x9c\xb9?'
p589
tp590
Rp591
asg49
(lp592
g5
(g9
S'`R\x115\xb83\xcc\xbf'
p593
tp594
Rp595
ag5
(g9
S'\x15\xbf)^\xa6$\xa1?'
p596
tp597
Rp598
asg57
g5
(g9
S'\x19\x9b\x92\xff\x00\xb1\x13\xc0'
p599
tp600
Rp601
sg61
(lp602
g5
(g9
S'\x91p\x0b\x0eo*\xf7\xbf'
p603
tp604
Rp605
ag579
asg66
g67
(g68
(I0
tp606
g70
tp607
Rp608
(I1
(I2
tp609
g76
I00
S'\xa6\xb7{I\x91\x89\x05@\x15\xbf)^\xa6$\xa1?'
p610
tp611
bsg81
(lp612
g605
ag579
asg83
(lp613
g5
(g9
S'\x8c~\xa9\xb5p\xd8\x01\xc0'
p614
tp615
Rp616
ag5
(g9
S'\x15\xbf)^\xa6$\xa1?'
p617
tp618
Rp619
assS'SAMPL5_071'
p620
(dp621
g3
(lp622
g5
(g9
S'\x87?,\xcb\xdd\x96M@'
p623
tp624
Rp625
ag5
(g9
S'\x0b?\x82\x89=\x98\xc7?'
p626
tp627
Rp628
asg18
S'CCOc1cc(c(cc1N2CCOCC2)OCC)N'
p629
sg20
F15.55
sg21
(lp630
F15.55
aF15.55
asg23
g397
sg25
(lp631
g5
(g9
S'\xec\x7f\xba\xe5#$\xe9?'
p632
tp633
Rp634
ag5
(g9
S'\xbf\xbd\xc6\x03\xf3\xd2\xa3?'
p635
tp636
Rp637
asg33
(lp638
g5
(g9
S'4\x1c\x14\xe4#$\xe9?'
p639
tp640
Rp641
ag637
asg38
F4.02
sg39
(lp642
F4.02
aF3.98
asg41
(lp643
g5
(g9
S'\xed\xed_\xd5\xb5XK@'
p644
tp645
Rp646
ag5
(g9
S'\xfbf\xb9X]6\xbf?'
p647
tp648
Rp649
asg49
(lp650
g5
(g9
S'\x00z\xc5~\x9f%\xe9?'
p651
tp652
Rp653
ag5
(g9
S'\xbf\xbd\xc6\x03\xf3\xd2\xa3?'
p654
tp655
Rp656
asg57
g5
(g9
S'\x00\x00\x00\x00\x00\x00\x00\x00'
p657
tp658
Rp659
sg61
(lp660
g634
ag637
asg66
g67
(g68
(I0
tp661
g70
tp662
Rp663
(I1
(I2
tp664
g76
I00
S'\x00z\xc5~\x9f%\xe9?\xbf\xbd\xc6\x03\xf3\xd2\xa3?'
p665
tp666
bsg81
(lp667
g5
(g9
S'4\xe9\x1e}\x9f%\xe9?'
p668
tp669
Rp670
ag637
asg83
(lp671
g5
(g9
S'\x00z\xc5~\x9f%\xe9?'
p672
tp673
Rp674
ag5
(g9
S'\xbf\xbd\xc6\x03\xf3\xd2\xa3?'
p675
tp676
Rp677
assS'SAMPL5_072'
p678
(dp679
g3
(lp680
g5
(g9
S'\x1c\xb4\xd4(\xfbJJ@'
p681
tp682
Rp683
ag5
(g9
S'H]H\x9e\xbe\x97\xc8?'
p684
tp685
Rp686
asg18
S'CN(C)CCOC(c1ccccc1)c2ccccc2'
p687
sg20
Nsg21
(lp688
sg23
g397
sg25
(lp689
g5
(g9
S'\x08\x84\x84\xb6\x07\t\x03@'
p690
tp691
Rp692
ag5
(g9
S':\x96:\x03V@\xa5?'
p693
tp694
Rp695
asg33
(lp696
g5
(g9
S'\x08\x84\x84\xb6\x07\t\x03@'
p697
tp698
Rp699
ag695
asg38
F8.53
sg39
(lp700
F8.53
asg41
(lp701
g5
(g9
S'\xb9\x9e\xb1\x87:0@@'
p702
tp703
Rp704
ag5
(g9
S'\x01}o\x8bh\xbe\xc1?'
p705
tp706
Rp707
asg49
(lp708
g5
(g9
S'#\xac\xd18e~\x08@'
p709
tp710
Rp711
ag5
(g9
S':\x96:\x03V@\xa5?'
p712
tp713
Rp714
asg57
g5
(g9
S'\xf6;o\xa3L\xab\xf3\xbf'
p715
tp716
Rp717
sg61
(lp718
g692
ag695
asg66
g67
(g68
(I0
tp719
g70
tp720
Rp721
(I1
(I2
tp722
g76
I00
S'7Z\x19\x1a\xe0R\x0c@:\x96:\x03V@\xa5?'
p723
tp724
bsg81
(lp725
g5
(g9
S'7Z\x19\x1a\xe0R\x0c@'
p726
tp727
Rp728
ag695
asg83
(lp729
g5
(g9
S'<\xbca\xc89}\x02@'
p730
tp731
Rp732
ag5
(g9
S':\x96:\x03V@\xa5?'
p733
tp734
Rp735
assS'SAMPL5_019'
p736
(dp737
g3
(lp738
g5
(g9
S'\xa3}2\x82V\xcfQ@'
p739
tp740
Rp741
ag5
(g9
S'\xb9&\xc5M\xab\x07\xc8?'
p742
tp743
Rp744
asg18
S'Cc1ccc(cc1)Nc2ccnc(n2)Nc3ccc(cc3)C'
p745
sg20
F13.18
sg21
(lp746
F13.24
aF13.18
asg23
S'43423819'
p747
sg25
(lp748
g5
(g9
S'Ck,*\n\x08\x07@'
p749
tp750
Rp751
ag5
(g9
S'\xd7"\x90\x03F\xf6\xa3?'
p752
tp753
Rp754
asg33
(lp755
g5
(g9
S'\xadE|\xca\t\x08\x07@'
p756
tp757
Rp758
ag754
asg38
F5.44
sg39
(lp759
F-2.3
aF-1.51
aF5.44
aF3.76
asg41
(lp760
g5
(g9
S'p#y\x1f\xcdcK@'
p761
tp762
Rp763
ag5
(g9
S']\x86A1#\x98\xbe?'
p764
tp765
Rp766
asg49
(lp767
g5
(g9
S'\x9c.\xec4\xbd\x11\x07@'
p768
tp769
Rp770
ag5
(g9
S'\xd7"\x90\x03F\xf6\xa3?'
p771
tp772
Rp773
asg57
g5
(g9
S'\xa2]\x82\x1e\xa9\xd2l\xbf'
p774
tp775
Rp776
sg61
(lp777
g751
ag754
asg66
g67
(g68
(I0
tp778
g70
tp779
Rp780
(I1
(I2
tp781
g76
I00
S'\x9c.\xec4\xbd\x11\x07@\xd7"\x90\x03F\xf6\xa3?'
p782
tp783
bsg81
(lp784
g5
(g9
S'\xc9p/\xd4\xbc\x11\x07@'
p785
tp786
Rp787
ag754
asg83
(lp788
g5
(g9
S'\x05\x8e\xa4\x8a\x88\n\x07@'
p789
tp790
Rp791
ag5
(g9
S'\xd7"\x90\x03F\xf6\xa3?'
p792
tp793
Rp794
assS'SAMPL5_061'
p795
(dp796
g3
(lp797
g5
(g9
S'V\xb33\x96xgG@'
p798
tp799
Rp800
ag5
(g9
S'$\xd8\xce\xf0!\xe4\xc3?'
p801
tp802
Rp803
asg18
S'Cc1nccc(n1)[C@@]2(CNCCO2)C'
p804
sg20
Nsg21
(lp805
sg23
S'43241882'
p806
sg25
(lp807
g5
(g9
S'\xd4\n4\x07\x83z\xf6?'
p808
tp809
Rp810
ag5
(g9
S"'|\\\xfd\t\xbc\xa2?"
p811
tp812
Rp813
asg33
(lp814
g5
(g9
S'\xd4\n4\x07\x83z\xf6?'
p815
tp816
Rp817
ag813
asg38
F7.72
sg39
(lp818
F7.72
aF2.55
aF2.72
asg41
(lp819
g5
(g9
S'[\xd7\xb4\xfd\x1a\xffA@'
p820
tp821
Rp822
ag5
(g9
S"'\xce\x05\x11\xbc\xdc\xc1?"
p823
tp824
Rp825
asg49
(lp826
g5
(g9
S'n\xc5\x05G\xdeN\xfe?'
p827
tp828
Rp829
ag5
(g9
S"'|\\\xfd\t\xbc\xa2?"
p830
tp831
Rp832
asg57
g5
(g9
S"\x07\x90'=\xe7>\xe0\xbf"
p833
tp834
Rp835
sg61
(lp836
g810
ag813
asg66
g67
(g68
(I0
tp837
g70
tp838
Rp839
(I1
(I2
tp840
g76
I00
S"\xf0\xadT\xfc\xf9P\xfe?'|\\\xfd\t\xbc\xa2?"
p841
tp842
bsg81
(lp843
g5
(g9
S'\xf0\xadT\xfc\xf9P\xfe?'
p844
tp845
Rp846
ag813
asg83
(lp847
g5
(g9
S'\xec\xe5\xc0]\x861\xf6?'
p848
tp849
Rp850
ag5
(g9
S"'|\\\xfd\t\xbc\xa2?"
p851
tp852
Rp853
assS'SAMPL5_015'
p854
(dp855
g3
(lp856
g5
(g9
S'9\xa7\x84\xb1\x98\xa8K@'
p857
tp858
Rp859
ag5
(g9
S'L5z;\x90\xd1\xc2?'
p860
tp861
Rp862
asg18
S'Cc1ccc2c(c1)c(ncn2)NCC(=O)O'
p863
sg20
F4.44
sg21
(lp864
F4.44
aF12.6
asg23
S'1355949'
p865
sg25
(lp866
g5
(g9
S'\xff\xba\xbf\xb7Z7\xeb\xbf'
p867
tp868
Rp869
ag5
(g9
S"\xf8+\xcd\x87\x9d'\xa0?"
p870
tp871
Rp872
asg33
(lp873
g5
(g9
S'v\xfb\x8c`Xf\x0e\xc0'
p874
tp875
Rp876
ag872
asg38
F5.81
sg39
(lp877
F-1.33
aF3.87
aF5.81
asg41
(lp878
g5
(g9
S'w\xcd\x90\xee\xf1\rN@'
p879
tp880
Rp881
ag5
(g9
S'v\xb9\x16l^\xa1\xba?'
p882
tp883
Rp884
asg49
(lp885
g5
(g9
S'1\x0e{\xe7\x9b\xf5\x0c\xc0'
p886
tp887
Rp888
ag5
(g9
S"\xf8+\xcd\x87\x9d'\xa0?"
p889
tp890
Rp891
asg57
g5
(g9
S"6\x17\x19@'X\t\xc0"
p892
tp893
Rp894
sg61
(lp895
g5
(g9
S'R\x88\x89\xf7Qf\x0e\xc0'
p896
tp897
Rp898
ag872
asg66
g67
(g68
(I0
tp899
g70
tp900
Rp901
(I1
(I2
tp902
g76
I00
S"\xcb\xa5\xbf\xd7\x0f\xdd\xea\xbf\xf8+\xcd\x87\x9d'\xa0?"
p903
tp904
bsg81
(lp905
g898
ag872
asg83
(lp906
g5
(g9
S'T\x80\x04\x9b\xb5\x07\x10\xc0'
p907
tp908
Rp909
ag5
(g9
S"\xf8+\xcd\x87\x9d'\xa0?"
p910
tp911
Rp912
assS'SAMPL5_003'
p913
(dp914
g3
(lp915
g5
(g9
S'\xabR^G\xd1\x04J@'
p916
tp917
Rp918
ag5
(g9
S'\x9b<&\xbc\xd0\x11\xc4?'
p919
tp920
Rp921
asg18
S'c1ccc2c(c1)c(=O)oc(n2)c3ccccc3F'
p922
sg20
Nsg21
(lp923
sg23
S'1231787'
p924
sg25
(lp925
g5
(g9
S'\xf4\xc5\xde\xa6\x91\x9c\xff?'
p926
tp927
Rp928
ag5
(g9
S'\xb7\x96\x8d\x9dA\xa5\xa0?'
p929
tp930
Rp931
asg33
(lp932
g5
(g9
S'\xf4\xc5\xde\xa6\x91\x9c\xff?'
p933
tp934
Rp935
ag931
asg38
F2.96
sg39
(lp936
F2.96
aF-1.86
asg41
(lp937
g5
(g9
S'\xf4\xda}\xe1JaD@'
p938
tp939
Rp940
ag5
(g9
S'\xe3\xb7\xce\xf3#i\xb9?'
p941
tp942
Rp943
asg49
(lp944
g5
(g9
S'\xfc\x05\x8f/\xa2\x9c\xff?'
p945
tp946
Rp947
ag5
(g9
S'\xb7\x96\x8d\x9dA\xa5\xa0?'
p948
tp949
Rp950
asg57
g5
(g9
S'\x00\x00\x00\x00\x00\x00\x00\x00'
p951
tp952
Rp953
sg61
(lp954
g928
ag931
asg66
g67
(g68
(I0
tp955
g70
tp956
Rp957
(I1
(I2
tp958
g76
I00
S'\xfc\x05\x8f/\xa2\x9c\xff?\xb7\x96\x8d\x9dA\xa5\xa0?'
p959
tp960
bsg81
(lp961
g5
(g9
S'\xfc\x05\x8f/\xa2\x9c\xff?'
p962
tp963
Rp964
ag931
asg83
(lp965
g5
(g9
S'\xfc\x05\x8f/\xa2\x9c\xff?'
p966
tp967
Rp968
ag5
(g9
S'\xb7\x96\x8d\x9dA\xa5\xa0?'
p969
tp970
Rp971
assS'SAMPL5_085'
p972
(dp973
g3
(lp974
g5
(g9
S'\xb3,\xa9={\xc1L@'
p975
tp976
Rp977
ag5
(g9
S'F\xa7\xda\xda\x01I\xc5?'
p978
tp979
Rp980
asg18
S'c1ccc(cc1)C2(C(=O)NC(=O)N2)c3ccccc3'
p981
sg20
F7.8
sg21
(lp982
F7.8
aF9.9
asg23
g397
sg25
(lp983
g5
(g9
S'\rb\xb3nkC\x00\xc0'
p984
tp985
Rp986
ag5
(g9
S'\xc6\xe6\xb7\x1a\xa0\xee\xa1?'
p987
tp988
Rp989
asg33
(lp990
g5
(g9
S'\xc9\x9a\xb8\xff{m\x01\xc0'
p991
tp992
Rp993
ag989
asg38
F2.33
sg39
(lp994
F2.33
asg41
(lp995
g5
(g9
S'\xcf\xa3\x93\xddcGQ@'
p996
tp997
Rp998
ag5
(g9
S'\xe0\x1bF\x95Sh\xbc?'
p999
tp1000
Rp1001
asg49
(lp1002
g5
(g9
S'\xdem.Mk\xb8\x00\xc0'
p1003
tp1004
Rp1005
ag5
(g9
S'\xc6\xe6\xb7\x1a\xa0\xee\xa1?'
p1006
tp1007
Rp1008
asg57
g5
(g9
S'3\xd5\x8c\xb6\xcf\xc2\xc1\xbf'
p1009
tp1010
Rp1011
sg61
(lp1012
g5
(g9
S'=j\xdd\x9czm\x01\xc0'
p1013
tp1014
Rp1015
ag989
asg66
g67
(g68
(I0
tp1016
g70
tp1017
Rp1018
(I1
(I2
tp1019
g76
I00
S'\xa9\x05\x93~iC\x00\xc0\xc6\xe6\xb7\x1a\xa0\xee\xa1?'
p1020
tp1021
bsg81
(lp1022
g1015
ag989
asg83
(lp1023
g5
(g9
S'\xfc\xd2\xfby\x96_\x01\xc0'
p1024
tp1025
Rp1026
ag5
(g9
S'\xc6\xe6\xb7\x1a\xa0\xee\xa1?'
p1027
tp1028
Rp1029
assS'SAMPL5_084'
p1030
(dp1031
g3
(lp1032
g5
(g9
S'\xaf=i\x8c{YR@'
p1033
tp1034
Rp1035
ag5
(g9
S'\x80R\x16\xd5x\xdb\xce?'
p1036
tp1037
Rp1038
asg18
S'c1cc(ccc1C(=O)CCCN2CCC(CC2)(c3ccc(cc3)Cl)O)F'
p1039
sg20
F15.03
sg21
(lp1040
F15.03
asg23
g397
sg25
(lp1041
g5
(g9
S'@\rN\xe03Q\xfe?'
p1042
tp1043
Rp1044
ag5
(g9
S'"\x92\xa6\x07\xae5\xb4?'
p1045
tp1046
Rp1047
asg33
(lp1048
g5
(g9
S'`\x18.\xe03Q\xfe?'
p1049
tp1050
Rp1051
ag1047
asg38
F8.72
sg39
(lp1052
F8.72
aF-0.08
asg41
(lp1053
g5
(g9
S'\xd2$r\xb4LwK@'
p1054
tp1055
Rp1056
ag5
(g9
S'|RH|x]\xd8?'
p1057
tp1058
Rp1059
asg49
(lp1060
g5
(g9
S'\xb2k\x99\xea\xc9B\xf3?'
p1061
tp1062
Rp1063
ag5
(g9
S'"\x92\xa6\x07\xae5\xb4?'
p1064
tp1065
Rp1066
asg57
g5
(g9
S'\xfe*Y1\xbc\xcb\xf6\xbf'
p1067
tp1068
Rp1069
sg61
(lp1070
g1044
ag1047
asg66
g67
(g68
(I0
tp1071
g70
tp1072
Rp1073
(I1
(I2
tp1074
g76
I00
S'\x99\x0f@\x82\x8b\xe1\t@"\x92\xa6\x07\xae5\xb4?'
p1075
tp1076
bsg81
(lp1077
g5
(g9
S'\xd7?\xe2\x80\x8b\xe1\t@'
p1078
tp1079
Rp1080
ag1047
asg83
(lp1081
g5
(g9
S'4\xf4&\xd3Z\xf7\xfc?'
p1082
tp1083
Rp1084
ag5
(g9
S'"\x92\xa6\x07\xae5\xb4?'
p1085
tp1086
Rp1087
assS'SAMPL5_086'
p1088
(dp1089
g3
(lp1090
g5
(g9
S'\x8c\xd6\xe5\xa6\x04\x01S@'
p1091
tp1092
Rp1093
ag5
(g9
S'\xc6t\xbe\xb5\xdc\xf5\xcd?'
p1094
tp1095
Rp1096
asg18
S'CCCCOc1cc(c2ccccc2n1)C(=O)NCCN(CC)CC'
p1097
sg20
F11.73
sg21
(lp1098
F11.73
asg23
g397
sg25
(lp1099
g5
(g9
S'\xeb]c\xdf\xb9\xe3\xf8?'
p1100
tp1101
Rp1102
ag5
(g9
S'\x15\xc6sZD\x7f\xac?'
p1103
tp1104
Rp1105
asg33
(lp1106
g5
(g9
S'\x19J\xad,\xb9\xe3\xf8?'
p1107
tp1108
Rp1109
ag1105
asg38
F8.87
sg39
(lp1110
F8.87
aF1.48
aF-1.45
asg41
(lp1111
g5
(g9
S'1\xda\x91\xf5\xe2TM@'
p1112
tp1113
Rp1114
ag5
(g9
S'\x1e\xef\xbb2\x16\x7f\xcb?'
p1115
tp1116
Rp1117
asg49
(lp1118
g5
(g9
S'\xc2cY3\xe0\x08\x01@'
p1119
tp1120
Rp1121
ag5
(g9
S'\x15\xc6sZD\x7f\xac?'
p1122
tp1123
Rp1124
asg57
g5
(g9
S'\xfd:>\x80sU\xf9\xbf'
p1125
tp1126
Rp1127
sg61
(lp1128
g1102
ag1105
asg66
g67
(g68
(I0
tp1129
g70
tp1130
Rp1131
(I1
(I2
tp1132
g76
I00
S'\x8b\xc6U\xc9\x0fR\x08@\x15\xc6sZD\x7f\xac?'
p1133
tp1134
bsg81
(lp1135
g5
(g9
S'\x80E\xf8"\x05R\x08@'
p1136
tp1137
Rp1138
ag1105
asg83
(lp1139
g5
(g9
S'\x19Rm\x12\xacN\xf7?'
p1140
tp1141
Rp1142
ag5
(g9
S'\x15\xc6sZD\x7f\xac?'
p1143
tp1144
Rp1145
assS'SAMPL5_081'
p1146
(dp1147
g3
(lp1148
g5
(g9
S'cb\xd4\x18-RM@'
p1149
tp1150
Rp1151
ag5
(g9
S'\xfe#\xae\xc1Y\xb3\xc7?'
p1152
tp1153
Rp1154
asg18
S'CC(C)NC[C@H](COc1ccc(cc1)CC(=O)N)O'
p1155
sg20
F12.67
sg21
(lp1156
F13.32
aF12.67
aF12.67
asg23
g397
sg25
(lp1157
g5
(g9
S'\x99B\xf0\x05\x7f\xd6\x0f\xc0'
p1158
tp1159
Rp1160
ag5
(g9
S'A\xba\x87\x9a^\x0c\xa9?'
p1161
tp1162
Rp1163
asg33
(lp1164
g5
(g9
S'\x1cvL\n\x7f\xd6\x0f\xc0'
p1165
tp1166
Rp1167
ag1163
asg38
F9.25
sg39
(lp1168
F9.25
aF-1.29
aF-1.04
asg41
(lp1169
g5
(g9
S'\xb2O\x98\x8e\xe1\xb0Q@'
p1170
tp1171
Rp1172
ag5
(g9
S'\x18#\x01o\xaf\xc1\xca?'
p1173
tp1174
Rp1175
asg49
(lp1176
g5
(g9
S'd)\xf1\xd6\xd0\x88\x07\xc0'
p1177
tp1178
Rp1179
ag5
(g9
S'A\xba\x87\x9a^\x0c\xa9?'
p1180
tp1181
Rp1182
asg57
g5
(g9
S'F\xb3\x9e\x1aX\xb1\xff\xbf'
p1183
tp1184
Rp1185
sg61
(lp1186
g1160
ag1163
asg66
g67
(g68
(I0
tp1187
g70
tp1188
Rp1189
(I1
(I2
tp1190
g76
I00
S'\x98*\xbfq8\xfd\x00\xc0A\xba\x87\x9a^\x0c\xa9?'
p1191
tp1192
bsg81
(lp1193
g5
(g9
S'~&\xc8\xaa9\xfd\x00\xc0'
p1194
tp1195
Rp1196
ag1163
asg83
(lp1197
g5
(g9
S'\x1eB\x87?\xf2j\x10\xc0'
p1198
tp1199
Rp1200
ag5
(g9
S'A\xba\x87\x9a^\x0c\xa9?'
p1201
tp1202
Rp1203
assS'SAMPL5_080'
p1204
(dp1205
g3
(lp1206
g5
(g9
S'T\xc3\x0e\x88\xae J@'
p1207
tp1208
Rp1209
ag5
(g9
S'\x10q\x17\xbe\xd3\xfd\xc0?'
p1210
tp1211
Rp1212
asg18
S'Cn1cnc2c1c(=O)n(c(=O)n2C)C'
p1213
sg20
Nsg21
(lp1214
sg23
g397
sg25
(lp1215
g5
(g9
S'z\x7f\xb0\x84\xa2\r\x0e\xc0'
p1216
tp1217
Rp1218
ag5
(g9
S'\xc1\x9d@\x1d2\x1f\x9e?'
p1219
tp1220
Rp1221
asg33
(lp1222
g5
(g9
S'z\x7f\xb0\x84\xa2\r\x0e\xc0'
p1223
tp1224
Rp1225
ag1221
asg38
F1.37
sg39
(lp1226
F-0.58
aF1.37
aF-1.89
aF-2.49
asg41
(lp1227
g5
(g9
S'\xaae\xf9\xba\xb1lR@'
p1228
tp1229
Rp1230
ag5
(g9
S'\x84v\tf\x11R\xba?'
p1231
tp1232
Rp1233
asg49
(lp1234
g5
(g9
S'^AJN\xa2\r\x0e\xc0'
p1235
tp1236
Rp1237
ag5
(g9
S'\xc1\x9d@\x1d2\x1f\x9e?'
p1238
tp1239
Rp1240
asg57
g5
(g9
S'\x00\x00\x00\x00\x00\x00\x00\x00'
p1241
tp1242
Rp1243
sg61
(lp1244
g1218
ag1221
asg66
g67
(g68
(I0
tp1245
g70
tp1246
Rp1247
(I1
(I2
tp1248
g76
I00
S'^AJN\xa2\r\x0e\xc0\xc1\x9d@\x1d2\x1f\x9e?'
p1249
tp1250
bsg81
(lp1251
g5
(g9
S'^AJN\xa2\r\x0e\xc0'
p1252
tp1253
Rp1254
ag1221
asg83
(lp1255
g5
(g9
S'^AJN\xa2\r\x0e\xc0'
p1256
tp1257
Rp1258
ag5
(g9
S'\xc1\x9d@\x1d2\x1f\x9e?'
p1259
tp1260
Rp1261
assS'SAMPL5_083'
p1262
(dp1263
g3
(lp1264
g5
(g9
S'\xdfZ\xa7B\xc4\xa2b@'
p1265
tp1266
Rp1267
ag5
(g9
S't\xa1\xc7\xe2\xc2L\xdc?'
p1268
tp1269
Rp1270
asg18
S'C[C@H]1/C=C/C=C(\\C(=O)NC\\2=C(C3=C(C(=C4C(=C3C(=O)/C2=C/NN5CCN(CC5)C)C(=O)[C@](O4)(O/C=C/[C@@H]([C@H]([C@H]([C@@H]([C@@H]([C@@H]([C@H]1O)C)O)C)OC(=O)C)C)OC)C)C)O)O)/C'
p1271
sg20
F7.41
sg21
(lp1272
F14.92
aF15.38
aF8.92
aF7.41
aF8.11
asg23
g397
sg25
(lp1273
g5
(g9
S'\x8ala/hV\xf1?'
p1274
tp1275
Rp1276
ag5
(g9
S'R\x19\xfb\xec\x18h\xb7?'
p1277
tp1278
Rp1279
asg33
(lp1280
g5
(g9
S'\x0bYcO<\x06\xeb?'
p1281
tp1282
Rp1283
ag1279
asg38
F6.92
sg39
(lp1284
F-2.66
aF0.65
aF6.92
aF-0.08
aF0.28
aF-1.3
aF-0.76
asg41
(lp1285
g5
(g9
S'\x1ae5\xca&\xc6a@'
p1286
tp1287
Rp1288
ag5
(g9
S'7\xa2\xb0\xe4\xda\xbd\xd1?'
p1289
tp1290
Rp1291
asg49
(lp1292
g5
(g9
S'j]x,7S\xf3?'
p1293
tp1294
Rp1295
ag5
(g9
S'R\x19\xfb\xec\x18h\xb7?'
p1296
tp1297
Rp1298
asg57
g5
(g9
S'\x9d\xdf&S\x8b3\xdf\xbf'
p1299
tp1300
Rp1301
sg61
(lp1302
g5
(g9
S'?\xab$\x17\x1e-\xed?'
p1303
tp1304
Rp1305
ag1279
asg66
g67
(g68
(I0
tp1306
g70
tp1307
Rp1308
(I1
(I2
tp1309
g76
I00
S'j]x,7S\xf3?R\x19\xfb\xec\x18h\xb7?'
p1310
tp1311
bsg81
(lp1312
g1305
ag1279
asg83
(lp1313
g5
(g9
S'\x06K]\xaf\xa8\x0c\xe7?'
p1314
tp1315
Rp1316
ag5
(g9
S'R\x19\xfb\xec\x18h\xb7?'
p1317
tp1318
Rp1319
assS'SAMPL5_082'
p1320
(dp1321
g3
(lp1322
g5
(g9
S'oJ\xfeNc\xeeQ@'
p1323
tp1324
Rp1325
ag5
(g9
S'.T\x1c\xae\xd7\xf7\xcf?'
p1326
tp1327
Rp1328
asg18
S'CC/C(=C(\\c1ccccc1)/c2ccc(cc2)OCCN(C)C)/c3ccccc3'
p1329
sg20
Nsg21
(lp1330
sg23
g397
sg25
(lp1331
g5
(g9
S'~S\x93r8.\x16@'
p1332
tp1333
Rp1334
ag5
(g9
S'\xf9;\x93\xb2\x80\xac\xaa?'
p1335
tp1336
Rp1337
asg33
(lp1338
g5
(g9
S'~S\x93r8.\x16@'
p1339
tp1340
Rp1341
ag1337
asg38
F8.37
sg39
(lp1342
F8.37
asg41
(lp1343
g5
(g9
S'\xa2\xa6\xbd@[$A@'
p1344
tp1345
Rp1346
ag5
(g9
S'\xff\xa83\xb26\xa9\xc4?'
p1347
tp1348
Rp1349
asg49
(lp1350
g5
(g9
S'\xcf\xd5\x11\xc6\xc1\xf9\x18@'
p1351
tp1352
Rp1353
ag5
(g9
S'\xf9;\x93\xb2\x80\xac\xaa?'
p1354
tp1355
Rp1356
asg57
g5
(g9
S'\xde%d"}(\xf1\xbf'
p1357
tp1358
Rp1359
sg61
(lp1360
g1334
ag1337
asg66
g67
(g68
(I0
tp1361
g70
tp1362
Rp1363
(I1
(I2
tp1364
g76
I00
S'\xd2\xd8\x14\xc9\xc4<\x1a@\xf9;\x93\xb2\x80\xac\xaa?'
p1365
tp1366
bsg81
(lp1367
g5
(g9
S'\xd2\xd8\x14\xc9\xc4<\x1a@'
p1368
tp1369
Rp1370
ag1337
asg83
(lp1371
g5
(g9
S'Z\xcf{\x80\xa5\xf2\x15@'
p1372
tp1373
Rp1374
ag5
(g9
S'\xf9;\x93\xb2\x80\xac\xaa?'
p1375
tp1376
Rp1377
assS'SAMPL5_027'
p1378
(dp1379
g3
(lp1380
g5
(g9
S'\x7f\xac\x1b\xc6q\xb2J@'
p1381
tp1382
Rp1383
ag5
(g9
S'[8\xd3\xd5\xf7\xf4\xc1?'
p1384
tp1385
Rp1386
asg18
S'c1ccc(cc1)CNc2ncnc(n2)N'
p1387
sg20
F12.98
sg21
(lp1388
F12.98
aF13.39
aF13.39
asg23
S'2483781'
p1389
sg25
(lp1390
g5
(g9
S'>\x1c\x9a\xb6\xd1\xb6\x01\xc0'
p1391
tp1392
Rp1393
ag5
(g9
S'\xec\x15}\xc2CY\x9f?'
p1394
tp1395
Rp1396
asg33
(lp1397
g5
(g9
S'#m\xd0O\xd2\xb6\x01\xc0'
p1398
tp1399
Rp1400
ag1396
asg38
F4.24
sg39
(lp1401
F4.24
aF4.05
aF1.14
aF-2.02
aF-0.84
asg41
(lp1402
g5
(g9
S'\x8b/\x8f\xfe\x02\x82P@'
p1403
tp1404
Rp1405
ag5
(g9
S'&\x90\xf6\x02\xfb\xab\xba?'
p1406
tp1407
Rp1408
asg49
(lp1409
g5
(g9
S'\x07~\xb4=4\xb6\x01\xc0'
p1410
tp1411
Rp1412
ag5
(g9
S'\xec\x15}\xc2CY\x9f?'
p1413
tp1414
Rp1415
asg57
g5
(g9
S'\x00\x00\x00\x00\x00\x00\x00\x00'
p1416
tp1417
Rp1418
sg61
(lp1419
g1393
ag1396
asg66
g67
(g68
(I0
tp1420
g70
tp1421
Rp1422
(I1
(I2
tp1423
g76
I00
S'\x07~\xb4=4\xb6\x01\xc0\xec\x15}\xc2CY\x9f?'
p1424
tp1425
bsg81
(lp1426
g5
(g9
S'\x87\xf1\x05\xd74\xb6\x01\xc0'
p1427
tp1428
Rp1429
ag1396
asg83
(lp1430
g5
(g9
S'\x07~\xb4=4\xb6\x01\xc0'
p1431
tp1432
Rp1433
ag5
(g9
S'\xec\x15}\xc2CY\x9f?'
p1434
tp1435
Rp1436
assS'SAMPL5_026'
p1437
(dp1438
g3
(lp1439
g5
(g9
S'\xc3\xd8vx0TH@'
p1440
tp1441
Rp1442
ag5
(g9
S'\x05|\xe8*Cw\xc5?'
p1443
tp1444
Rp1445
asg18
S'Cc1cc(c2c(c1)c(c([nH]2)C)CC(=O)O)C'
p1446
sg20
F4.23
sg21
(lp1447
F4.23
aF16.57
asg23
S'703690'
p1448
sg25
(lp1449
g5
(g9
S'u\xccy\x07\xd8m\xfb\xbf'
p1450
tp1451
Rp1452
ag5
(g9
S'\x0f\x18$\xa24\x9e\xa4?'
p1453
tp1454
Rp1455
asg33
(lp1456
g5
(g9
S'\x04k\x86n\xd7\x89\x13\xc0'
p1457
tp1458
Rp1459
ag1455
asg38
F-2.04
sg39
(lp1460
F-2.04
asg41
(lp1461
g5
(g9
S'#9MG\xb68M@'
p1462
tp1463
Rp1464
ag5
(g9
S'\x8fp7|\n\x1f\xc4?'
p1465
tp1466
Rp1467
asg49
(lp1468
g5
(g9
S'\x0e\x19";\xf0\x07\x06\xc0'
p1469
tp1470
Rp1471
ag5
(g9
S'\x0f\x18$\xa24\x9e\xa4?'
p1472
tp1473
Rp1474
asg57
g5
(g9
S'\x11^\xa8\xf2(\x19\x0b\xc0'
p1475
tp1476
Rp1477
sg61
(lp1478
g5
(g9
S'\x8cj\x86n\xd7\x89\x13\xc0'
p1479
tp1480
Rp1481
ag1455
asg66
g67
(g68
(I0
tp1482
g70
tp1483
Rp1484
(I1
(I2
tp1485
g76
I00
S'y\xf6n\x07\xd8m\xfb\xbf\x0f\x18$\xa24\x9e\xa4?'
p1486
tp1487
bsg81
(lp1488
g1481
ag1455
asg83
(lp1489
g5
(g9
S'\xa7\xec/{\nh\x14\xc0'
p1490
tp1491
Rp1492
ag5
(g9
S'\x0f\x18$\xa24\x9e\xa4?'
p1493
tp1494
Rp1495
assS'SAMPL5_024'
p1496
(dp1497
g3
(lp1498
g5
(g9
S'\xcd\x1cQ\xd2\x10\xfeS@'
p1499
tp1500
Rp1501
ag5
(g9
S'm\xad\x14\xa6\xc4Q\xca?'
p1502
tp1503
Rp1504
asg18
S'Cc1ccc2c(c1)cc3cc(sc3n2)C(=O)Nc4ccc(c(c4)C)C'
p1505
sg20
F11.15
sg21
(lp1506
F11.15
asg23
S'16329490'
p1507
sg25
(lp1508
g5
(g9
S'\xb2\xf5/T)\xd7\xde?'
p1509
tp1510
Rp1511
ag5
(g9
S'\xa9\xd3\x88$\xac)\xa6?'
p1512
tp1513
Rp1514
asg33
(lp1515
g5
(g9
S'3\x90\xef\x82\xee\xd5\xde?'
p1516
tp1517
Rp1518
ag1514
asg38
F5.86
sg39
(lp1519
F5.86
aF-0.3
asg41
(lp1520
g5
(g9
S'\x97\xd4]i\x84IS@'
p1521
tp1522
Rp1523
ag5
(g9
S'\xcd\xde\xfc\xcf:\x89\xc1?'
p1524
tp1525
Rp1526
asg49
(lp1527
g5
(g9
S'\x10\x85\x00|x\xa1\xdf?'
p1528
tp1529
Rp1530
ag5
(g9
S'\xa9\xd3\x88$\xac)\xa6?'
p1531
tp1532
Rp1533
asg57
g5
(g9
S'\xdd\xf8\xcc{B\xf7\x83\xbf'
p1534
tp1535
Rp1536
sg61
(lp1537
g1511
ag1514
asg66
g67
(g68
(I0
tp1538
g70
tp1539
Rp1540
(I1
(I2
tp1541
g76
I00
S'\x10\x85\x00|x\xa1\xdf?\xa9\xd3\x88$\xac)\xa6?'
p1542
tp1543
bsg81
(lp1544
g5
(g9
S'\x88R\x9f\x964\xa0\xdf?'
p1545
tp1546
Rp1547
ag1514
asg83
(lp1548
g5
(g9
S'I\x1d"h\xbe\x01\xdf?'
p1549
tp1550
Rp1551
ag5
(g9
S'\xa9\xd3\x88$\xac)\xa6?'
p1552
tp1553
Rp1554
assS'SAMPL5_021'
p1555
(dp1556
g3
(lp1557
g5
(g9
S"\x7f\x10Yfb'M@"
p1558
tp1559
Rp1560
ag5
(g9
S'C\x9eG\xa6\xf2\xed\xc4?'
p1561
tp1562
Rp1563
asg18
S'Cc1nn2cc(nc2s1)c3cccc(c3)OC'
p1564
sg20
Nsg21
(lp1565
sg23
S'31467689'
p1566
sg25
(lp1567
g5
(g9
S'wo\x8a\xaf\xefi\n@'
p1568
tp1569
Rp1570
ag5
(g9
S'>>I\xe8\x9dl\xa1?'
p1571
tp1572
Rp1573
asg33
(lp1574
g5
(g9
S'wo\x8a\xaf\xefi\n@'
p1575
tp1576
Rp1577
ag1573
asg38
F4.92
sg39
(lp1578
F-1.08
aF4.92
asg41
(lp1579
g5
(g9
S'\x10C,\x1d\x03\xbaC@'
p1580
tp1581
Rp1582
ag5
(g9
S'{\xac\xbft\xff\xd8\xba?'
p1583
tp1584
Rp1585
asg49
(lp1586
g5
(g9
S'\x01y\x11i\xe0l\n@'
p1587
tp1588
Rp1589
ag5
(g9
S'>>I\xe8\x9dl\xa1?'
p1590
tp1591
Rp1592
asg57
g5
(g9
S'p\xe5\xb7\x8b\x8c9O\xbf'
p1593
tp1594
Rp1595
sg61
(lp1596
g1570
ag1573
asg66
g67
(g68
(I0
tp1597
g70
tp1598
Rp1599
(I1
(I2
tp1600
g76
I00
S'\x01y\x11i\xe0l\n@>>I\xe8\x9dl\xa1?'
p1601
tp1602
bsg81
(lp1603
g5
(g9
S'\x01y\x11i\xe0l\n@'
p1604
tp1605
Rp1606
ag1573
asg83
(lp1607
g5
(g9
S'\x83\xbdH\xd0\xecj\n@'
p1608
tp1609
Rp1610
ag5
(g9
S'>>I\xe8\x9dl\xa1?'
p1611
tp1612
Rp1613
assS'SAMPL5_020'
p1614
(dp1615
g3
(lp1616
g5
(g9
S'\x9d\xd6\xc3H\xcf\xa4M@'
p1617
tp1618
Rp1619
ag5
(g9
S'?\x8d\xa5\xd9\x03\x94\xc7?'
p1620
tp1621
Rp1622
asg18
S'CCCC(=O)Nc1nc2ccc(cc2s1)C(C)C'
p1623
sg20
F9.74
sg21
(lp1624
F9.74
asg23
S'5522978'
p1625
sg25
(lp1626
g5
(g9
S'\xb5\x96&\xa9\xcc\xcd\x0e\xc0'
p1627
tp1628
Rp1629
ag5
(g9
S'H\x80\xc9@kh\xa4?'
p1630
tp1631
Rp1632
asg33
(lp1633
g5
(g9
S'\x93$&\n\xdb\xd1\x0e\xc0'
p1634
tp1635
Rp1636
ag1632
asg38
F2.65
sg39
(lp1637
F2.65
aF-0.36
asg41
(lp1638
g5
(g9
S'sG\xc4o\x08QT@'
p1639
tp1640
Rp1641
ag5
(g9
S'\x11\x94\r\x14\xc4\x17\xc1?'
p1642
tp1643
Rp1644
asg49
(lp1645
g5
(g9
S'\xe5\xbd\x99\x9c\xc8\xcd\x0e\xc0'
p1646
tp1647
Rp1648
ag5
(g9
S'H\x80\xc9@kh\xa4?'
p1649
tp1650
Rp1651
asg57
g5
(g9
S'\xd6\xd5L\xb1\xc5kJ\xbf'
p1652
tp1653
Rp1654
sg61
(lp1655
g5
(g9
S'c\xaeP\x02\xd7\xd1\x0e\xc0'
p1656
tp1657
Rp1658
ag1632
asg66
g67
(g68
(I0
tp1659
g70
tp1660
Rp1661
(I1
(I2
tp1662
g76
I00
S'\xe5\xbd\x99\x9c\xc8\xcd\x0e\xc0H\x80\xc9@kh\xa4?'
p1663
tp1664
bsg81
(lp1665
g1658
ag1632
asg83
(lp1666
g5
(g9
S'\xb2\xd2\xf4Xo\xcf\x0e\xc0'
p1667
tp1668
Rp1669
ag5
(g9
S'H\x80\xc9@kh\xa4?'
p1670
tp1671
Rp1672
assS'SAMPL5_049'
p1673
(dp1674
g3
(lp1675
g5
(g9
S'ml\xb9\xa5\xd0\x8dJ@'
p1676
tp1677
Rp1678
ag5
(g9
S'%\xf8V?iV\xc4?'
p1679
tp1680
Rp1681
asg18
S'c1cc(c(c(c1)Cl)Cl)NC(=O)c2ccno2'
p1682
sg20
F10.75
sg21
(lp1683
F10.75
asg23
S'5627856'
p1684
sg25
(lp1685
g5
(g9
S'Vd\x7f\xc8H\x9f\x01@'
p1686
tp1687
Rp1688
ag5
(g9
S'zv\x1a\xdb\xd6\x14\xa1?'
p1689
tp1690
Rp1691
asg33
(lp1692
g5
(g9
S'\xc7\xde\x1d\x19\xe3\x9e\x01@'
p1693
tp1694
Rp1695
ag1691
asg38
F-0.31
sg39
(lp1696
F-0.31
asg41
(lp1697
g5
(g9
S'\xfd\x96\x0c\xa6iDD@'
p1698
tp1699
Rp1700
ag5
(g9
S'\x17\x15\xd5ub\xdf\xba?'
p1701
tp1702
Rp1703
asg49
(lp1704
g5
(g9
S'\xbf\xa6\xbb\xaf\xfb\x9e\x01@'
p1705
tp1706
Rp1707
ag5
(g9
S'zv\x1a\xdb\xd6\x14\xa1?'
p1708
tp1709
Rp1710
asg57
g5
(g9
S'\x00\x00\x00\x00\x00\x00\x00\x00'
p1711
tp1712
Rp1713
sg61
(lp1714
g5
(g9
S'n\xb3@\x1a\xe3\x9e\x01@'
p1715
tp1716
Rp1717
ag1691
asg66
g67
(g68
(I0
tp1718
g70
tp1719
Rp1720
(I1
(I2
tp1721
g76
I00
S'?Z\xa2\xc9H\x9f\x01@zv\x1a\xdb\xd6\x14\xa1?'
p1722
tp1723
bsg81
(lp1724
g1717
ag1691
asg83
(lp1725
g5
(g9
S'?Z\xa2\xc9H\x9f\x01@'
p1726
tp1727
Rp1728
ag5
(g9
S'zv\x1a\xdb\xd6\x14\xa1?'
p1729
tp1730
Rp1731
assS'SAMPL5_004'
p1732
(dp1733
g3
(lp1734
g5
(g9
S'@\x87Z7\xa8wP@'
p1735
tp1736
Rp1737
ag5
(g9
S'\xff\x8e\xca\xf3p\x94\xc7?'
p1738
tp1739
Rp1740
asg18
S'CCOc1ccc(cc1)Nc2cc(c3ccccc3n2)C'
p1741
sg20
F13.92
sg21
(lp1742
F13.92
asg23
S'1221528'
p1743
sg25
(lp1744
g5
(g9
S'r\xfc\xee<\x8d\xd1\x11@'
p1745
tp1746
Rp1747
ag5
(g9
S'\xc3\x91KSp\x99\xa3?'
p1748
tp1749
Rp1750
asg33
(lp1751
g5
(g9
S'~\xd5\xfb4\x8d\xd1\x11@'
p1752
tp1753
Rp1754
ag1750
asg38
F6.43
sg39
(lp1755
F-0.09
aF6.43
asg41
(lp1756
g5
(g9
S'\xeaA0EX\x18D@'
p1757
tp1758
Rp1759
ag5
(g9
S'+\xea\xe1V\xc3\x14\xbe?'
p1760
tp1761
Rp1762
asg49
(lp1763
g5
(g9
S'C\xcb\x86v\xc9\xfc\x11@'
p1764
tp1765
Rp1766
ag5
(g9
S'\xc3\x91KSp\x99\xa3?'
p1767
tp1768
Rp1769
asg57
g5
(g9
S'(C\xe9\xbb\xc0p\xa3\xbf'
p1770
tp1771
Rp1772
sg61
(lp1773
g1747
ag1750
asg66
g67
(g68
(I0
tp1774
g70
tp1775
Rp1776
(I1
(I2
tp1777
g76
I00
S'\xe5\x06\\\xe5\xd1\xfe\x11@\xc3\x91KSp\x99\xa3?'
p1778
tp1779
bsg81
(lp1780
g5
(g9
S'\xe9\xcd\x8e\xdc\xd1\xfe\x11@'
p1781
tp1782
Rp1783
ag1750
asg83
(lp1784
g5
(g9
S'_4\xe4c\xf0\xd7\x11@'
p1785
tp1786
Rp1787
ag5
(g9
S'\xc3\x91KSp\x99\xa3?'
p1788
tp1789
Rp1790
assS'SAMPL5_007'
p1791
(dp1792
g3
(lp1793
g5
(g9
S'\x030\x82\x7fy\xb6P@'
p1794
tp1795
Rp1796
ag5
(g9
S'\xa3}\x99\x16>\x0c\xc7?'
p1797
tp1798
Rp1799
asg18
S'c1ccc(cc1)CCNc2c3cc(ccc3ncn2)Br'
p1800
sg20
F13.97
sg21
(lp1801
F13.97
asg23
S'1373587'
p1802
sg25
(lp1803
g5
(g9
S'\xcb\n\x89j\xca\x90\x12@'
p1804
tp1805
Rp1806
ag5
(g9
S'\x05\x0f\xf3;\x12R\xa3?'
p1807
tp1808
Rp1809
asg33
(lp1810
g5
(g9
S'B\xd2\xb3b\xca\x90\x12@'
p1811
tp1812
Rp1813
ag1809
asg38
F4.57
sg39
(lp1814
F-0.04
aF4.57
aF3.47
asg41
(lp1815
g5
(g9
S'{\x95\xbcN\\-D@'
p1816
tp1817
Rp1818
ag5
(g9
S'\xdf\x18\x91V\xccB\xbe?'
p1819
tp1820
Rp1821
asg49
(lp1822
g5
(g9
S'\x9f5P\xafr\x91\x12@'
p1823
tp1824
Rp1825
ag5
(g9
S'\x05\x0f\xf3;\x12R\xa3?'
p1826
tp1827
Rp1828
asg57
g5
(g9
S'\xa2]\x82\x1e\xa9\xd2<\xbf'
p1829
tp1830
Rp1831
sg61
(lp1832
g1806
ag1809
asg66
g67
(g68
(I0
tp1833
g70
tp1834
Rp1835
(I1
(I2
tp1836
g76
I00
S'\x9f5P\xafr\x91\x12@\x05\x0f\xf3;\x12R\xa3?'
p1837
tp1838
bsg81
(lp1839
g5
(g9
S'\xce\x05x\xa7r\x91\x12@'
p1840
tp1841
Rp1842
ag1809
asg83
(lp1843
g5
(g9
S'\x96\xbb\xabd\xff\x90\x12@'
p1844
tp1845
Rp1846
ag5
(g9
S'\x05\x0f\xf3;\x12R\xa3?'
p1847
tp1848
Rp1849
assS'SAMPL5_060'
p1850
(dp1851
g3
(lp1852
g5
(g9
S'\x91\xaa\x95v\x90\x88J@'
p1853
tp1854
Rp1855
ag5
(g9
S'\x8d\x83\n\x7f\xecY\xc2?'
p1856
tp1857
Rp1858
asg18
S'c1ccc2c(c1)c3cc(ncc3[nH]2)C(=O)O'
p1859
sg20
F3.75
sg21
(lp1860
F3.75
aF15.88
asg23
S'42618372'
p1861
sg25
(lp1862
g5
(g9
S'\xf3\xac\xfb;\xe8\xb2\r\xc0'
p1863
tp1864
Rp1865
ag5
(g9
S'_\xfc[\xea\xd5\xa8\x9f?'
p1866
tp1867
Rp1868
asg33
(lp1869
g5
(g9
S'\x12\xb0\xe9QVd\x1d\xc0'
p1870
tp1871
Rp1872
ag1868
asg38
F5.93
sg39
(lp1873
F5.93
asg41
(lp1874
g5
(g9
S'#tOR*\x8bR@'
p1875
tp1876
Rp1877
ag5
(g9
S'\xdd21\x17\xfeW\xba?'
p1878
tp1879
Rp1880
asg49
(lp1881
g5
(g9
S'`Jx\xca@\x9c\x12\xc0'
p1882
tp1883
Rp1884
ag5
(g9
S'_\xfc[\xea\xd5\xa8\x9f?'
p1885
tp1886
Rp1887
asg57
g5
(g9
S'\x8d\\\xa7\xfb\x16\xc7\x11\xc0'
p1888
tp1889
Rp1890
sg61
(lp1891
g5
(g9
S'G+\xe0tUd\x1d\xc0'
p1892
tp1893
Rp1894
ag1868
asg66
g67
(g68
(I0
tp1895
g70
tp1896
Rp1897
(I1
(I2
tp1898
g76
I00
S'\x1e\x8b\x80\xbeD\x95\r\xc0_\xfc[\xea\xd5\xa8\x9f?'
p1899
tp1900
bsg81
(lp1901
g1894
ag1868
asg83
(lp1902
g5
(g9
S'\x0e\xd1s\xad\xdcH \xc0'
p1903
tp1904
Rp1905
ag5
(g9
S'_\xfc[\xea\xd5\xa8\x9f?'
p1906
tp1907
Rp1908
assS'SAMPL5_067'
p1909
(dp1910
g3
(lp1911
g5
(g9
S'\xc2\xbbU\xcbK\xfbJ@'
p1912
tp1913
Rp1914
ag5
(g9
S'\x94\x0f\xab\xc9a\x8b\xc8?'
p1915
tp1916
Rp1917
asg18
S'CC(C)NC[C@@H](COc1cccc2c1cccc2)O'
p1918
sg20
F13.32
sg21
(lp1919
F13.32
asg23
g397
sg25
(lp1920
g5
(g9
S'\xa8\xb7\xd3\xa97:\xee?'
p1921
tp1922
Rp1923
ag5
(g9
S'\xf06X\xf1\x1fC\xa9?'
p1924
tp1925
Rp1926
asg33
(lp1927
g5
(g9
S'\r,\xec\xa57:\xee?'
p1928
tp1929
Rp1930
ag1926
asg38
F9.25
sg39
(lp1931
F9.25
aF-1.29
asg41
(lp1932
g5
(g9
S'\xd8\xa96^\t\xfdB@'
p1933
tp1934
Rp1935
ag5
(g9
S'>q\xc2T&g\xca?'
p1936
tp1937
Rp1938
asg49
(lp1939
g5
(g9
S'\xdbC\xb7\x9bz\xd4\xfb?'
p1940
tp1941
Rp1942
ag5
(g9
S'\xf06X\xf1\x1fC\xa9?'
p1943
tp1944
Rp1945
asg57
g5
(g9
S'F\xb3\x9e\x1aX\xb1\xff\xbf'
p1946
tp1947
Rp1948
sg61
(lp1949
g1923
ag1926
asg66
g67
(g68
(I0
tp1950
g70
tp1951
Rp1952
(I1
(I2
tp1953
g76
I00
S'\xeb\x05\xa6~\xd4g\x06@\xf06X\xf1\x1fC\xa9?'
p1954
tp1955
bsg81
(lp1956
g5
(g9
S'\xbb\x8c\x918\xd4g\x06@'
p1957
tp1958
Rp1959
ag1926
asg83
(lp1960
g5
(g9
S' \xb1Z\xc5\xa1<\xea?'
p1961
tp1962
Rp1963
ag5
(g9
S'\xf06X\xf1\x1fC\xa9?'
p1964
tp1965
Rp1966
assS'SAMPL5_065'
p1967
(dp1968
g3
(lp1969
g5
(g9
S'C\xb4\x15\x0c<\xa3`@'
p1970
tp1971
Rp1972
ag5
(g9
S'\xbf0zB\xf5\xe2\xd3?'
p1973
tp1974
Rp1975
asg18
S'COc1ccc2c(c1)[nH]c3c2CC[N@]4[C@@H]3C[C@H]5[C@@H](C4)C[C@H]([C@@H]([C@H]5C(=O)OC)OC)OC(=O)c6cc(c(c(c6)OC)OC)OC'
p1976
sg20
Nsg21
(lp1977
sg23
g397
sg25
(lp1978
g5
(g9
S'\xca\xd8a[no\xfe?'
p1979
tp1980
Rp1981
ag5
(g9
S't\xbeL\x19\x87*\xb0?'
p1982
tp1983
Rp1984
asg33
(lp1985
g5
(g9
S'\xca\xd8a[no\xfe?'
p1986
tp1987
Rp1988
ag1984
asg38
F8.15
sg39
(lp1989
F-1.05
aF8.15
asg41
(lp1990
g5
(g9
S'\xc2K\x83h\x9ec]@'
p1991
tp1992
Rp1993
ag5
(g9
S']H\xc6\xd9gb\xc7?'
p1994
tp1995
Rp1996
asg49
(lp1997
g5
(g9
S'\xe5g\x96\x129\x9e\x04@'
p1998
tp1999
Rp2000
ag5
(g9
S't\xbeL\x19\x87*\xb0?'
p2001
tp2002
Rp2003
asg57
g5
(g9
S'\x85\xc2\xde\xf3?\xc9\xeb\xbf'
p2004
tp2005
Rp2006
sg61
(lp2007
g1981
ag1984
asg66
g67
(g68
(I0
tp2008
g70
tp2009
Rp2010
(I1
(I2
tp2011
g76
I00
S'\x90\xact\x8aJ\xc9\x05@t\xbeL\x19\x87*\xb0?'
p2012
tp2013
bsg81
(lp2014
g5
(g9
S'\x90\xact\x8aJ\xc9\x05@'
p2015
tp2016
Rp2017
ag1984
asg83
(lp2018
g5
(g9
S'\xde\xf7\xf9\x1a\xf5\xad\xfd?'
p2019
tp2020
Rp2021
ag5
(g9
S't\xbeL\x19\x87*\xb0?'
p2022
tp2023
Rp2024
assS'SAMPL5_002'
p2025
(dp2026
g3
(lp2027
g5
(g9
S'\xa8\xc5\x06\x07?\x9aM@'
p2028
tp2029
Rp2030
ag5
(g9
S']\xdeU\xd0#\x12\xc6?'
p2031
tp2032
Rp2033
asg18
S'CCOC(=O)c1c(c2c(c(c(nc2s1)C)C)C)N'
p2034
sg20
F11.05
sg21
(lp2035
F11.05
aF11.05
asg23
S'1254130'
p2036
sg25
(lp2037
g5
(g9
S'y\xd7^\xf2\xbaK\x01@'
p2038
tp2039
Rp2040
ag5
(g9
S'\x95\x08\x87\xce\nE\xa2?'
p2041
tp2042
Rp2043
asg33
(lp2044
g5
(g9
S'D\x99H\t\x88K\x01@'
p2045
tp2046
Rp2047
ag2043
asg38
F4.46
sg39
(lp2048
F2.92
aF4.46
asg41
(lp2049
g5
(g9
S'U\x1d\x9b\xa6InG@'
p2050
tp2051
Rp2052
ag5
(g9
S'8\xf0\x0f\x02\xf8\xc0\xbb?'
p2053
tp2054
Rp2055
asg49
(lp2056
g5
(g9
S'\xd5\x10\xe09\xc0L\x01@'
p2057
tp2058
Rp2059
ag5
(g9
S'\x95\x08\x87\xce\nE\xa2?'
p2060
tp2061
Rp2062
asg57
g5
(g9
S'm>\xaci\x1b73\xbf'
p2063
tp2064
Rp2065
sg61
(lp2066
g2040
ag2043
asg66
g67
(g68
(I0
tp2067
g70
tp2068
Rp2069
(I1
(I2
tp2070
g76
I00
S'\xd5\x10\xe09\xc0L\x01@\x95\x08\x87\xce\nE\xa2?'
p2071
tp2072
bsg81
(lp2073
g5
(g9
S'\x99x\xd3A\x8dL\x01@'
p2074
tp2075
Rp2076
ag2043
asg83
(lp2077
g5
(g9
S's\xc3\x04\x81&L\x01@'
p2078
tp2079
Rp2080
ag5
(g9
S'\x95\x08\x87\xce\nE\xa2?'
p2081
tp2082
Rp2083
assS'SAMPL5_070'
p2084
(dp2085
g3
(lp2086
g5
(g9
S'Cq}\x7fR\xe1L@'
p2087
tp2088
Rp2089
ag5
(g9
S'\xc4f\xa55\xb8h\xca?'
p2090
tp2091
Rp2092
asg18
S'CN(C)CCC=C1c2ccccc2CCc3c1cccc3'
p2093
sg20
Nsg21
(lp2094
sg23
g397
sg25
(lp2095
g5
(g9
S'\xb2\xe4\xc4\x03|8\x08@'
p2096
tp2097
Rp2098
ag5
(g9
S'\x85d\xfeM;\xad\xa5?'
p2099
tp2100
Rp2101
asg33
(lp2102
g5
(g9
S'\xb2\xe4\xc4\x03|8\x08@'
p2103
tp2104
Rp2105
ag2101
asg38
F9.1
sg39
(lp2106
F9.1
asg41
(lp2107
g5
(g9
S'v\xda\r\xc2\xee\xb9>@'
p2108
tp2109
Rp2110
ag5
(g9
S'\x04\xeb\xad7\n\x1b\xc0?'
p2111
tp2112
Rp2113
asg49
(lp2114
g5
(g9
S'8\xb2;DQ3\x0e@'
p2115
tp2116
Rp2117
ag5
(g9
S'\x85d\xfeM;\xad\xa5?'
p2118
tp2119
Rp2120
asg57
g5
(g9
S'\x08\xf7O\xb0i\x14\xfd\xbf'
p2121
tp2122
Rp2123
sg61
(lp2124
g2098
ag2101
asg66
g67
(g68
(I0
tp2125
g70
tp2126
Rp2127
(I1
(I2
tp2128
g76
I00
S'\x14\x9e\xaf\x00\xd4\xf1\x12@\x85d\xfeM;\xad\xa5?'
p2129
tp2130
bsg81
(lp2131
g5
(g9
S'\x14\x9e\xaf\x00\xd4\xf1\x12@'
p2132
tp2133
Rp2134
ag2101
asg83
(lp2135
g5
(g9
S'\xa4@7)sY\x07@'
p2136
tp2137
Rp2138
ag5
(g9
S'\x85d\xfeM;\xad\xa5?'
p2139
tp2140
Rp2141
assS'SAMPL5_069'
p2142
(dp2143
g3
(lp2144
g5
(g9
S'D_mHP\xd4R@'
p2145
tp2146
Rp2147
ag5
(g9
S'Z\xd3q\xc4\xcam\xca?'
p2148
tp2149
Rp2150
asg18
S'C[N@]1CCc2cc(c(c-3c2[C@@H]1Cc4c3cc(c(c4)O)OC)OC)O'
p2151
sg20
F10.1
sg21
(lp2152
F10.1
aF10.22
asg23
g397
sg25
(lp2153
g5
(g9
S'a\x18.\xb8\xc5\xf0\x00@'
p2154
tp2155
Rp2156
ag5
(g9
S'u\xbc\xbb^W\x9d\xa6?'
p2157
tp2158
Rp2159
asg33
(lp2160
g5
(g9
S'\x97\x98\xb0)z\xf0\x00@'
p2161
tp2162
Rp2163
ag2159
asg38
F8.1
sg39
(lp2164
F8.1
asg41
(lp2165
g5
(g9
S'\xbe\xad\xe5zQdM@'
p2166
tp2167
Rp2168
ag5
(g9
S'\xedb+l\xc1\x84\xc2?'
p2169
tp2170
Rp2171
asg49
(lp2172
g5
(g9
S"\xcc[\x8cv\x10'\x06@"
p2173
tp2174
Rp2175
ag5
(g9
S'u\xbc\xbb^W\x9d\xa6?'
p2176
tp2177
Rp2178
asg57
g5
(g9
S'\xa1\x08\xe8\xd4F\xef\xea\xbf'
p2179
tp2180
Rp2181
sg61
(lp2182
g2156
ag2159
asg66
g67
(g68
(I0
tp2183
g70
tp2184
Rp2185
(I1
(I2
tp2186
g76
I00
S'QG\xde./,\x07@u\xbc\xbb^W\x9d\xa6?'
p2187
tp2188
bsg81
(lp2189
g5
(g9
S'\xb5p\xddRi*\x07@'
p2190
tp2191
Rp2192
ag2159
asg83
(lp2193
g5
(g9
S')E\xa4y]p\x00@'
p2194
tp2195
Rp2196
ag5
(g9
S'u\xbc\xbb^W\x9d\xa6?'
p2197
tp2198
Rp2199
assS'SAMPL5_068'
p2200
(dp2201
g3
(lp2202
g5
(g9
S'\x80\x900\xb5\xf4\x8bQ@'
p2203
tp2204
Rp2205
ag5
(g9
S'\xf8\xce\x1a\xcd<\xfd\xc9?'
p2206
tp2207
Rp2208
asg18
S'c1ccc(cc1)c2c(nnc(n2)c3ccccn3)c4ccccc4'
p2209
sg20
Nsg21
(lp2210
sg23
g397
sg25
(lp2211
g5
(g9
S'\xffZ\xd3\x90t-\x11@'
p2212
tp2213
Rp2214
ag5
(g9
S'\xf1\x9a\x97\xaa$\x19\xa5?'
p2215
tp2216
Rp2217
asg33
(lp2218
g5
(g9
S'\xffZ\xd3\x90t-\x11@'
p2219
tp2220
Rp2221
ag2217
asg38
F0.83
sg39
(lp2222
F-2.69
aF0.83
asg41
(lp2223
g5
(g9
S'\xf7~G\xf7R\xd6F@'
p2224
tp2225
Rp2226
ag5
(g9
S'\xf1\x9b)l\xc9e\xbe?'
p2227
tp2228
Rp2229
asg49
(lp2230
g5
(g9
S'\xd0\x8a\xab\x98t-\x11@'
p2231
tp2232
Rp2233
ag5
(g9
S'\xf1\x9a\x97\xaa$\x19\xa5?'
p2234
tp2235
Rp2236
asg57
g5
(g9
S'\x00\x00\x00\x00\x00\x00\x00\x00'
p2237
tp2238
Rp2239
sg61
(lp2240
g2214
ag2217
asg66
g67
(g68
(I0
tp2241
g70
tp2242
Rp2243
(I1
(I2
tp2244
g76
I00
S'\xd0\x8a\xab\x98t-\x11@\xf1\x9a\x97\xaa$\x19\xa5?'
p2245
tp2246
bsg81
(lp2247
g5
(g9
S'\xd0\x8a\xab\x98t-\x11@'
p2248
tp2249
Rp2250
ag2217
asg83
(lp2251
g5
(g9
S'\xd0\x8a\xab\x98t-\x11@'
p2252
tp2253
Rp2254
ag5
(g9
S'\xf1\x9a\x97\xaa$\x19\xa5?'
p2255
tp2256
Rp2257
assS'SAMPL5_045'
p2258
(dp2259
g3
(lp2260
g5
(g9
S'\xf0\xabB\xde\xcf\xc7G@'
p2261
tp2262
Rp2263
ag5
(g9
S'\xa6\xfa\xf7\x8b"\x8d\xc2?'
p2264
tp2265
Rp2266
asg18
S'CCC(=O)Nc1ccc2c(c1)ncs2'
p2267
sg20
F11.72
sg21
(lp2268
F11.72
asg23
S'12474692'
p2269
sg25
(lp2270
g5
(g9
S'\xe6\x12\x87\xa7\x97\xbe\xff\xbf'
p2271
tp2272
Rp2273
ag5
(g9
S'h\xa5\x92p\xd4\xa9\xa0?'
p2274
tp2275
Rp2276
asg33
(lp2277
g5
(g9
S'c\x1eAs\xad\xbe\xff\xbf'
p2278
tp2279
Rp2280
ag2276
asg38
F1.7
sg39
(lp2281
F1.11
aF1.7
asg41
(lp2282
g5
(g9
S'\xa6\x08\x9b\xcddqM@'
p2283
tp2284
Rp2285
ag5
(g9
S'"\x1f\xd24*\xc0\xbd?'
p2286
tp2287
Rp2288
asg49
(lp2289
g5
(g9
S'E\x8c\xeb\xbe\x96\xbe\xff\xbf'
p2290
tp2291
Rp2292
ag5
(g9
S'h\xa5\x92p\xd4\xa9\xa0?'
p2293
tp2294
Rp2295
asg57
g5
(g9
S'\x00\x00\x00\x00\x00\x00\x00\x00'
p2296
tp2297
Rp2298
sg61
(lp2299
g5
(g9
S'[q\xa8\x8a\xac\xbe\xff\xbf'
p2300
tp2301
Rp2302
ag2276
asg66
g67
(g68
(I0
tp2303
g70
tp2304
Rp2305
(I1
(I2
tp2306
g76
I00
S'E\x8c\xeb\xbe\x96\xbe\xff\xbfh\xa5\x92p\xd4\xa9\xa0?'
p2307
tp2308
bsg81
(lp2309
g2302
ag2276
asg83
(lp2310
g5
(g9
S'E\x8c\xeb\xbe\x96\xbe\xff\xbf'
p2311
tp2312
Rp2313
ag5
(g9
S'h\xa5\x92p\xd4\xa9\xa0?'
p2314
tp2315
Rp2316
assS'SAMPL5_044'
p2317
(dp2318
g3
(lp2319
g5
(g9
S'\xfdi\x89\xc4\x98\x19S@'
p2320
tp2321
Rp2322
ag5
(g9
S'\x8e\xdbAW\x85Z\xc7?'
p2323
tp2324
Rp2325
asg18
S'c1ccc2c(c1)cc(c(=O)o2)C(=O)Nc3ccc4c(c3)scn4'
p2326
sg20
F11.71
sg21
(lp2327
F11.71
asg23
S'4987019'
p2328
sg25
(lp2329
g5
(g9
S'_\xc8\x0b\xec\xce^\x04@'
p2330
tp2331
Rp2332
ag5
(g9
S'\xc0\xbc\xc6\x06\xe0e\xa3?'
p2333
tp2334
Rp2335
asg33
(lp2336
g5
(g9
S'\xa7\xe91\xc5\xc3^\x04@'
p2337
tp2338
Rp2339
ag2335
asg38
F0.78
sg39
(lp2340
F0.78
aF0.5
aF-1.29
asg41
(lp2341
g5
(g9
S'w\xbe\xc2\x03\xcf\xeeN@'
p2342
tp2343
Rp2344
ag5
(g9
S'\x94\xefI!\xb4\xb8\xbd?'
p2345
tp2346
Rp2347
asg49
(lp2348
g5
(g9
S'%a\x07\xfa\xce^\x04@'
p2349
tp2350
Rp2351
ag5
(g9
S'\xc0\xbc\xc6\x06\xe0e\xa3?'
p2352
tp2353
Rp2354
asg57
g5
(g9
S'\x00\x00\x00\x00\x00\x00\x00\x00'
p2355
tp2356
Rp2357
sg61
(lp2358
g5
(g9
S'\x8bU-\xd3\xc3^\x04@'
p2359
tp2360
Rp2361
ag2335
asg66
g67
(g68
(I0
tp2362
g70
tp2363
Rp2364
(I1
(I2
tp2365
g76
I00
S'%a\x07\xfa\xce^\x04@\xc0\xbc\xc6\x06\xe0e\xa3?'
p2366
tp2367
bsg81
(lp2368
g2361
ag2335
asg83
(lp2369
g5
(g9
S'%a\x07\xfa\xce^\x04@'
p2370
tp2371
Rp2372
ag5
(g9
S'\xc0\xbc\xc6\x06\xe0e\xa3?'
p2373
tp2374
Rp2375
assS'SAMPL5_048'
p2376
(dp2377
g3
(lp2378
g5
(g9
S'\xdb|\x96w\xfe\x1fS@'
p2379
tp2380
Rp2381
ag5
(g9
S'\xc6\xb0\xd1\xa5\xee\xd8\xc8?'
p2382
tp2383
Rp2384
asg18
S'c1ccc2c(c1)nc(s2)c3cccc(c3)NC(=O)c4ccno4'
p2385
sg20
F11.23
sg21
(lp2386
F11.23
asg23
S'5627798'
p2387
sg25
(lp2388
g5
(g9
S'\xbb@\x8a\x92j\x0e\xf2?'
p2389
tp2390
Rp2391
ag5
(g9
S'-\xdd"\x10\xf7\xd6\xa4?'
p2392
tp2393
Rp2394
asg33
(lp2395
g5
(g9
S",\xeea8'\x0e\xf2?"
p2396
tp2397
Rp2398
ag2394
asg38
F1.43
sg39
(lp2399
F1.43
aF0.29
asg41
(lp2400
g5
(g9
S'\xb0\xa3_N\xbb\x83Q@'
p2401
tp2402
Rp2403
ag5
(g9
S'\xa8\x9d\xf3U\xddV\xc0?'
p2404
tp2405
Rp2406
asg49
(lp2407
g5
(g9
S'\xb3.u\x0fk\x0e\xf2?'
p2408
tp2409
Rp2410
ag5
(g9
S'-\xdd"\x10\xf7\xd6\xa4?'
p2411
tp2412
Rp2413
asg57
g5
(g9
S'\x00\x00\x00\x00\x00\x00\x00\x00'
p2414
tp2415
Rp2416
sg61
(lp2417
g5
(g9
S"p!H\xb5'\x0e\xf2?"
p2418
tp2419
Rp2420
ag2394
asg66
g67
(g68
(I0
tp2421
g70
tp2422
Rp2423
(I1
(I2
tp2424
g76
I00
S'\xb3.u\x0fk\x0e\xf2?-\xdd"\x10\xf7\xd6\xa4?'
p2425
tp2426
bsg81
(lp2427
g2420
ag2394
asg83
(lp2428
g5
(g9
S'\xb3.u\x0fk\x0e\xf2?'
p2429
tp2430
Rp2431
ag5
(g9
S'-\xdd"\x10\xf7\xd6\xa4?'
p2432
tp2433
Rp2434
assS'SAMPL5_046'
p2435
(dp2436
g3
(lp2437
g5
(g9
S'6\x11\xf2[SeQ@'
p2438
tp2439
Rp2440
ag5
(g9
S'\xaa\x19\xb6C{\xf2\xc7?'
p2441
tp2442
Rp2443
asg18
S'CSc1ccc(cc1)CC(=O)Nc2c3ccsc3ncn2'
p2444
sg20
F10.04
sg21
(lp2445
F10.04
asg23
S'12046880'
p2446
sg25
(lp2447
g5
(g9
S'\xed\xb7\x00S\x06\x89\xff?'
p2448
tp2449
Rp2450
ag5
(g9
S'L\xe5\xbd]Ra\xa4?'
p2451
tp2452
Rp2453
asg33
(lp2454
g5
(g9
S'\x9a\xc3\x8aG\xf4\x84\xff?'
p2455
tp2456
Rp2457
ag2453
asg38
F1.7
sg39
(lp2458
F1.7
aF0.84
aF-0.88
asg41
(lp2459
g5
(g9
S'\x19a\xb7\x93\x9f*M@'
p2460
tp2461
Rp2462
ag5
(g9
S'\xffk\xfe\x08\x95\x80\xc0?'
p2463
tp2464
Rp2465
asg49
(lp2466
g5
(g9
S'\x8e>\x9c;\x07\x89\xff?'
p2467
tp2468
Rp2469
ag5
(g9
S'L\xe5\xbd]Ra\xa4?'
p2470
tp2471
Rp2472
asg57
g5
(g9
S':\xc6\xe1\xd6\xfe\x9dE\xbf'
p2473
tp2474
Rp2475
sg61
(lp2476
g5
(g9
S'\xb7/\x9e/\xf5\x84\xff?'
p2477
tp2478
Rp2479
ag2453
asg66
g67
(g68
(I0
tp2480
g70
tp2481
Rp2482
(I1
(I2
tp2483
g76
I00
S'\x8e>\x9c;\x07\x89\xff?L\xe5\xbd]Ra\xa4?'
p2484
tp2485
bsg81
(lp2486
g2479
ag2453
asg83
(lp2487
g5
(g9
S'Ub\xc1{S\x86\xff?'
p2488
tp2489
Rp2490
ag5
(g9
S'L\xe5\xbd]Ra\xa4?'
p2491
tp2492
Rp2493
assS'SAMPL5_006'
p2494
(dp2495
g3
(lp2496
g5
(g9
S'\xbeB\x9e\xb7\xa2\x99H@'
p2497
tp2498
Rp2499
ag5
(g9
S'j\x11\xbd|\xd9v\xc4?'
p2500
tp2501
Rp2502
asg18
S'C=C(Cn1c2ccccc2nc1CO)Br'
p2503
sg20
F10.9
sg21
(lp2504
F10.9
asg23
S'2118862'
p2505
sg25
(lp2506
g5
(g9
S'\xab\xacw"\xccA\xf5?'
p2507
tp2508
Rp2509
ag5
(g9
S'\x12\xa2\x8aoxs\xa1?'
p2510
tp2511
Rp2512
asg33
(lp2513
g5
(g9
S'\xc7+\xa7\xa9@A\xf5?'
p2514
tp2515
Rp2516
ag2512
asg38
F5.91
sg39
(lp2517
F5.91
aF-1.98
asg41
(lp2518
g5
(g9
S'\x93nKK\xd9\xc4D@'
p2519
tp2520
Rp2521
ag5
(g9
S'k\xd3#\xc5Oa\xbc?'
p2522
tp2523
Rp2524
asg49
(lp2525
g5
(g9
S'^D\xfb\xe2rz\xf5?'
p2526
tp2527
Rp2528
ag5
(g9
S'\x12\xa2\x8aoxs\xa1?'
p2529
tp2530
Rp2531
asg57
g5
(g9
S'!\x8a|\x8dp\xd1\x86\xbf'
p2532
tp2533
Rp2534
sg61
(lp2535
g2509
ag2512
asg66
g67
(g68
(I0
tp2536
g70
tp2537
Rp2538
(I1
(I2
tp2539
g76
I00
S'^D\xfb\xe2rz\xf5?\x12\xa2\x8aoxs\xa1?'
p2540
tp2541
bsg81
(lp2542
g5
(g9
S'\x89\xeb\xf6\xe6\xe2y\xf5?'
p2543
tp2544
Rp2545
ag2512
asg83
(lp2546
g5
(g9
S'JK\xe0\x01\xd0L\xf5?'
p2547
tp2548
Rp2549
ag5
(g9
S'\x12\xa2\x8aoxs\xa1?'
p2550
tp2551
Rp2552
assS'SAMPL5_063'
p2553
(dp2554
g3
(lp2555
g5
(g9
S'M\xef\x9bhT\xa7J@'
p2556
tp2557
Rp2558
ag5
(g9
S'l\xc0l@\xa4\x14\xc5?'
p2559
tp2560
Rp2561
asg18
S'C1C[C@H](CNC1)N2CCC(CC2)C(=O)N'
p2562
sg20
F13.25
sg21
(lp2563
F13.25
aF13.25
asg23
S'38498425'
p2564
sg25
(lp2565
g5
(g9
S'\xa8t\x02U\x92\x06\x18\xc0'
p2566
tp2567
Rp2568
ag5
(g9
S'\xc8\x08\x8a\xa4x\xcb\xa1?'
p2569
tp2570
Rp2571
asg33
(lp2572
g5
(g9
S' ;8U\x92\x06\x18\xc0'
p2573
tp2574
Rp2575
ag2571
asg38
F9.69
sg39
(lp2576
F9.69
aF8.66
aF-0.31
asg41
(lp2577
g5
(g9
S'\x86\x96\x04\xb1\x81\xa0R@'
p2578
tp2579
Rp2580
ag5
(g9
S'\x98\xd1\xc5;kP\xbc?'
p2581
tp2582
Rp2583
asg49
(lp2584
g5
(g9
S'\xd49A\xb2\x0c\xa5\x18\xc0'
p2585
tp2586
Rp2587
ag5
(g9
S'\xc8\x08\x8a\xa4x\xcb\xa1?'
p2588
tp2589
Rp2590
asg57
g5
(g9
S'E\t!\x93\x06Y\x18\xc0'
p2591
tp2592
Rp2593
sg61
(lp2594
g2568
ag2571
asg66
g67
(g68
(I0
tp2595
g70
tp2596
Rp2597
(I1
(I2
tp2598
g76
I00
S'\xd69\xe2]\xac\xb6\r\xc0\xc8\x08\x8a\xa4x\xcb\xa1?'
p2599
tp2600
bsg81
(lp2601
g5
(g9
S')q8\xb0\xac\xb6\r\xc0'
p2602
tp2603
Rp2604
ag2571
asg83
(lp2605
g5
(g9
S'\x18\x13\ta.\x9a#\xc0'
p2606
tp2607
Rp2608
ag5
(g9
S'\xc8\x08\x8a\xa4x\xcb\xa1?'
p2609
tp2610
Rp2611
assS'SAMPL5_047'
p2612
(dp2613
g3
(lp2614
g5
(g9
S'\xa6\xc1\xd1\x11c\xd6P@'
p2615
tp2616
Rp2617
ag5
(g9
S'YL^\x85Z\x8f\xc6?'
p2618
tp2619
Rp2620
asg18
S'c1cnoc1C(=O)Nc2c(c3c(s2)CCCC3)C#N'
p2621
sg20
F11.35
sg21
(lp2622
F11.35
asg23
S'5627778'
p2623
sg25
(lp2624
g5
(g9
S'\xd1\x1f\xbe=\xc7\xdf\t@'
p2625
tp2626
Rp2627
ag5
(g9
S'\xc5\xf4\xddA\tw\xa2?'
p2628
tp2629
Rp2630
asg33
(lp2631
g5
(g9
S'\xd6\xa7\xdc\xb1\xad\xdf\t@'
p2632
tp2633
Rp2634
ag2630
asg38
F-0.83
sg39
(lp2635
F-0.83
asg41
(lp2636
g5
(g9
S'\xd1\xe5\xe0\x17\xbdqH@'
p2637
tp2638
Rp2639
ag5
(g9
S'\xa4mn\x85z:\xbb?'
p2640
tp2641
Rp2642
asg49
(lp2643
g5
(g9
S'\x8e\x8a\xd50\xed\xb8\x01@'
p2644
tp2645
Rp2646
ag5
(g9
S'\xc5\xf4\xddA\tw\xa2?'
p2647
tp2648
Rp2649
asg57
g5
(g9
S'\x00\x00\x00\x00\x00\x00\x00\x00'
p2650
tp2651
Rp2652
sg61
(lp2653
g5
(g9
S'\xb3\x834\xb2\xad\xdf\t@'
p2654
tp2655
Rp2656
ag2630
asg66
g67
(g68
(I0
tp2657
g70
tp2658
Rp2659
(I1
(I2
tp2660
g76
I00
S'4\xfe\x15>\xc7\xdf\t@\xc5\xf4\xddA\tw\xa2?'
p2661
tp2662
bsg81
(lp2663
g2656
ag2630
asg83
(lp2664
g5
(g9
S'4\xfe\x15>\xc7\xdf\t@'
p2665
tp2666
Rp2667
ag5
(g9
S'\xc5\xf4\xddA\tw\xa2?'
p2668
tp2669
Rp2670
assS'SAMPL5_055'
p2671
(dp2672
g3
(lp2673
g5
(g9
S'\xf6|]\x1a\xa0\x87E@'
p2674
tp2675
Rp2676
ag5
(g9
S':h*&\xeb\xe4\xbf?'
p2677
tp2678
Rp2679
asg18
S'c1ccc2c(c1)ncc(n2)C(=O)N'
p2680
sg20
F10.75
sg21
(lp2681
F10.75
aF10.75
asg23
S'3800934'
p2682
sg25
(lp2683
g5
(g9
S'\xbe\x8d\xa5\xbec\n\xe1\xbf'
p2684
tp2685
Rp2686
ag5
(g9
S'\xf4\xeeG\xd6\xbcL\x9b?'
p2687
tp2688
Rp2689
asg33
(lp2690
g5
(g9
S'\xb6\xf8+|\xfa\x0b\xe1\xbf'
p2691
tp2692
Rp2693
ag2689
asg38
F-0.75
sg39
(lp2694
F-0.75
aF-2.22
aF-1.9
asg41
(lp2695
g5
(g9
S'4\xf0\xeaH\xb2\x0cG@'
p2696
tp2697
Rp2698
ag5
(g9
S'\xfd\x13\xf6)\x92^\xb6?'
p2699
tp2700
Rp2701
asg49
(lp2702
g5
(g9
S'\xf1\xfc\xfe\xbcc\n\xe1\xbf'
p2703
tp2704
Rp2705
ag5
(g9
S'\xf4\xeeG\xd6\xbcL\x9b?'
p2706
tp2707
Rp2708
asg57
g5
(g9
S'\x00\x00\x00\x00\x00\x00\x00\x00'
p2709
tp2710
Rp2711
sg61
(lp2712
g5
(g9
S'7\x98\x85z\xfa\x0b\xe1\xbf'
p2713
tp2714
Rp2715
ag2689
asg66
g67
(g68
(I0
tp2716
g70
tp2717
Rp2718
(I1
(I2
tp2719
g76
I00
S'\xf1\xfc\xfe\xbcc\n\xe1\xbf\xf4\xeeG\xd6\xbcL\x9b?'
p2720
tp2721
bsg81
(lp2722
g2715
ag2689
asg83
(lp2723
g5
(g9
S'\xf1\xfc\xfe\xbcc\n\xe1\xbf'
p2724
tp2725
Rp2726
ag5
(g9
S'\xf4\xeeG\xd6\xbcL\x9b?'
p2727
tp2728
Rp2729
assS'SAMPL5_088'
p2730
(dp2731
g3
(lp2732
g5
(g9
S'|\x88\x9fojXM@'
p2733
tp2734
Rp2735
ag5
(g9
S'\xaf\\\x8b\xbf\xd1\xe6\xc9?'
p2736
tp2737
Rp2738
asg18
S'CCN(Cc1ccncc1)C(=O)[C@H](CO)c2ccccc2'
p2739
sg20
F14.6
sg21
(lp2740
F14.6
asg23
g397
sg25
(lp2741
g5
(g9
S'V\x8d\xe5\x8f\xd1/\xad\xbf'
p2742
tp2743
Rp2744
ag5
(g9
S'\xe5!H^\x9d\x88\xa5?'
p2745
tp2746
Rp2747
asg33
(lp2748
g5
(g9
S'\x0fJ\x08s\xd2/\xad\xbf'
p2749
tp2750
Rp2751
ag2747
asg38
F5.96
sg39
(lp2752
F5.96
aF-0.13
aF-2.19
asg41
(lp2753
g5
(g9
S'\x9cN\xb6\xb6\xbfvM@'
p2754
tp2755
Rp2756
ag5
(g9
S'/\x169t\x84\x88\xc0?'
p2757
tp2758
Rp2759
asg49
(lp2760
g5
(g9
S'\xf2\xa8\xe8\xb4\xacA\xa5\xbf'
p2761
tp2762
Rp2763
ag5
(g9
S'\xe5!H^\x9d\x88\xa5?'
p2764
tp2765
Rp2766
asg57
g5
(g9
S'e\x1b,\x9f\x9e\xab\x89\xbf'
p2767
tp2768
Rp2769
sg61
(lp2770
g2744
ag2747
asg66
g67
(g68
(I0
tp2771
g70
tp2772
Rp2773
(I1
(I2
tp2774
g76
I00
S'\xf2\xa8\xe8\xb4\xacA\xa5\xbf\xe5!H^\x9d\x88\xa5?'
p2775
tp2776
bsg81
(lp2777
g5
(g9
S'\xdf\x93J\xa0\xadA\xa5\xbf'
p2778
tp2779
Rp2780
ag2747
asg83
(lp2781
g5
(g9
S'\xcb\xaf\xb3\\\x94\xac\xab\xbf'
p2782
tp2783
Rp2784
ag5
(g9
S'\xe5!H^\x9d\x88\xa5?'
p2785
tp2786
Rp2787
assS'SAMPL5_092'
p2788
(dp2789
g3
(lp2790
g5
(g9
S'I\x8d\xae\x83\xa4T[@'
p2791
tp2792
Rp2793
ag5
(g9
S'\xe1\xd4\xb9.\xaa\xb1\xd3?'
p2794
tp2795
Rp2796
asg18
S'CC(=O)N1CCN(CC1)c2ccc(cc2)OC[C@H]3CO[C@](O3)(Cn4ccnc4)c5ccc(cc5Cl)Cl'
p2797
sg20
Nsg21
(lp2798
sg23
g397
sg25
(lp2799
g5
(g9
S'\xba\xf5\xa9\xc7aL\xf5?'
p2800
tp2801
Rp2802
ag5
(g9
S'\xabE~%\xc1i\xb4?'
p2803
tp2804
Rp2805
asg33
(lp2806
g5
(g9
S'\xba\xf5\xa9\xc7aL\xf5?'
p2807
tp2808
Rp2809
ag2805
asg38
F7.15
sg39
(lp2810
F5.52
aF7.15
aF0.27
asg41
(lp2811
g5
(g9
S"\x81{\x06\xaf\x91'Y@"
p2812
tp2813
Rp2814
ag5
(g9
S'9\x05\x8c\x8a\x9ev\xd5?'
p2815
tp2816
Rp2817
asg49
(lp2818
g5
(g9
S'O-Nu\xc9e\xf8?'
p2819
tp2820
Rp2821
ag5
(g9
S'\xabE~%\xc1i\xb4?'
p2822
tp2823
Rp2824
asg57
g5
(g9
S'\x00>\xa59p\xc7\xc8\xbf'
p2825
tp2826
Rp2827
sg61
(lp2828
g2802
ag2805
asg66
g67
(g68
(I0
tp2829
g70
tp2830
Rp2831
(I1
(I2
tp2832
g76
I00
S'\xcf\xe04\x8f\x16f\xf8?\xabE~%\xc1i\xb4?'
p2833
tp2834
bsg81
(lp2835
g5
(g9
S'\xcf\xe04\x8f\x16f\xf8?'
p2836
tp2837
Rp2838
ag2805
asg83
(lp2839
g5
(g9
S'\x0f9\x00\x88(M\xf5?'
p2840
tp2841
Rp2842
ag5
(g9
S'\xabE~%\xc1i\xb4?'
p2843
tp2844
Rp2845
assS'SAMPL5_090'
p2846
(dp2847
g3
(lp2848
g5
(g9
S'\x8b\xc2#\x9d\xb8\xb7Q@'
p2849
tp2850
Rp2851
ag5
(g9
S"H+f3\x12'\xca?"
p2852
tp2853
Rp2854
asg18
S'Cc1cc2c(cc1C)nc(c(n2)c3ccccn3)c4ccccn4'
p2855
sg20
Nsg21
(lp2856
sg23
g397
sg25
(lp2857
g5
(g9
S'P\xeay\x19:G\x11@'
p2858
tp2859
Rp2860
ag5
(g9
S"\xbb^\x07\xd5'z\xa7?"
p2861
tp2862
Rp2863
asg33
(lp2864
g5
(g9
S'P\xeay\x19:G\x11@'
p2865
tp2866
Rp2867
ag2863
asg38
F4.44
sg39
(lp2868
F-1.32
aF-1.32
aF4.44
aF4.44
asg41
(lp2869
g5
(g9
S'{\xd8\xa5o\x1e\x1bG@'
p2870
tp2871
Rp2872
ag5
(g9
S'\xe4l|\x9fB\xf0\xc4?'
p2873
tp2874
Rp2875
asg49
(lp2876
g5
(g9
S'\xe9\x15\xd6\xdc\xb6G\x11@'
p2877
tp2878
Rp2879
ag5
(g9
S"\xbb^\x07\xd5'z\xa7?"
p2880
tp2881
Rp2882
asg57
g5
(g9
S'm>\xaci\x1b73\xbf'
p2883
tp2884
Rp2885
sg61
(lp2886
g2860
ag2863
asg66
g67
(g68
(I0
tp2887
g70
tp2888
Rp2889
(I1
(I2
tp2890
g76
I00
S"\xe9\x15\xd6\xdc\xb6G\x11@\xbb^\x07\xd5'z\xa7?"
p2891
tp2892
bsg81
(lp2893
g5
(g9
S'\xe9\x15\xd6\xdc\xb6G\x11@'
p2894
tp2895
Rp2896
ag2863
asg83
(lp2897
g5
(g9
S'8oh\x00jG\x11@'
p2898
tp2899
Rp2900
ag5
(g9
S"\xbb^\x07\xd5'z\xa7?"
p2901
tp2902
Rp2903
assS'SAMPL5_005'
p2904
(dp2905
g3
(lp2906
g5
(g9
S'\xb5^-\x01\xa8>Q@'
p2907
tp2908
Rp2909
ag5
(g9
S'\n(\x15\xfd\xe3j\xc6?'
p2910
tp2911
Rp2912
asg18
S'Cn1ccnc1SCC(=O)Nc2ccc3c(c2)OCO3'
p2913
sg20
F11.49
sg21
(lp2914
F11.49
asg23
S'1363085'
p2915
sg25
(lp2916
g5
(g9
S'\x88\x93\x13\xd5`\x07\xf0?'
p2917
tp2918
Rp2919
ag5
(g9
S'\x84\x99\x9d_\xc8^\xa6?'
p2920
tp2921
Rp2922
asg33
(lp2923
g5
(g9
S'\x19\xafG\xfa>\x07\xf0?'
p2924
tp2925
Rp2926
ag2922
asg38
F6.37
sg39
(lp2927
F6.37
aF0.04
asg41
(lp2928
g5
(g9
S'\xd9z\x19u\x0f\x85O@'
p2929
tp2930
Rp2931
ag5
(g9
S'\xeby>\xdf\xf8\xb9\xc6?'
p2932
tp2933
Rp2934
asg49
(lp2935
g5
(g9
S'l\x0bC\x93\x18\xa6\xf0?'
p2936
tp2937
Rp2938
ag5
(g9
S'\x84\x99\x9d_\xc8^\xa6?'
p2939
tp2940
Rp2941
asg57
g5
(g9
S'y\x91h\xdcx\x13\xa1\xbf'
p2942
tp2943
Rp2944
sg61
(lp2945
g2919
ag2922
asg66
g67
(g68
(I0
tp2946
g70
tp2947
Rp2948
(I1
(I2
tp2949
g76
I00
S'l\x0bC\x93\x18\xa6\xf0?\x84\x99\x9d_\xc8^\xa6?'
p2950
tp2951
bsg81
(lp2952
g5
(g9
S'\x03r\xaa\x8f\xf3\xa5\xf0?'
p2953
tp2954
Rp2955
ag2922
asg83
(lp2956
g5
(g9
S'\xe0\xc6_\xcc|\x1d\xf0?'
p2957
tp2958
Rp2959
ag5
(g9
S'\x84\x99\x9d_\xc8^\xa6?'
p2960
tp2961
Rp2962
assS'SAMPL5_042'
p2963
(dp2964
g3
(lp2965
g5
(g9
S'\xf3\x1f(\xf1q:P@'
p2966
tp2967
Rp2968
ag5
(g9
S'}9\x97\xd1.\xd0\xc7?'
p2969
tp2970
Rp2971
asg18
S'c1ccc(cc1)c2ccccc2NC(=O)c3ccc(=O)[nH]n3'
p2972
sg20
F8.57
sg21
(lp2973
F11.33
aF8.57
asg23
S'1552842'
p2974
sg25
(lp2975
g5
(g9
S'*\x9e\xab-\xf6\xbe\xf5\xbf'
p2976
tp2977
Rp2978
ag5
(g9
S'|\xb5\xb1l\xdb\xc5\xa7?'
p2979
tp2980
Rp2981
asg33
(lp2982
g5
(g9
S'[\xf6\xf1@V3\xf6\xbf'
p2983
tp2984
Rp2985
ag2981
asg38
F0.5
sg39
(lp2986
F-1.73
aF0.5
asg41
(lp2987
g5
(g9
S'\x81\xdd\x87\xef\xf2*R@'
p2988
tp2989
Rp2990
ag5
(g9
S'N\xd0m\x1bE)\xc8?'
p2991
tp2992
Rp2993
asg49
(lp2994
g5
(g9
S'`k\xfe\x1e\xf6\xbe\xf5\xbf'
p2995
tp2996
Rp2997
ag5
(g9
S'|\xb5\xb1l\xdb\xc5\xa7?'
p2998
tp2999
Rp3000
asg57
g5
(g9
S'9\\\xce:\xd2\xb1\x98\xbf'
p3001
tp3002
Rp3003
sg61
(lp3004
g5
(g9
S'\x10\xb223V3\xf6\xbf'
p3005
tp3006
Rp3007
ag2981
asg66
g67
(g68
(I0
tp3008
g70
tp3009
Rp3010
(I1
(I2
tp3011
g76
I00
S'`k\xfe\x1e\xf6\xbe\xf5\xbf|\xb5\xb1l\xdb\xc5\xa7?'
p3012
tp3013
bsg81
(lp3014
g3007
ag2981
asg83
(lp3015
g5
(g9
S'\xd1\xa4\xe9g\xbd!\xf6\xbf'
p3016
tp3017
Rp3018
ag5
(g9
S'|\xb5\xb1l\xdb\xc5\xa7?'
p3019
tp3020
Rp3021
assS'SAMPL5_033'
p3022
(dp3023
g3
(lp3024
g5
(g9
S'\x00u\x01\x14\x9f\xecQ@'
p3025
tp3026
Rp3027
ag5
(g9
S'\xb9;\xa0*0\xd8\xca?'
p3028
tp3029
Rp3030
asg18
S'Cc1ccc(cc1NC(=O)N2CCCCC[C@@H]2c3cccs3)Cl'
p3031
sg20
F12.17
sg21
(lp3032
F12.17
asg23
S'16363773'
p3033
sg25
(lp3034
g5
(g9
S';\x18\xdc\t\t\x92\x0e@'
p3035
tp3036
Rp3037
ag5
(g9
S'\r\x95\x0c\xfb\xe5\x8d\xa6?'
p3038
tp3039
Rp3040
asg33
(lp3041
g5
(g9
S'Xw\xfb+\x05\x92\x0e@'
p3042
tp3043
Rp3044
ag3040
asg38
F2.72
sg39
(lp3045
F2.72
asg41
(lp3046
g5
(g9
S'\xc0<S\x92K\xf1H@'
p3047
tp3048
Rp3049
ag5
(g9
S'_\xe2\xbd\xcaV\xc1\xc1?'
p3050
tp3051
Rp3052
asg49
(lp3053
g5
(g9
S'q\xb8\xb2\xcb\r\x92\x0e@'
p3054
tp3055
Rp3056
ag5
(g9
S'\r\x95\x0c\xfb\xe5\x8d\xa6?'
p3057
tp3058
Rp3059
asg57
g5
(g9
S'\x00\x00\x00\x00\x00\x00\x00\x00'
p3060
tp3061
Rp3062
sg61
(lp3063
g3037
ag3040
asg66
g67
(g68
(I0
tp3064
g70
tp3065
Rp3066
(I1
(I2
tp3067
g76
I00
S'q\xb8\xb2\xcb\r\x92\x0e@\r\x95\x0c\xfb\xe5\x8d\xa6?'
p3068
tp3069
bsg81
(lp3070
g5
(g9
S'0\xcc\xcc\xed\t\x92\x0e@'
p3071
tp3072
Rp3073
ag3040
asg83
(lp3074
g5
(g9
S'q\xb8\xb2\xcb\r\x92\x0e@'
p3075
tp3076
Rp3077
ag5
(g9
S'\r\x95\x0c\xfb\xe5\x8d\xa6?'
p3078
tp3079
Rp3080
assS'SAMPL5_037'
p3081
(dp3082
g3
(lp3083
g5
(g9
S'B5\xe2\x06\x1f\x12G@'
p3084
tp3085
Rp3086
ag5
(g9
S'\x11\xab\xb9\xdbx\t\xc2?'
p3087
tp3088
Rp3089
asg18
S'CN(C)S(=O)(=O)N1CCNCC1'
p3090
sg20
Nsg21
(lp3091
sg23
S'833953'
p3092
sg25
(lp3093
g5
(g9
S'D>\xc44\xea\xe9\x14\xc0'
p3094
tp3095
Rp3096
ag5
(g9
S'\xa8(\xc1)\xc3\x9b\x9f?'
p3097
tp3098
Rp3099
asg33
(lp3100
g5
(g9
S'D>\xc44\xea\xe9\x14\xc0'
p3101
tp3102
Rp3103
ag3099
asg38
F7.81
sg39
(lp3104
F-1.5
aF-0.07
aF7.81
asg41
(lp3105
g5
(g9
S'\xa5*>V(5R@'
p3106
tp3107
Rp3108
ag5
(g9
S'M\xae\xa1\xe8\xaa\x13\xbb?'
p3109
tp3110
Rp3111
asg49
(lp3112
g5
(g9
S'!\xba\x91\xd2\xd3\xb8\x12\xc0'
p3113
tp3114
Rp3115
ag5
(g9
S'\xa8(\xc1)\xc3\x9b\x9f?'
p3116
tp3117
Rp3118
asg57
g5
(g9
S'\xfe\x07(\xdaPF\xe2\xbf'
p3119
tp3120
Rp3121
sg61
(lp3122
g3096
ag3099
asg66
g67
(g68
(I0
tp3123
g70
tp3124
Rp3125
(I1
(I2
tp3126
g76
I00
S'<\xd5\xac\xed\xee\xb3\x12\xc0\xa8(\xc1)\xc3\x9b\x9f?'
p3127
tp3128
bsg81
(lp3129
g5
(g9
S'<\xd5\xac\xed\xee\xb3\x12\xc0'
p3130
tp3131
Rp3132
ag3099
asg83
(lp3133
g5
(g9
S'<\xd6\xf1\x08\xb9\xfc\x14\xc0'
p3134
tp3135
Rp3136
ag5
(g9
S'\xa8(\xc1)\xc3\x9b\x9f?'
p3137
tp3138
Rp3139
ass.