(dp0
S'SAMPL5_017'
p1
(dp2
S'cyclohexane'
p3
(lp4
cnumpy.core.multiarray
scalar
p5
(cnumpy
dtype
p6
(S'f8'
p7
I0
I1
tp8
Rp9
(I3
S'<'
p10
NNNI-1
I-1
I0
tp11
bS'\xeaz\xaa44\x04R@'
p12
tp13
Rp14
ag5
(g9
S'\xec\xc6Vu\xc8\x08\xc8?'
p15
tp16
Rp17
asS'Smiles'
p18
S'c1ccc2c(c1)c(nc(n2)c3ccccc3O)NC4CCCC4'
p19
sS'pKa_acidic'
p20
F8.93
sS'LogD_calc'
p21
cnumpy.core.multiarray
_reconstruct
p22
(cnumpy
ndarray
p23
(I0
tp24
S'b'
p25
tp26
Rp27
(I1
(I2
tp28
g6
(S'f8'
p29
I0
I1
tp30
Rp31
(I3
S'<'
p32
NNNI-1
I-1
I0
tp33
bI00
S'\xf0;F\xcc\xd1\xff\x18@\x82\x10\xb9_\xdf\x01\xa4?'
p34
tp35
bsS'EmolID'
p36
S'2425478'
p37
sS'LogD_baseCorrected'
p38
(lp39
g5
(g9
S't\xfd\x9c\x1f\xbf\xf5\x18@'
p40
tp41
Rp42
ag5
(g9
S'\x82\x10\xb9_\xdf\x01\xa4?'
p43
tp44
Rp45
asS'LogD_bothCorrected'
p46
(lp47
g5
(g9
S'U/-\xfa\x18\xe9\x18@'
p48
tp49
Rp50
ag45
asS'Pickard'
p51
F-0.0006
sS'pKa_basic'
p52
F5.76
sS'Conj_Base'
p53
(lp54
F0.78
aF3.94
aF5.76
asS'water'
p55
(lp56
g5
(g9
S'~\x0e<\xc6!2B@'
p57
tp58
Rp59
ag5
(g9
S'Rs}1#\xd2\xbe?'
p60
tp61
Rp62
asS'logPickard'
p63
F-0.0004411764705882352
sS'logD_PickardCorrected'
p64
(lp65
g5
(g9
S'\xb0.l%^\xff\x18@'
p66
tp67
Rp68
ag5
(g9
S'\x82\x10\xb9_\xdf\x01\xa4?'
p69
tp70
Rp71
asS'StatePenaltyCorrection'
p72
g5
(g9
S'\xaelGu\xef^\xf2\xbf'
p73
tp74
Rp75
sS'LogD_oneCorrected'
p76
(lp77
g5
(g9
S'6|\xe0\x89\xe2\xf2\x18@'
p78
tp79
Rp80
ag45
asS'Conj_Acid'
p81
(lp82
F8.93
aF14.36
asS'LogD_acidCorrected'
p83
(lp84
g80
ag45
asS'logD_stateCorrected'
p85
(lp86
g5
(g9
S'\xc4`\xf4\xee\x15h\x14@'
p87
tp88
Rp89
ag5
(g9
S'\x82\x10\xb9_\xdf\x01\xa4?'
p90
tp91
Rp92
assS'SAMPL5_058'
p93
(dp94
g3
(lp95
g5
(g9
S'\xfb\xf4\xd7\xa7\xfd\xb6I@'
p96
tp97
Rp98
ag5
(g9
S'\x1f\xdf\x17\xf3(N\xc4?'
p99
tp100
Rp101
asg18
S'c1ccc(cc1)n2c(=O)c3ccccc3cn2'
p102
sg20
Nsg21
g22
(g23
(I0
tp103
g25
tp104
Rp105
(I1
(I2
tp106
g31
I00
S'\xd0\x00\xbe\xa438\xee?\xdfk\xd5Dv\xfb\xa0?'
p107
tp108
bsg36
S'3730323'
p109
sg38
(lp110
g5
(g9
S'O\x8ea\xa438\xee?'
p111
tp112
Rp113
ag5
(g9
S'\xdfk\xd5Dv\xfb\xa0?'
p114
tp115
Rp116
asg46
(lp117
g5
(g9
S'O\x8ea\xa438\xee?'
p118
tp119
Rp120
ag116
asg51
F0.0
sg52
F-1.41
sg53
(lp121
F-1.41
asg55
(lp122
g5
(g9
S'\x9c\xbd\x19\x84\x04\x05G@'
p123
tp124
Rp125
ag5
(g9
S'G\xefP\x9e\x80t\xba?'
p126
tp127
Rp128
asg63
F0.0
sg64
(lp129
g5
(g9
S'\xd0\x00\xbe\xa438\xee?'
p130
tp131
Rp132
ag5
(g9
S'\xdfk\xd5Dv\xfb\xa0?'
p133
tp134
Rp135
asg72
g5
(g9
S'\x00\x00\x00\x00\x00\x00\x00\x00'
p136
tp137
Rp138
sg76
(lp139
g113
ag116
asg81
(lp140
sg83
(lp141
g5
(g9
S'\xd0\x00\xbe\xa438\xee?'
p142
tp143
Rp144
ag116
asg85
(lp145
g5
(g9
S'\xd0\x00\xbe\xa438\xee?'
p146
tp147
Rp148
ag5
(g9
S'\xdfk\xd5Dv\xfb\xa0?'
p149
tp150
Rp151
assS'SAMPL5_059'
p152
(dp153
g3
(lp154
g5
(g9
S'6\x02\xa7\xa2\x1e\tE@'
p155
tp156
Rp157
ag5
(g9
S'w\xd4D~\x10\x03\xc0?'
p158
tp159
Rp160
asg18
S'c1ccc(cc1)c2nc(sn2)N'
p161
sg20
F13.54
sg21
g22
(g23
(I0
tp162
g25
tp163
Rp164
(I1
(I2
tp165
g31
I00
S'\xb5$5&\xa8"\xe5\xbf\x14;\xb8\xb1\xd8\x92\x9b?'
p166
tp167
bsg36
S'711981'
p168
sg38
(lp169
g5
(g9
S'\xc0\xe3\xc7\xdb\xd6"\xe5\xbf'
p170
tp171
Rp172
ag5
(g9
S'\x14;\xb8\xb1\xd8\x92\x9b?'
p173
tp174
Rp175
asg46
(lp176
g5
(g9
S'\xd3\x7f\xae\x84\xd7"\xe5\xbf'
p177
tp178
Rp179
ag175
asg51
F0.0
sg52
F3.11
sg53
(lp180
F-0.4
aF3.11
aF-0.16
asg55
(lp181
g5
(g9
S'\xb2\x05\x15\xe1\xae\xebF@'
p182
tp183
Rp184
ag5
(g9
S'\xb3\xf7\x92%\xd6\xdc\xb6?'
p185
tp186
Rp187
asg63
F0.0
sg64
(lp188
g5
(g9
S'\xb5$5&\xa8"\xe5\xbf'
p189
tp190
Rp191
ag5
(g9
S'\x14;\xb8\xb1\xd8\x92\x9b?'
p192
tp193
Rp194
asg72
g5
(g9
S'\x00\x00\x00\x00\x00\x00\x00\x00'
p195
tp196
Rp197
sg76
(lp198
g172
ag175
asg81
(lp199
F13.54
aF13.54
asg83
(lp200
g5
(g9
S'y\xf8\x1d\xcf\xa8"\xe5\xbf'
p201
tp202
Rp203
ag175
asg85
(lp204
g5
(g9
S'\xb5$5&\xa8"\xe5\xbf'
p205
tp206
Rp207
ag5
(g9
S'\x14;\xb8\xb1\xd8\x92\x9b?'
p208
tp209
Rp210
assS'SAMPL5_013'
p211
(dp212
g3
(lp213
g5
(g9
S'\x13\xa8NJu\xe1T@'
p214
tp215
Rp216
ag5
(g9
S'v\xd9\x00\x03d\x0e\xca?'
p217
tp218
Rp219
asg18
S'Cc1ccc(cc1)c2nc(c3c(n2)n(c(=O)[nH]3)c4ccccc4)C(=O)N'
p220
sg20
F7.37
sg21
g22
(g23
(I0
tp221
g25
tp222
Rp223
(I1
(I2
tp224
g31
I00
S'a\xac\x7f\x88z\xa4\xf1?sUi*.w\xa5?'
p225
tp226
bsg36
S'16095985'
p227
sg38
(lp228
g5
(g9
S'Wg!yz\xa4\xf1?'
p229
tp230
Rp231
ag5
(g9
S'sUi*.w\xa5?'
p232
tp233
Rp234
asg46
(lp235
g5
(g9
S'\x1d\xb7S\xee\xea)\xe9?'
p236
tp237
Rp238
ag234
asg51
F0.0
sg52
F0.52
sg53
(lp239
F0.52
aF0.12
aF-2.93
asg55
(lp240
g5
(g9
S'nD\x9b\xf1\xa4NS@'
p241
tp242
Rp243
ag5
(g9
S'\xdd(w\xa1\xbf\x1a\xc0?'
p244
tp245
Rp246
asg63
F0.0
sg64
(lp247
g5
(g9
S'a\xac\x7f\x88z\xa4\xf1?'
p248
tp249
Rp250
ag5
(g9
S'sUi*.w\xa5?'
p251
tp252
Rp253
asg72
g5
(g9
S'\xa2]\x82\x1e\xa9\xd2,\xbf'
p254
tp255
Rp256
sg76
(lp257
g5
(g9
S"}'*\xfd\xea)\xe9?"
p258
tp259
Rp260
ag234
asg81
(lp261
F10.75
aF10.75
aF7.37
asg83
(lp262
g260
ag234
asg85
(lp263
g5
(g9
S'N\xb86\xf3\x93\xa3\xf1?'
p264
tp265
Rp266
ag5
(g9
S'sUi*.w\xa5?'
p267
tp268
Rp269
assS'SAMPL5_010'
p270
(dp271
g3
(lp272
g5
(g9
S'\xa1\xbf\x08\xe2P\x81K@'
p273
tp274
Rp275
ag5
(g9
S'\x80\xed\x92\xcd%d\xc3?'
p276
tp277
Rp278
asg18
S'c1cc(cc(c1)NCc2ccncc2)C(=O)O'
p279
sg20
F4.33
sg21
g22
(g23
(I0
tp280
g25
tp281
Rp282
(I1
(I2
tp283
g31
I00
S'\x86\x88\xadWo:\xf6\xbf\xc0%\xb6\x12\xe3\xac\xa0?'
p284
tp285
bsg36
S'1491855'
p286
sg38
(lp287
g5
(g9
S'\xea\x03/\xb5\x91K\xf7\xbf'
p288
tp289
Rp290
ag5
(g9
S'\xc0%\xb6\x12\xe3\xac\xa0?'
p291
tp292
Rp293
asg46
(lp294
g5
(g9
S'\x1cMS\xd7\xba\xd6\x11\xc0'
p295
tp296
Rp297
ag293
asg51
F-2.7875
sg52
F6.62
sg53
(lp298
F2.63
aF6.62
asg55
(lp299
g5
(g9
S'<\xf1\xc0+YxO@'
p300
tp301
Rp302
ag5
(g9
S'\x86\x82\xd7L|\x95\xbb?'
p303
tp304
Rp305
asg63
F-2.049632352941176
sg64
(lp306
g5
(g9
S'\xe8i|Q\xdd\x82\x0b\xc0'
p307
tp308
Rp309
ag5
(g9
S'\xc0%\xb6\x12\xe3\xac\xa0?'
p310
tp311
Rp312
asg72
g5
(g9
S'7\xe6\xabtm\xb1\n\xc0'
p313
tp314
Rp315
sg76
(lp316
g5
(g9
S'^PF\xc6\xaa\xd6\x11\xc0'
p317
tp318
Rp319
ag293
asg81
(lp320
F4.33
aF14.68
asg83
(lp321
g319
ag293
asg85
(lp322
g5
(g9
S'=UA\x90R\xe7\x12\xc0'
p323
tp324
Rp325
ag5
(g9
S'\xc0%\xb6\x12\xe3\xac\xa0?'
p326
tp327
Rp328
assS'SAMPL5_011'
p329
(dp330
g3
(lp331
g5
(g9
S'\xb2\xb4\xd9\x81\xc3`M@'
p332
tp333
Rp334
ag5
(g9
S')\xeb\xa2\xfc\xf7\xde\xc4?'
p335
tp336
Rp337
asg18
S'Cc1cc(nc(n1)Nc2ccccc2C(=O)O)C'
p338
sg20
F4.57
sg21
g22
(g23
(I0
tp339
g25
tp340
Rp341
(I1
(I2
tp342
g31
I00
S'M\xae\\\xeb\xd2}\xfb?\xa2\x85a\xc9Ih\xa1?'
p343
tp344
bsg36
S'542592'
p345
sg38
(lp346
g5
(g9
S'\x14B\xbc-"{\xfb?'
p347
tp348
Rp349
ag5
(g9
S'\xa2\x85a\xc9Ih\xa1?'
p350
tp351
Rp352
asg46
(lp353
g5
(g9
S'\xdd\x9a\xd5@}\xcc\xf1\xbf'
p354
tp355
Rp356
ag352
asg51
F-3.9355
sg52
F4.58
sg53
(lp357
F4.58
aF4.58
asg55
(lp358
g5
(g9
S'(tg\xfccyH@'
p359
tp360
Rp361
ag5
(g9
S'Bx\x11\xa2\xba\xf0\xba?'
p362
tp363
Rp364
asg63
F-2.89375
sg64
(lp365
g5
(g9
S'\x7f\x1ep\xe1\xf9\xce\xf2\xbf'
p366
tp367
Rp368
ag5
(g9
S'\xa2\x85a\xc9Ih\xa1?'
p369
tp370
Rp371
asg72
g5
(g9
S'\xda\xf0\xb2\x1a^/\x08\xc0'
p372
tp373
Rp374
sg76
(lp375
g5
(g9
S'J\xde:<|\xcc\xf1\xbf'
p376
tp377
Rp378
ag352
asg81
(lp379
F4.57
aF12.85
asg83
(lp380
g378
ag352
asg85
(lp381
g5
(g9
S'g3\tJ\xe9\xe0\xf4\xbf'
p382
tp383
Rp384
ag5
(g9
S'\xa2\x85a\xc9Ih\xa1?'
p385
tp386
Rp387
assS'SAMPL5_074'
p388
(dp389
g3
(lp390
g5
(g9
S'\t\x18l\x00\xb2\x8aQ@'
p391
tp392
Rp393
ag5
(g9
S'\xe6\xbb\xab\xf8X(\xc4?'
p394
tp395
Rp396
asg18
S'c1nc(c2c(n1)n(cn2)[C@H]3[C@@H]([C@@H]([C@H](O3)CO)O)O)N'
p397
sg20
F12.0
sg21
g22
(g23
(I0
tp398
g25
tp399
Rp400
(I1
(I2
tp401
g31
I00
S'\x9c+T\xe8z\x13\x0e\xc0N\xcb\xba\xda\x8d\xb0\xa4?'
p402
tp403
bsg36
S''
p404
sg38
(lp405
g5
(g9
S'U"\x1a}\xcf\x13\x0e\xc0'
p406
tp407
Rp408
ag5
(g9
S'N\xcb\xba\xda\x8d\xb0\xa4?'
p409
tp410
Rp411
asg46
(lp412
g5
(g9
S'\x9d\x0f\xb84\xd5\x13\x0e\xc0'
p413
tp414
Rp415
ag411
asg51
F0.0
sg52
F3.97
sg53
(lp416
F2.92
aF3.97
aF-0.4
aF-0.69
aF-1.84
aF-2.3
asg55
(lp417
g5
(g9
S'\x141Bl\x17\xe8V@'
p418
tp419
Rp420
ag5
(g9
S'\xb0\x0c\xc5\xfei\x92\xc5?'
p421
tp422
Rp423
asg63
F0.0
sg64
(lp424
g5
(g9
S'\x9c+T\xe8z\x13\x0e\xc0'
p425
tp426
Rp427
ag5
(g9
S'N\xcb\xba\xda\x8d\xb0\xa4?'
p428
tp429
Rp430
asg72
g5
(g9
S'\x00\x00\x00\x00\x00\x00\x00\x00'
p431
tp432
Rp433
sg76
(lp434
g408
ag411
asg81
(lp435
F14.06
aF12.6
aF12.0
aF13.04
aF13.04
asg83
(lp436
g5
(g9
S'\xf4M}\xa0\x80\x13\x0e\xc0'
p437
tp438
Rp439
ag411
asg85
(lp440
g5
(g9
S'\x9c+T\xe8z\x13\x0e\xc0'
p441
tp442
Rp443
ag5
(g9
S'N\xcb\xba\xda\x8d\xb0\xa4?'
p444
tp445
Rp446
assS'SAMPL5_075'
p447
(dp448
g3
(lp449
g5
(g9
S'=/\xd8\xeb\xc5\xfaL@'
p450
tp451
Rp452
ag5
(g9
S'\xd7\xaf\x8f\x01C\x0e\xc9?'
p453
tp454
Rp455
asg18
S'CC(C)NC[C@@H](COc1ccc(cc1)CCOC)O'
p456
sg20
F13.32
sg21
g22
(g23
(I0
tp457
g25
tp458
Rp459
(I1
(I2
tp460
g31
I00
S'\x05\xe5\xa7\x8c\xdd\xd8\x04@\xd3D\xcf\xb5\x05\xaf\xa6?'
p461
tp462
bsg36
g404
sg38
(lp463
g5
(g9
S'\x104\xdb\xe1[\xfe\xe7?'
p464
tp465
Rp466
ag5
(g9
S'\xd3D\xcf\xb5\x05\xaf\xa6?'
p467
tp468
Rp469
asg46
(lp470
g5
(g9
S'u\xa8\xf3\xdd[\xfe\xe7?'
p471
tp472
Rp473
ag469
asg51
F-0.4576
sg52
F9.25
sg53
(lp474
F9.25
aF-1.29
asg55
(lp475
g5
(g9
S'\x92w\x99,\xd8\x8aE@'
p476
tp477
Rp478
ag5
(g9
S'\xc5j5\xedx~\xc4?'
p479
tp480
Rp481
asg63
F-0.3364705882352941
sg64
(lp482
g5
(g9
S"T\x9a\xc3\x0e\xc6'\x02@"
p483
tp484
Rp485
ag5
(g9
S'\xd3D\xcf\xb5\x05\xaf\xa6?'
p486
tp487
Rp488
asg72
g5
(g9
S'F\xb3\x9e\x1aX\xb1\xff\xbf'
p489
tp490
Rp491
sg76
(lp492
g466
ag469
asg81
(lp493
F13.32
asg83
(lp494
g5
(g9
S'\xd5k\x93F\xdd\xd8\x04@'
p495
tp496
Rp497
ag469
asg85
(lp498
g5
(g9
S'\x88-b\xfd\xc5\x00\xe4?'
p499
tp500
Rp501
ag5
(g9
S'\xd3D\xcf\xb5\x05\xaf\xa6?'
p502
tp503
Rp504
assS'SAMPL5_050'
p505
(dp506
g3
(lp507
g5
(g9
S'6D\xa0\xa4\x90bK@'
p508
tp509
Rp510
ag5
(g9
S'\x8a\xe0\xa3\x82%\xea\xc2?'
p511
tp512
Rp513
asg18
S'Cc1ccc2c(n1)nn3c2nc(cc3O)C'
p514
sg20
F-3.58
sg21
g22
(g23
(I0
tp515
g25
tp516
Rp517
(I1
(I2
tp518
g31
I00
S'\x10\x1d\xa5\x9f\xa31\xf3?\xac\x927\x83u\xea\xa3?'
p519
tp520
bsg36
S'5663556'
p521
sg38
(lp522
g5
(g9
S'\xb1\x19\xe5]\x971\xf3?'
p523
tp524
Rp525
ag5
(g9
S'\xac\x927\x83u\xea\xa3?'
p526
tp527
Rp528
asg46
(lp529
g5
(g9
S'T\x8fg\x1b\x8e\x8f#\xc0'
p530
tp531
Rp532
ag528
asg51
F-8.5884
sg52
F2.83
sg53
(lp533
F0.35
aF2.83
asg55
(lp534
g5
(g9
S'r\xe4r\xfe\x17\xf6G@'
p535
tp536
Rp537
ag5
(g9
S'\x0e\x16\xfd\x0b)6\xc5?'
p538
tp539
Rp540
asg63
F-6.3149999999999995
sg64
(lp541
g5
(g9
S'~\xae?t&v\x14\xc0'
p542
tp543
Rp544
ag5
(g9
S'\xac\x927\x83u\xea\xa3?'
p545
tp546
Rp547
asg72
g5
(g9
S"\xd4~G\xd5\xa3\xcd'\xc0"
p548
tp549
Rp550
sg76
(lp551
g5
(g9
S'T\x8fg\x1b\x8e\x8f#\xc0'
p552
tp553
Rp554
ag528
asg81
(lp555
F-3.58
asg83
(lp556
g554
ag528
asg85
(lp557
g5
(g9
S'2\xdbRaog%\xc0'
p558
tp559
Rp560
ag5
(g9
S'\xac\x927\x83u\xea\xa3?'
p561
tp562
Rp563
assS'SAMPL5_056'
p564
(dp565
g3
(lp566
g5
(g9
S'\xad\x11%\x9e\xbe\xefK@'
p567
tp568
Rp569
ag5
(g9
S'7P\xb5l"\xd8\xc4?'
p570
tp571
Rp572
asg18
S'CC(C)[C@@H]1Cc2c(cc(c(n2)O)C#N)CO1'
p573
sg20
F3.26
sg21
g22
(g23
(I0
tp574
g25
tp575
Rp576
(I1
(I2
tp577
g31
I00
S'\xa6\xb7{I\x91\x89\x05@\x15\xbf)^\xa6$\xa1?'
p578
tp579
bsg36
g404
sg38
(lp580
g5
(g9
S'\xd8\xbf\x0fE\x91\x89\x05@'
p581
tp582
Rp583
ag5
(g9
S'\x15\xbf)^\xa6$\xa1?'
p584
tp585
Rp586
asg46
(lp587
g5
(g9
S'\x8d\x9a\x0b\x0eo*\xf7\xbf'
p588
tp589
Rp590
ag586
asg51
F-3.961
sg52
F0.28
sg53
(lp591
F0.28
asg55
(lp592
g5
(g9
S'C\xe74\x01\xc7@D@'
p593
tp594
Rp595
ag5
(g9
S'Sh\x10\x0e4\x9c\xb9?'
p596
tp597
Rp598
asg63
F-2.9124999999999996
sg64
(lp599
g5
(g9
S'`R\x115\xb83\xcc\xbf'
p600
tp601
Rp602
ag5
(g9
S'\x15\xbf)^\xa6$\xa1?'
p603
tp604
Rp605
asg72
g5
(g9
S'\x19\x9b\x92\xff\x00\xb1\x13\xc0'
p606
tp607
Rp608
sg76
(lp609
g5
(g9
S'\x91p\x0b\x0eo*\xf7\xbf'
p610
tp611
Rp612
ag586
asg81
(lp613
F3.26
asg83
(lp614
g612
ag586
asg85
(lp615
g5
(g9
S'\x8c~\xa9\xb5p\xd8\x01\xc0'
p616
tp617
Rp618
ag5
(g9
S'\x15\xbf)^\xa6$\xa1?'
p619
tp620
Rp621
assS'SAMPL5_071'
p622
(dp623
g3
(lp624
g5
(g9
S'\x87?,\xcb\xdd\x96M@'
p625
tp626
Rp627
ag5
(g9
S'\x0b?\x82\x89=\x98\xc7?'
p628
tp629
Rp630
asg18
S'CCOc1cc(c(cc1N2CCOCC2)OCC)N'
p631
sg20
F15.55
sg21
g22
(g23
(I0
tp632
g25
tp633
Rp634
(I1
(I2
tp635
g31
I00
S'\x00z\xc5~\x9f%\xe9?\xbf\xbd\xc6\x03\xf3\xd2\xa3?'
p636
tp637
bsg36
g404
sg38
(lp638
g5
(g9
S'\xec\x7f\xba\xe5#$\xe9?'
p639
tp640
Rp641
ag5
(g9
S'\xbf\xbd\xc6\x03\xf3\xd2\xa3?'
p642
tp643
Rp644
asg46
(lp645
g5
(g9
S'4\x1c\x14\xe4#$\xe9?'
p646
tp647
Rp648
ag644
asg51
F0.0
sg52
F4.02
sg53
(lp649
F4.02
aF3.98
asg55
(lp650
g5
(g9
S'\xed\xed_\xd5\xb5XK@'
p651
tp652
Rp653
ag5
(g9
S'\xfbf\xb9X]6\xbf?'
p654
tp655
Rp656
asg63
F0.0
sg64
(lp657
g5
(g9
S'\x00z\xc5~\x9f%\xe9?'
p658
tp659
Rp660
ag5
(g9
S'\xbf\xbd\xc6\x03\xf3\xd2\xa3?'
p661
tp662
Rp663
asg72
g5
(g9
S'\x00\x00\x00\x00\x00\x00\x00\x00'
p664
tp665
Rp666
sg76
(lp667
g641
ag644
asg81
(lp668
F15.55
aF15.55
asg83
(lp669
g5
(g9
S'4\xe9\x1e}\x9f%\xe9?'
p670
tp671
Rp672
ag644
asg85
(lp673
g5
(g9
S'\x00z\xc5~\x9f%\xe9?'
p674
tp675
Rp676
ag5
(g9
S'\xbf\xbd\xc6\x03\xf3\xd2\xa3?'
p677
tp678
Rp679
assS'SAMPL5_072'
p680
(dp681
g3
(lp682
g5
(g9
S'\x1c\xb4\xd4(\xfbJJ@'
p683
tp684
Rp685
ag5
(g9
S'H]H\x9e\xbe\x97\xc8?'
p686
tp687
Rp688
asg18
S'CN(C)CCOC(c1ccccc1)c2ccccc2'
p689
sg20
Nsg21
g22
(g23
(I0
tp690
g25
tp691
Rp692
(I1
(I2
tp693
g31
I00
S'7Z\x19\x1a\xe0R\x0c@:\x96:\x03V@\xa5?'
p694
tp695
bsg36
g404
sg38
(lp696
g5
(g9
S'\x08\x84\x84\xb6\x07\t\x03@'
p697
tp698
Rp699
ag5
(g9
S':\x96:\x03V@\xa5?'
p700
tp701
Rp702
asg46
(lp703
g5
(g9
S'\x08\x84\x84\xb6\x07\t\x03@'
p704
tp705
Rp706
ag702
asg51
F-0.6511
sg52
F8.53
sg53
(lp707
F8.53
asg55
(lp708
g5
(g9
S'\xb9\x9e\xb1\x87:0@@'
p709
tp710
Rp711
ag5
(g9
S'\x01}o\x8bh\xbe\xc1?'
p712
tp713
Rp714
asg63
F-0.47874999999999995
sg64
(lp715
g5
(g9
S'#\xac\xd18e~\x08@'
p716
tp717
Rp718
ag5
(g9
S':\x96:\x03V@\xa5?'
p719
tp720
Rp721
asg72
g5
(g9
S'\xf6;o\xa3L\xab\xf3\xbf'
p722
tp723
Rp724
sg76
(lp725
g699
ag702
asg81
(lp726
sg83
(lp727
g5
(g9
S'7Z\x19\x1a\xe0R\x0c@'
p728
tp729
Rp730
ag702
asg85
(lp731
g5
(g9
S'<\xbca\xc89}\x02@'
p732
tp733
Rp734
ag5
(g9
S':\x96:\x03V@\xa5?'
p735
tp736
Rp737
assS'SAMPL5_019'
p738
(dp739
g3
(lp740
g5
(g9
S'\xa3}2\x82V\xcfQ@'
p741
tp742
Rp743
ag5
(g9
S'\xb9&\xc5M\xab\x07\xc8?'
p744
tp745
Rp746
asg18
S'Cc1ccc(cc1)Nc2ccnc(n2)Nc3ccc(cc3)C'
p747
sg20
F13.18
sg21
g22
(g23
(I0
tp748
g25
tp749
Rp750
(I1
(I2
tp751
g31
I00
S'\x9c.\xec4\xbd\x11\x07@\xd7"\x90\x03F\xf6\xa3?'
p752
tp753
bsg36
S'43423819'
p754
sg38
(lp755
g5
(g9
S'Ck,*\n\x08\x07@'
p756
tp757
Rp758
ag5
(g9
S'\xd7"\x90\x03F\xf6\xa3?'
p759
tp760
Rp761
asg46
(lp762
g5
(g9
S'\xadE|\xca\t\x08\x07@'
p763
tp764
Rp765
ag761
asg51
F0.0
sg52
F5.44
sg53
(lp766
F-2.3
aF-1.51
aF5.44
aF3.76
asg55
(lp767
g5
(g9
S'p#y\x1f\xcdcK@'
p768
tp769
Rp770
ag5
(g9
S']\x86A1#\x98\xbe?'
p771
tp772
Rp773
asg63
F0.0
sg64
(lp774
g5
(g9
S'\x9c.\xec4\xbd\x11\x07@'
p775
tp776
Rp777
ag5
(g9
S'\xd7"\x90\x03F\xf6\xa3?'
p778
tp779
Rp780
asg72
g5
(g9
S'\xa2]\x82\x1e\xa9\xd2l\xbf'
p781
tp782
Rp783
sg76
(lp784
g758
ag761
asg81
(lp785
F13.24
aF13.18
asg83
(lp786
g5
(g9
S'\xc9p/\xd4\xbc\x11\x07@'
p787
tp788
Rp789
ag761
asg85
(lp790
g5
(g9
S'\x05\x8e\xa4\x8a\x88\n\x07@'
p791
tp792
Rp793
ag5
(g9
S'\xd7"\x90\x03F\xf6\xa3?'
p794
tp795
Rp796
assS'SAMPL5_015'
p797
(dp798
g3
(lp799
g5
(g9
S'9\xa7\x84\xb1\x98\xa8K@'
p800
tp801
Rp802
ag5
(g9
S'L5z;\x90\xd1\xc2?'
p803
tp804
Rp805
asg18
S'Cc1ccc2c(c1)c(ncn2)NCC(=O)O'
p806
sg20
F4.44
sg21
g22
(g23
(I0
tp807
g25
tp808
Rp809
(I1
(I2
tp810
g31
I00
S"\xcb\xa5\xbf\xd7\x0f\xdd\xea\xbf\xf8+\xcd\x87\x9d'\xa0?"
p811
tp812
bsg36
S'1355949'
p813
sg38
(lp814
g5
(g9
S'\xff\xba\xbf\xb7Z7\xeb\xbf'
p815
tp816
Rp817
ag5
(g9
S"\xf8+\xcd\x87\x9d'\xa0?"
p818
tp819
Rp820
asg46
(lp821
g5
(g9
S'v\xfb\x8c`Xf\x0e\xc0'
p822
tp823
Rp824
ag820
asg51
F-3.7814
sg52
F5.81
sg53
(lp825
F-1.33
aF3.87
aF5.81
asg55
(lp826
g5
(g9
S'w\xcd\x90\xee\xf1\rN@'
p827
tp828
Rp829
ag5
(g9
S'v\xb9\x16l^\xa1\xba?'
p830
tp831
Rp832
asg63
F-2.780441176470588
sg64
(lp833
g5
(g9
S'1\x0e{\xe7\x9b\xf5\x0c\xc0'
p834
tp835
Rp836
ag5
(g9
S"\xf8+\xcd\x87\x9d'\xa0?"
p837
tp838
Rp839
asg72
g5
(g9
S"6\x17\x19@'X\t\xc0"
p840
tp841
Rp842
sg76
(lp843
g5
(g9
S'R\x88\x89\xf7Qf\x0e\xc0'
p844
tp845
Rp846
ag820
asg81
(lp847
F4.44
aF12.6
asg83
(lp848
g846
ag820
asg85
(lp849
g5
(g9
S'T\x80\x04\x9b\xb5\x07\x10\xc0'
p850
tp851
Rp852
ag5
(g9
S"\xf8+\xcd\x87\x9d'\xa0?"
p853
tp854
Rp855
assS'SAMPL5_065'
p856
(dp857
g3
(lp858
g5
(g9
S'C\xb4\x15\x0c<\xa3`@'
p859
tp860
Rp861
ag5
(g9
S'\xbf0zB\xf5\xe2\xd3?'
p862
tp863
Rp864
asg18
S'COc1ccc2c(c1)[nH]c3c2CC[N@]4[C@@H]3C[C@H]5[C@@H](C4)C[C@H]([C@@H]([C@H]5C(=O)OC)OC)OC(=O)c6cc(c(c(c6)OC)OC)OC'
p865
sg20
Nsg21
g22
(g23
(I0
tp866
g25
tp867
Rp868
(I1
(I2
tp869
g31
I00
S'\x90\xact\x8aJ\xc9\x05@t\xbeL\x19\x87*\xb0?'
p870
tp871
bsg36
g404
sg38
(lp872
g5
(g9
S'\xca\xd8a[no\xfe?'
p873
tp874
Rp875
ag5
(g9
S't\xbeL\x19\x87*\xb0?'
p876
tp877
Rp878
asg46
(lp879
g5
(g9
S'\xca\xd8a[no\xfe?'
p880
tp881
Rp882
ag878
asg51
F-0.1986
sg52
F8.15
sg53
(lp883
F-1.05
aF8.15
asg55
(lp884
g5
(g9
S'\xc2K\x83h\x9ec]@'
p885
tp886
Rp887
ag5
(g9
S']H\xc6\xd9gb\xc7?'
p888
tp889
Rp890
asg63
F-0.14602941176470588
sg64
(lp891
g5
(g9
S'\xe5g\x96\x129\x9e\x04@'
p892
tp893
Rp894
ag5
(g9
S't\xbeL\x19\x87*\xb0?'
p895
tp896
Rp897
asg72
g5
(g9
S'\x85\xc2\xde\xf3?\xc9\xeb\xbf'
p898
tp899
Rp900
sg76
(lp901
g875
ag878
asg81
(lp902
sg83
(lp903
g5
(g9
S'\x90\xact\x8aJ\xc9\x05@'
p904
tp905
Rp906
ag878
asg85
(lp907
g5
(g9
S'\xde\xf7\xf9\x1a\xf5\xad\xfd?'
p908
tp909
Rp910
ag5
(g9
S't\xbeL\x19\x87*\xb0?'
p911
tp912
Rp913
assS'SAMPL5_085'
p914
(dp915
g3
(lp916
g5
(g9
S'\xb3,\xa9={\xc1L@'
p917
tp918
Rp919
ag5
(g9
S'F\xa7\xda\xda\x01I\xc5?'
p920
tp921
Rp922
asg18
S'c1ccc(cc1)C2(C(=O)NC(=O)N2)c3ccccc3'
p923
sg20
F7.8
sg21
g22
(g23
(I0
tp924
g25
tp925
Rp926
(I1
(I2
tp927
g31
I00
S'\xa9\x05\x93~iC\x00\xc0\xc6\xe6\xb7\x1a\xa0\xee\xa1?'
p928
tp929
bsg36
g404
sg38
(lp930
g5
(g9
S'\rb\xb3nkC\x00\xc0'
p931
tp932
Rp933
ag5
(g9
S'\xc6\xe6\xb7\x1a\xa0\xee\xa1?'
p934
tp935
Rp936
asg46
(lp937
g5
(g9
S'\xc9\x9a\xb8\xff{m\x01\xc0'
p938
tp939
Rp940
ag936
asg51
F-0.0777
sg52
F2.33
sg53
(lp941
F2.33
asg55
(lp942
g5
(g9
S'\xcf\xa3\x93\xddcGQ@'
p943
tp944
Rp945
ag5
(g9
S'\xe0\x1bF\x95Sh\xbc?'
p946
tp947
Rp948
asg63
F-0.05713235294117647
sg64
(lp949
g5
(g9
S'\xdem.Mk\xb8\x00\xc0'
p950
tp951
Rp952
ag5
(g9
S'\xc6\xe6\xb7\x1a\xa0\xee\xa1?'
p953
tp954
Rp955
asg72
g5
(g9
S'3\xd5\x8c\xb6\xcf\xc2\xc1\xbf'
p956
tp957
Rp958
sg76
(lp959
g5
(g9
S'=j\xdd\x9czm\x01\xc0'
p960
tp961
Rp962
ag936
asg81
(lp963
F7.8
aF9.9
asg83
(lp964
g962
ag936
asg85
(lp965
g5
(g9
S'\xfc\xd2\xfby\x96_\x01\xc0'
p966
tp967
Rp968
ag5
(g9
S'\xc6\xe6\xb7\x1a\xa0\xee\xa1?'
p969
tp970
Rp971
assS'SAMPL5_084'
p972
(dp973
g3
(lp974
g5
(g9
S'\xaf=i\x8c{YR@'
p975
tp976
Rp977
ag5
(g9
S'\x80R\x16\xd5x\xdb\xce?'
p978
tp979
Rp980
asg18
S'c1cc(ccc1C(=O)CCCN2CCC(CC2)(c3ccc(cc3)Cl)O)F'
p981
sg20
F15.03
sg21
g22
(g23
(I0
tp982
g25
tp983
Rp984
(I1
(I2
tp985
g31
I00
S'\x99\x0f@\x82\x8b\xe1\t@"\x92\xa6\x07\xae5\xb4?'
p986
tp987
bsg36
g404
sg38
(lp988
g5
(g9
S'@\rN\xe03Q\xfe?'
p989
tp990
Rp991
ag5
(g9
S'"\x92\xa6\x07\xae5\xb4?'
p992
tp993
Rp994
asg46
(lp995
g5
(g9
S'`\x18.\xe03Q\xfe?'
p996
tp997
Rp998
ag994
asg51
F-2.7626
sg52
F8.72
sg53
(lp999
F8.72
aF-0.08
asg55
(lp1000
g5
(g9
S'\xd2$r\xb4LwK@'
p1001
tp1002
Rp1003
ag5
(g9
S'|RH|x]\xd8?'
p1004
tp1005
Rp1006
asg63
F-2.0313235294117646
sg64
(lp1007
g5
(g9
S'\xb2k\x99\xea\xc9B\xf3?'
p1008
tp1009
Rp1010
ag5
(g9
S'"\x92\xa6\x07\xae5\xb4?'
p1011
tp1012
Rp1013
asg72
g5
(g9
S'\xfe*Y1\xbc\xcb\xf6\xbf'
p1014
tp1015
Rp1016
sg76
(lp1017
g991
ag994
asg81
(lp1018
F15.03
asg83
(lp1019
g5
(g9
S'\xd7?\xe2\x80\x8b\xe1\t@'
p1020
tp1021
Rp1022
ag994
asg85
(lp1023
g5
(g9
S'4\xf4&\xd3Z\xf7\xfc?'
p1024
tp1025
Rp1026
ag5
(g9
S'"\x92\xa6\x07\xae5\xb4?'
p1027
tp1028
Rp1029
assS'SAMPL5_086'
p1030
(dp1031
g3
(lp1032
g5
(g9
S'\x8c\xd6\xe5\xa6\x04\x01S@'
p1033
tp1034
Rp1035
ag5
(g9
S'\xc6t\xbe\xb5\xdc\xf5\xcd?'
p1036
tp1037
Rp1038
asg18
S'CCCCOc1cc(c2ccccc2n1)C(=O)NCCN(CC)CC'
p1039
sg20
F11.73
sg21
g22
(g23
(I0
tp1040
g25
tp1041
Rp1042
(I1
(I2
tp1043
g31
I00
S'\x8b\xc6U\xc9\x0fR\x08@\x15\xc6sZD\x7f\xac?'
p1044
tp1045
bsg36
g404
sg38
(lp1046
g5
(g9
S'\xeb]c\xdf\xb9\xe3\xf8?'
p1047
tp1048
Rp1049
ag5
(g9
S'\x15\xc6sZD\x7f\xac?'
p1050
tp1051
Rp1052
asg46
(lp1053
g5
(g9
S'\x19J\xad,\xb9\xe3\xf8?'
p1054
tp1055
Rp1056
ag1052
asg51
F-1.2386
sg52
F8.87
sg53
(lp1057
F8.87
aF1.48
aF-1.45
asg55
(lp1058
g5
(g9
S'1\xda\x91\xf5\xe2TM@'
p1059
tp1060
Rp1061
ag5
(g9
S'\x1e\xef\xbb2\x16\x7f\xcb?'
p1062
tp1063
Rp1064
asg63
F-0.910735294117647
sg64
(lp1065
g5
(g9
S'\xc2cY3\xe0\x08\x01@'
p1066
tp1067
Rp1068
ag5
(g9
S'\x15\xc6sZD\x7f\xac?'
p1069
tp1070
Rp1071
asg72
g5
(g9
S'\xfd:>\x80sU\xf9\xbf'
p1072
tp1073
Rp1074
sg76
(lp1075
g1049
ag1052
asg81
(lp1076
F11.73
asg83
(lp1077
g5
(g9
S'\x80E\xf8"\x05R\x08@'
p1078
tp1079
Rp1080
ag1052
asg85
(lp1081
g5
(g9
S'\x19Rm\x12\xacN\xf7?'
p1082
tp1083
Rp1084
ag5
(g9
S'\x15\xc6sZD\x7f\xac?'
p1085
tp1086
Rp1087
assS'SAMPL5_081'
p1088
(dp1089
g3
(lp1090
g5
(g9
S'cb\xd4\x18-RM@'
p1091
tp1092
Rp1093
ag5
(g9
S'\xfe#\xae\xc1Y\xb3\xc7?'
p1094
tp1095
Rp1096
asg18
S'CC(C)NC[C@H](COc1ccc(cc1)CC(=O)N)O'
p1097
sg20
F12.67
sg21
g22
(g23
(I0
tp1098
g25
tp1099
Rp1100
(I1
(I2
tp1101
g31
I00
S'\x98*\xbfq8\xfd\x00\xc0A\xba\x87\x9a^\x0c\xa9?'
p1102
tp1103
bsg36
g404
sg38
(lp1104
g5
(g9
S'\x99B\xf0\x05\x7f\xd6\x0f\xc0'
p1105
tp1106
Rp1107
ag5
(g9
S'A\xba\x87\x9a^\x0c\xa9?'
p1108
tp1109
Rp1110
asg46
(lp1111
g5
(g9
S'\x1cvL\n\x7f\xd6\x0f\xc0'
p1112
tp1113
Rp1114
ag1110
asg51
F-1.1127
sg52
F9.25
sg53
(lp1115
F9.25
aF-1.29
aF-1.04
asg55
(lp1116
g5
(g9
S'\xb2O\x98\x8e\xe1\xb0Q@'
p1117
tp1118
Rp1119
ag5
(g9
S'\x18#\x01o\xaf\xc1\xca?'
p1120
tp1121
Rp1122
asg63
F-0.8181617647058823
sg64
(lp1123
g5
(g9
S'd)\xf1\xd6\xd0\x88\x07\xc0'
p1124
tp1125
Rp1126
ag5
(g9
S'A\xba\x87\x9a^\x0c\xa9?'
p1127
tp1128
Rp1129
asg72
g5
(g9
S'F\xb3\x9e\x1aX\xb1\xff\xbf'
p1130
tp1131
Rp1132
sg76
(lp1133
g1107
ag1110
asg81
(lp1134
F13.32
aF12.67
aF12.67
asg83
(lp1135
g5
(g9
S'~&\xc8\xaa9\xfd\x00\xc0'
p1136
tp1137
Rp1138
ag1110
asg85
(lp1139
g5
(g9
S'\x1eB\x87?\xf2j\x10\xc0'
p1140
tp1141
Rp1142
ag5
(g9
S'A\xba\x87\x9a^\x0c\xa9?'
p1143
tp1144
Rp1145
assS'SAMPL5_080'
p1146
(dp1147
g3
(lp1148
g5
(g9
S'T\xc3\x0e\x88\xae J@'
p1149
tp1150
Rp1151
ag5
(g9
S'\x10q\x17\xbe\xd3\xfd\xc0?'
p1152
tp1153
Rp1154
asg18
S'Cn1cnc2c1c(=O)n(c(=O)n2C)C'
p1155
sg20
Nsg21
g22
(g23
(I0
tp1156
g25
tp1157
Rp1158
(I1
(I2
tp1159
g31
I00
S'^AJN\xa2\r\x0e\xc0\xc1\x9d@\x1d2\x1f\x9e?'
p1160
tp1161
bsg36
g404
sg38
(lp1162
g5
(g9
S'z\x7f\xb0\x84\xa2\r\x0e\xc0'
p1163
tp1164
Rp1165
ag5
(g9
S'\xc1\x9d@\x1d2\x1f\x9e?'
p1166
tp1167
Rp1168
asg46
(lp1169
g5
(g9
S'z\x7f\xb0\x84\xa2\r\x0e\xc0'
p1170
tp1171
Rp1172
ag1168
asg51
F0.0
sg52
F1.37
sg53
(lp1173
F-0.58
aF1.37
aF-1.89
aF-2.49
asg55
(lp1174
g5
(g9
S'\xaae\xf9\xba\xb1lR@'
p1175
tp1176
Rp1177
ag5
(g9
S'\x84v\tf\x11R\xba?'
p1178
tp1179
Rp1180
asg63
F0.0
sg64
(lp1181
g5
(g9
S'^AJN\xa2\r\x0e\xc0'
p1182
tp1183
Rp1184
ag5
(g9
S'\xc1\x9d@\x1d2\x1f\x9e?'
p1185
tp1186
Rp1187
asg72
g5
(g9
S'\x00\x00\x00\x00\x00\x00\x00\x00'
p1188
tp1189
Rp1190
sg76
(lp1191
g1165
ag1168
asg81
(lp1192
sg83
(lp1193
g5
(g9
S'^AJN\xa2\r\x0e\xc0'
p1194
tp1195
Rp1196
ag1168
asg85
(lp1197
g5
(g9
S'^AJN\xa2\r\x0e\xc0'
p1198
tp1199
Rp1200
ag5
(g9
S'\xc1\x9d@\x1d2\x1f\x9e?'
p1201
tp1202
Rp1203
assS'SAMPL5_083'
p1204
(dp1205
g3
(lp1206
g5
(g9
S'\xdfZ\xa7B\xc4\xa2b@'
p1207
tp1208
Rp1209
ag5
(g9
S't\xa1\xc7\xe2\xc2L\xdc?'
p1210
tp1211
Rp1212
asg18
S'C[C@H]1/C=C/C=C(\\C(=O)NC\\2=C(C3=C(C(=C4C(=C3C(=O)/C2=C/NN5CCN(CC5)C)C(=O)[C@](O4)(O/C=C/[C@@H]([C@H]([C@H]([C@@H]([C@@H]([C@@H]([C@H]1O)C)O)C)OC(=O)C)C)OC)C)C)O)O)/C'
p1213
sg20
F7.41
sg21
g22
(g23
(I0
tp1214
g25
tp1215
Rp1216
(I1
(I2
tp1217
g31
I00
S'j]x,7S\xf3?R\x19\xfb\xec\x18h\xb7?'
p1218
tp1219
bsg36
g404
sg38
(lp1220
g5
(g9
S'\x8ala/hV\xf1?'
p1221
tp1222
Rp1223
ag5
(g9
S'R\x19\xfb\xec\x18h\xb7?'
p1224
tp1225
Rp1226
asg46
(lp1227
g5
(g9
S'\x0bYcO<\x06\xeb?'
p1228
tp1229
Rp1230
ag1226
asg51
F0.0
sg52
F6.92
sg53
(lp1231
F-2.66
aF0.65
aF6.92
aF-0.08
aF0.28
aF-1.3
aF-0.76
asg55
(lp1232
g5
(g9
S'\x1ae5\xca&\xc6a@'
p1233
tp1234
Rp1235
ag5
(g9
S'7\xa2\xb0\xe4\xda\xbd\xd1?'
p1236
tp1237
Rp1238
asg63
F0.0
sg64
(lp1239
g5
(g9
S'j]x,7S\xf3?'
p1240
tp1241
Rp1242
ag5
(g9
S'R\x19\xfb\xec\x18h\xb7?'
p1243
tp1244
Rp1245
asg72
g5
(g9
S'\x9d\xdf&S\x8b3\xdf\xbf'
p1246
tp1247
Rp1248
sg76
(lp1249
g5
(g9
S'?\xab$\x17\x1e-\xed?'
p1250
tp1251
Rp1252
ag1226
asg81
(lp1253
F14.92
aF15.38
aF8.92
aF7.41
aF8.11
asg83
(lp1254
g1252
ag1226
asg85
(lp1255
g5
(g9
S'\x06K]\xaf\xa8\x0c\xe7?'
p1256
tp1257
Rp1258
ag5
(g9
S'R\x19\xfb\xec\x18h\xb7?'
p1259
tp1260
Rp1261
assS'SAMPL5_082'
p1262
(dp1263
g3
(lp1264
g5
(g9
S'oJ\xfeNc\xeeQ@'
p1265
tp1266
Rp1267
ag5
(g9
S'.T\x1c\xae\xd7\xf7\xcf?'
p1268
tp1269
Rp1270
asg18
S'CC/C(=C(\\c1ccccc1)/c2ccc(cc2)OCCN(C)C)/c3ccccc3'
p1271
sg20
Nsg21
g22
(g23
(I0
tp1272
g25
tp1273
Rp1274
(I1
(I2
tp1275
g31
I00
S'\xd2\xd8\x14\xc9\xc4<\x1a@\xf9;\x93\xb2\x80\xac\xaa?'
p1276
tp1277
bsg36
g404
sg38
(lp1278
g5
(g9
S'~S\x93r8.\x16@'
p1279
tp1280
Rp1281
ag5
(g9
S'\xf9;\x93\xb2\x80\xac\xaa?'
p1282
tp1283
Rp1284
asg46
(lp1285
g5
(g9
S'~S\x93r8.\x16@'
p1286
tp1287
Rp1288
ag1284
asg51
F-0.429
sg52
F8.37
sg53
(lp1289
F8.37
asg55
(lp1290
g5
(g9
S'\xa2\xa6\xbd@[$A@'
p1291
tp1292
Rp1293
ag5
(g9
S'\xff\xa83\xb26\xa9\xc4?'
p1294
tp1295
Rp1296
asg63
F-0.3154411764705882
sg64
(lp1297
g5
(g9
S'\xcf\xd5\x11\xc6\xc1\xf9\x18@'
p1298
tp1299
Rp1300
ag5
(g9
S'\xf9;\x93\xb2\x80\xac\xaa?'
p1301
tp1302
Rp1303
asg72
g5
(g9
S'\xde%d"}(\xf1\xbf'
p1304
tp1305
Rp1306
sg76
(lp1307
g1281
ag1284
asg81
(lp1308
sg83
(lp1309
g5
(g9
S'\xd2\xd8\x14\xc9\xc4<\x1a@'
p1310
tp1311
Rp1312
ag1284
asg85
(lp1313
g5
(g9
S'Z\xcf{\x80\xa5\xf2\x15@'
p1314
tp1315
Rp1316
ag5
(g9
S'\xf9;\x93\xb2\x80\xac\xaa?'
p1317
tp1318
Rp1319
assS'SAMPL5_007'
p1320
(dp1321
g3
(lp1322
g5
(g9
S'\x030\x82\x7fy\xb6P@'
p1323
tp1324
Rp1325
ag5
(g9
S'\xa3}\x99\x16>\x0c\xc7?'
p1326
tp1327
Rp1328
asg18
S'c1ccc(cc1)CCNc2c3cc(ccc3ncn2)Br'
p1329
sg20
F13.97
sg21
g22
(g23
(I0
tp1330
g25
tp1331
Rp1332
(I1
(I2
tp1333
g31
I00
S'\x9f5P\xafr\x91\x12@\x05\x0f\xf3;\x12R\xa3?'
p1334
tp1335
bsg36
S'1373587'
p1336
sg38
(lp1337
g5
(g9
S'\xcb\n\x89j\xca\x90\x12@'
p1338
tp1339
Rp1340
ag5
(g9
S'\x05\x0f\xf3;\x12R\xa3?'
p1341
tp1342
Rp1343
asg46
(lp1344
g5
(g9
S'B\xd2\xb3b\xca\x90\x12@'
p1345
tp1346
Rp1347
ag1343
asg51
F0.0
sg52
F4.57
sg53
(lp1348
F-0.04
aF4.57
aF3.47
asg55
(lp1349
g5
(g9
S'{\x95\xbcN\\-D@'
p1350
tp1351
Rp1352
ag5
(g9
S'\xdf\x18\x91V\xccB\xbe?'
p1353
tp1354
Rp1355
asg63
F0.0
sg64
(lp1356
g5
(g9
S'\x9f5P\xafr\x91\x12@'
p1357
tp1358
Rp1359
ag5
(g9
S'\x05\x0f\xf3;\x12R\xa3?'
p1360
tp1361
Rp1362
asg72
g5
(g9
S'\xa2]\x82\x1e\xa9\xd2<\xbf'
p1363
tp1364
Rp1365
sg76
(lp1366
g1340
ag1343
asg81
(lp1367
F13.97
asg83
(lp1368
g5
(g9
S'\xce\x05x\xa7r\x91\x12@'
p1369
tp1370
Rp1371
ag1343
asg85
(lp1372
g5
(g9
S'\x96\xbb\xabd\xff\x90\x12@'
p1373
tp1374
Rp1375
ag5
(g9
S'\x05\x0f\xf3;\x12R\xa3?'
p1376
tp1377
Rp1378
assS'SAMPL5_027'
p1379
(dp1380
g3
(lp1381
g5
(g9
S'\x7f\xac\x1b\xc6q\xb2J@'
p1382
tp1383
Rp1384
ag5
(g9
S'[8\xd3\xd5\xf7\xf4\xc1?'
p1385
tp1386
Rp1387
asg18
S'c1ccc(cc1)CNc2ncnc(n2)N'
p1388
sg20
F12.98
sg21
g22
(g23
(I0
tp1389
g25
tp1390
Rp1391
(I1
(I2
tp1392
g31
I00
S'\x07~\xb4=4\xb6\x01\xc0\xec\x15}\xc2CY\x9f?'
p1393
tp1394
bsg36
S'2483781'
p1395
sg38
(lp1396
g5
(g9
S'>\x1c\x9a\xb6\xd1\xb6\x01\xc0'
p1397
tp1398
Rp1399
ag5
(g9
S'\xec\x15}\xc2CY\x9f?'
p1400
tp1401
Rp1402
asg46
(lp1403
g5
(g9
S'#m\xd0O\xd2\xb6\x01\xc0'
p1404
tp1405
Rp1406
ag1402
asg51
F0.0
sg52
F4.24
sg53
(lp1407
F4.24
aF4.05
aF1.14
aF-2.02
aF-0.84
asg55
(lp1408
g5
(g9
S'\x8b/\x8f\xfe\x02\x82P@'
p1409
tp1410
Rp1411
ag5
(g9
S'&\x90\xf6\x02\xfb\xab\xba?'
p1412
tp1413
Rp1414
asg63
F0.0
sg64
(lp1415
g5
(g9
S'\x07~\xb4=4\xb6\x01\xc0'
p1416
tp1417
Rp1418
ag5
(g9
S'\xec\x15}\xc2CY\x9f?'
p1419
tp1420
Rp1421
asg72
g5
(g9
S'\x00\x00\x00\x00\x00\x00\x00\x00'
p1422
tp1423
Rp1424
sg76
(lp1425
g1399
ag1402
asg81
(lp1426
F12.98
aF13.39
aF13.39
asg83
(lp1427
g5
(g9
S'\x87\xf1\x05\xd74\xb6\x01\xc0'
p1428
tp1429
Rp1430
ag1402
asg85
(lp1431
g5
(g9
S'\x07~\xb4=4\xb6\x01\xc0'
p1432
tp1433
Rp1434
ag5
(g9
S'\xec\x15}\xc2CY\x9f?'
p1435
tp1436
Rp1437
assS'SAMPL5_026'
p1438
(dp1439
g3
(lp1440
g5
(g9
S'\xc3\xd8vx0TH@'
p1441
tp1442
Rp1443
ag5
(g9
S'\x05|\xe8*Cw\xc5?'
p1444
tp1445
Rp1446
asg18
S'Cc1cc(c2c(c1)c(c([nH]2)C)CC(=O)O)C'
p1447
sg20
F4.23
sg21
g22
(g23
(I0
tp1448
g25
tp1449
Rp1450
(I1
(I2
tp1451
g31
I00
S'y\xf6n\x07\xd8m\xfb\xbf\x0f\x18$\xa24\x9e\xa4?'
p1452
tp1453
bsg36
S'703690'
p1454
sg38
(lp1455
g5
(g9
S'u\xccy\x07\xd8m\xfb\xbf'
p1456
tp1457
Rp1458
ag5
(g9
S'\x0f\x18$\xa24\x9e\xa4?'
p1459
tp1460
Rp1461
asg46
(lp1462
g5
(g9
S'\x04k\x86n\xd7\x89\x13\xc0'
p1463
tp1464
Rp1465
ag1461
asg51
F-1.4138
sg52
F-2.04
sg53
(lp1466
F-2.04
asg55
(lp1467
g5
(g9
S'#9MG\xb68M@'
p1468
tp1469
Rp1470
ag5
(g9
S'\x8fp7|\n\x1f\xc4?'
p1471
tp1472
Rp1473
asg63
F-1.0395588235294118
sg64
(lp1474
g5
(g9
S'\x0e\x19";\xf0\x07\x06\xc0'
p1475
tp1476
Rp1477
ag5
(g9
S'\x0f\x18$\xa24\x9e\xa4?'
p1478
tp1479
Rp1480
asg72
g5
(g9
S'\x11^\xa8\xf2(\x19\x0b\xc0'
p1481
tp1482
Rp1483
sg76
(lp1484
g5
(g9
S'\x8cj\x86n\xd7\x89\x13\xc0'
p1485
tp1486
Rp1487
ag1461
asg81
(lp1488
F4.23
aF16.57
asg83
(lp1489
g1487
ag1461
asg85
(lp1490
g5
(g9
S'\xa7\xec/{\nh\x14\xc0'
p1491
tp1492
Rp1493
ag5
(g9
S'\x0f\x18$\xa24\x9e\xa4?'
p1494
tp1495
Rp1496
assS'SAMPL5_024'
p1497
(dp1498
g3
(lp1499
g5
(g9
S'\xcd\x1cQ\xd2\x10\xfeS@'
p1500
tp1501
Rp1502
ag5
(g9
S'm\xad\x14\xa6\xc4Q\xca?'
p1503
tp1504
Rp1505
asg18
S'Cc1ccc2c(c1)cc3cc(sc3n2)C(=O)Nc4ccc(c(c4)C)C'
p1506
sg20
F11.15
sg21
g22
(g23
(I0
tp1507
g25
tp1508
Rp1509
(I1
(I2
tp1510
g31
I00
S'\x10\x85\x00|x\xa1\xdf?\xa9\xd3\x88$\xac)\xa6?'
p1511
tp1512
bsg36
S'16329490'
p1513
sg38
(lp1514
g5
(g9
S'\xb2\xf5/T)\xd7\xde?'
p1515
tp1516
Rp1517
ag5
(g9
S'\xa9\xd3\x88$\xac)\xa6?'
p1518
tp1519
Rp1520
asg46
(lp1521
g5
(g9
S'3\x90\xef\x82\xee\xd5\xde?'
p1522
tp1523
Rp1524
ag1520
asg51
F0.0
sg52
F5.86
sg53
(lp1525
F5.86
aF-0.3
asg55
(lp1526
g5
(g9
S'\x97\xd4]i\x84IS@'
p1527
tp1528
Rp1529
ag5
(g9
S'\xcd\xde\xfc\xcf:\x89\xc1?'
p1530
tp1531
Rp1532
asg63
F0.0
sg64
(lp1533
g5
(g9
S'\x10\x85\x00|x\xa1\xdf?'
p1534
tp1535
Rp1536
ag5
(g9
S'\xa9\xd3\x88$\xac)\xa6?'
p1537
tp1538
Rp1539
asg72
g5
(g9
S'\xdd\xf8\xcc{B\xf7\x83\xbf'
p1540
tp1541
Rp1542
sg76
(lp1543
g1517
ag1520
asg81
(lp1544
F11.15
asg83
(lp1545
g5
(g9
S'\x88R\x9f\x964\xa0\xdf?'
p1546
tp1547
Rp1548
ag1520
asg85
(lp1549
g5
(g9
S'I\x1d"h\xbe\x01\xdf?'
p1550
tp1551
Rp1552
ag5
(g9
S'\xa9\xd3\x88$\xac)\xa6?'
p1553
tp1554
Rp1555
assS'SAMPL5_021'
p1556
(dp1557
g3
(lp1558
g5
(g9
S"\x7f\x10Yfb'M@"
p1559
tp1560
Rp1561
ag5
(g9
S'C\x9eG\xa6\xf2\xed\xc4?'
p1562
tp1563
Rp1564
asg18
S'Cc1nn2cc(nc2s1)c3cccc(c3)OC'
p1565
sg20
Nsg21
g22
(g23
(I0
tp1566
g25
tp1567
Rp1568
(I1
(I2
tp1569
g31
I00
S'\x01y\x11i\xe0l\n@>>I\xe8\x9dl\xa1?'
p1570
tp1571
bsg36
S'31467689'
p1572
sg38
(lp1573
g5
(g9
S'wo\x8a\xaf\xefi\n@'
p1574
tp1575
Rp1576
ag5
(g9
S'>>I\xe8\x9dl\xa1?'
p1577
tp1578
Rp1579
asg46
(lp1580
g5
(g9
S'wo\x8a\xaf\xefi\n@'
p1581
tp1582
Rp1583
ag1579
asg51
F0.0
sg52
F4.92
sg53
(lp1584
F-1.08
aF4.92
asg55
(lp1585
g5
(g9
S'\x10C,\x1d\x03\xbaC@'
p1586
tp1587
Rp1588
ag5
(g9
S'{\xac\xbft\xff\xd8\xba?'
p1589
tp1590
Rp1591
asg63
F0.0
sg64
(lp1592
g5
(g9
S'\x01y\x11i\xe0l\n@'
p1593
tp1594
Rp1595
ag5
(g9
S'>>I\xe8\x9dl\xa1?'
p1596
tp1597
Rp1598
asg72
g5
(g9
S'p\xe5\xb7\x8b\x8c9O\xbf'
p1599
tp1600
Rp1601
sg76
(lp1602
g1576
ag1579
asg81
(lp1603
sg83
(lp1604
g5
(g9
S'\x01y\x11i\xe0l\n@'
p1605
tp1606
Rp1607
ag1579
asg85
(lp1608
g5
(g9
S'\x83\xbdH\xd0\xecj\n@'
p1609
tp1610
Rp1611
ag5
(g9
S'>>I\xe8\x9dl\xa1?'
p1612
tp1613
Rp1614
assS'SAMPL5_020'
p1615
(dp1616
g3
(lp1617
g5
(g9
S'\x9d\xd6\xc3H\xcf\xa4M@'
p1618
tp1619
Rp1620
ag5
(g9
S'?\x8d\xa5\xd9\x03\x94\xc7?'
p1621
tp1622
Rp1623
asg18
S'CCCC(=O)Nc1nc2ccc(cc2s1)C(C)C'
p1624
sg20
F9.74
sg21
g22
(g23
(I0
tp1625
g25
tp1626
Rp1627
(I1
(I2
tp1628
g31
I00
S'\xe5\xbd\x99\x9c\xc8\xcd\x0e\xc0H\x80\xc9@kh\xa4?'
p1629
tp1630
bsg36
S'5522978'
p1631
sg38
(lp1632
g5
(g9
S'\xb5\x96&\xa9\xcc\xcd\x0e\xc0'
p1633
tp1634
Rp1635
ag5
(g9
S'H\x80\xc9@kh\xa4?'
p1636
tp1637
Rp1638
asg46
(lp1639
g5
(g9
S'\x93$&\n\xdb\xd1\x0e\xc0'
p1640
tp1641
Rp1642
ag1638
asg51
F0.0
sg52
F2.65
sg53
(lp1643
F2.65
aF-0.36
asg55
(lp1644
g5
(g9
S'sG\xc4o\x08QT@'
p1645
tp1646
Rp1647
ag5
(g9
S'\x11\x94\r\x14\xc4\x17\xc1?'
p1648
tp1649
Rp1650
asg63
F0.0
sg64
(lp1651
g5
(g9
S'\xe5\xbd\x99\x9c\xc8\xcd\x0e\xc0'
p1652
tp1653
Rp1654
ag5
(g9
S'H\x80\xc9@kh\xa4?'
p1655
tp1656
Rp1657
asg72
g5
(g9
S'\xd6\xd5L\xb1\xc5kJ\xbf'
p1658
tp1659
Rp1660
sg76
(lp1661
g5
(g9
S'c\xaeP\x02\xd7\xd1\x0e\xc0'
p1662
tp1663
Rp1664
ag1638
asg81
(lp1665
F9.74
asg83
(lp1666
g1664
ag1638
asg85
(lp1667
g5
(g9
S'\xb2\xd2\xf4Xo\xcf\x0e\xc0'
p1668
tp1669
Rp1670
ag5
(g9
S'H\x80\xc9@kh\xa4?'
p1671
tp1672
Rp1673
assS'SAMPL5_049'
p1674
(dp1675
g3
(lp1676
g5
(g9
S'ml\xb9\xa5\xd0\x8dJ@'
p1677
tp1678
Rp1679
ag5
(g9
S'%\xf8V?iV\xc4?'
p1680
tp1681
Rp1682
asg18
S'c1cc(c(c(c1)Cl)Cl)NC(=O)c2ccno2'
p1683
sg20
F10.75
sg21
g22
(g23
(I0
tp1684
g25
tp1685
Rp1686
(I1
(I2
tp1687
g31
I00
S'?Z\xa2\xc9H\x9f\x01@zv\x1a\xdb\xd6\x14\xa1?'
p1688
tp1689
bsg36
S'5627856'
p1690
sg38
(lp1691
g5
(g9
S'Vd\x7f\xc8H\x9f\x01@'
p1692
tp1693
Rp1694
ag5
(g9
S'zv\x1a\xdb\xd6\x14\xa1?'
p1695
tp1696
Rp1697
asg46
(lp1698
g5
(g9
S'\xc7\xde\x1d\x19\xe3\x9e\x01@'
p1699
tp1700
Rp1701
ag1697
asg51
F-0.0002
sg52
F-0.31
sg53
(lp1702
F-0.31
asg55
(lp1703
g5
(g9
S'\xfd\x96\x0c\xa6iDD@'
p1704
tp1705
Rp1706
ag5
(g9
S'\x17\x15\xd5ub\xdf\xba?'
p1707
tp1708
Rp1709
asg63
F-0.00014705882352941175
sg64
(lp1710
g5
(g9
S'\xbf\xa6\xbb\xaf\xfb\x9e\x01@'
p1711
tp1712
Rp1713
ag5
(g9
S'zv\x1a\xdb\xd6\x14\xa1?'
p1714
tp1715
Rp1716
asg72
g5
(g9
S'\x00\x00\x00\x00\x00\x00\x00\x00'
p1717
tp1718
Rp1719
sg76
(lp1720
g5
(g9
S'n\xb3@\x1a\xe3\x9e\x01@'
p1721
tp1722
Rp1723
ag1697
asg81
(lp1724
F10.75
asg83
(lp1725
g1723
ag1697
asg85
(lp1726
g5
(g9
S'?Z\xa2\xc9H\x9f\x01@'
p1727
tp1728
Rp1729
ag5
(g9
S'zv\x1a\xdb\xd6\x14\xa1?'
p1730
tp1731
Rp1732
assS'SAMPL5_004'
p1733
(dp1734
g3
(lp1735
g5
(g9
S'@\x87Z7\xa8wP@'
p1736
tp1737
Rp1738
ag5
(g9
S'\xff\x8e\xca\xf3p\x94\xc7?'
p1739
tp1740
Rp1741
asg18
S'CCOc1ccc(cc1)Nc2cc(c3ccccc3n2)C'
p1742
sg20
F13.92
sg21
g22
(g23
(I0
tp1743
g25
tp1744
Rp1745
(I1
(I2
tp1746
g31
I00
S'\xe5\x06\\\xe5\xd1\xfe\x11@\xc3\x91KSp\x99\xa3?'
p1747
tp1748
bsg36
S'1221528'
p1749
sg38
(lp1750
g5
(g9
S'r\xfc\xee<\x8d\xd1\x11@'
p1751
tp1752
Rp1753
ag5
(g9
S'\xc3\x91KSp\x99\xa3?'
p1754
tp1755
Rp1756
asg46
(lp1757
g5
(g9
S'~\xd5\xfb4\x8d\xd1\x11@'
p1758
tp1759
Rp1760
ag1756
asg51
F-0.0027
sg52
F6.43
sg53
(lp1761
F-0.09
aF6.43
asg55
(lp1762
g5
(g9
S'\xeaA0EX\x18D@'
p1763
tp1764
Rp1765
ag5
(g9
S'+\xea\xe1V\xc3\x14\xbe?'
p1766
tp1767
Rp1768
asg63
F-0.0019852941176470586
sg64
(lp1769
g5
(g9
S'C\xcb\x86v\xc9\xfc\x11@'
p1770
tp1771
Rp1772
ag5
(g9
S'\xc3\x91KSp\x99\xa3?'
p1773
tp1774
Rp1775
asg72
g5
(g9
S'(C\xe9\xbb\xc0p\xa3\xbf'
p1776
tp1777
Rp1778
sg76
(lp1779
g1753
ag1756
asg81
(lp1780
F13.92
asg83
(lp1781
g5
(g9
S'\xe9\xcd\x8e\xdc\xd1\xfe\x11@'
p1782
tp1783
Rp1784
ag1756
asg85
(lp1785
g5
(g9
S'_4\xe4c\xf0\xd7\x11@'
p1786
tp1787
Rp1788
ag5
(g9
S'\xc3\x91KSp\x99\xa3?'
p1789
tp1790
Rp1791
assS'SAMPL5_061'
p1792
(dp1793
g3
(lp1794
g5
(g9
S'V\xb33\x96xgG@'
p1795
tp1796
Rp1797
ag5
(g9
S'$\xd8\xce\xf0!\xe4\xc3?'
p1798
tp1799
Rp1800
asg18
S'Cc1nccc(n1)[C@@]2(CNCCO2)C'
p1801
sg20
Nsg21
g22
(g23
(I0
tp1802
g25
tp1803
Rp1804
(I1
(I2
tp1805
g31
I00
S"\xf0\xadT\xfc\xf9P\xfe?'|\\\xfd\t\xbc\xa2?"
p1806
tp1807
bsg36
S'43241882'
p1808
sg38
(lp1809
g5
(g9
S'\xd4\n4\x07\x83z\xf6?'
p1810
tp1811
Rp1812
ag5
(g9
S"'|\\\xfd\t\xbc\xa2?"
p1813
tp1814
Rp1815
asg46
(lp1816
g5
(g9
S'\xd4\n4\x07\x83z\xf6?'
p1817
tp1818
Rp1819
ag1815
asg51
F-0.0007
sg52
F7.72
sg53
(lp1820
F7.72
aF2.55
aF2.72
asg55
(lp1821
g5
(g9
S'[\xd7\xb4\xfd\x1a\xffA@'
p1822
tp1823
Rp1824
ag5
(g9
S"'\xce\x05\x11\xbc\xdc\xc1?"
p1825
tp1826
Rp1827
asg63
F-0.0005147058823529411
sg64
(lp1828
g5
(g9
S'n\xc5\x05G\xdeN\xfe?'
p1829
tp1830
Rp1831
ag5
(g9
S"'|\\\xfd\t\xbc\xa2?"
p1832
tp1833
Rp1834
asg72
g5
(g9
S"\x07\x90'=\xe7>\xe0\xbf"
p1835
tp1836
Rp1837
sg76
(lp1838
g1812
ag1815
asg81
(lp1839
sg83
(lp1840
g5
(g9
S'\xf0\xadT\xfc\xf9P\xfe?'
p1841
tp1842
Rp1843
ag1815
asg85
(lp1844
g5
(g9
S'\xec\xe5\xc0]\x861\xf6?'
p1845
tp1846
Rp1847
ag5
(g9
S"'|\\\xfd\t\xbc\xa2?"
p1848
tp1849
Rp1850
assS'SAMPL5_060'
p1851
(dp1852
g3
(lp1853
g5
(g9
S'\x91\xaa\x95v\x90\x88J@'
p1854
tp1855
Rp1856
ag5
(g9
S'\x8d\x83\n\x7f\xecY\xc2?'
p1857
tp1858
Rp1859
asg18
S'c1ccc2c(c1)c3cc(ncc3[nH]2)C(=O)O'
p1860
sg20
F3.75
sg21
g22
(g23
(I0
tp1861
g25
tp1862
Rp1863
(I1
(I2
tp1864
g31
I00
S'\x1e\x8b\x80\xbeD\x95\r\xc0_\xfc[\xea\xd5\xa8\x9f?'
p1865
tp1866
bsg36
S'42618372'
p1867
sg38
(lp1868
g5
(g9
S'\xf3\xac\xfb;\xe8\xb2\r\xc0'
p1869
tp1870
Rp1871
ag5
(g9
S'_\xfc[\xea\xd5\xa8\x9f?'
p1872
tp1873
Rp1874
asg46
(lp1875
g5
(g9
S'\x12\xb0\xe9QVd\x1d\xc0'
p1876
tp1877
Rp1878
ag1874
asg51
F-1.2984
sg52
F5.93
sg53
(lp1879
F5.93
asg55
(lp1880
g5
(g9
S'#tOR*\x8bR@'
p1881
tp1882
Rp1883
ag5
(g9
S'\xdd21\x17\xfeW\xba?'
p1884
tp1885
Rp1886
asg63
F-0.9547058823529411
sg64
(lp1887
g5
(g9
S'`Jx\xca@\x9c\x12\xc0'
p1888
tp1889
Rp1890
ag5
(g9
S'_\xfc[\xea\xd5\xa8\x9f?'
p1891
tp1892
Rp1893
asg72
g5
(g9
S'\x8d\\\xa7\xfb\x16\xc7\x11\xc0'
p1894
tp1895
Rp1896
sg76
(lp1897
g5
(g9
S'G+\xe0tUd\x1d\xc0'
p1898
tp1899
Rp1900
ag1874
asg81
(lp1901
F3.75
aF15.88
asg83
(lp1902
g1900
ag1874
asg85
(lp1903
g5
(g9
S'\x0e\xd1s\xad\xdcH \xc0'
p1904
tp1905
Rp1906
ag5
(g9
S'_\xfc[\xea\xd5\xa8\x9f?'
p1907
tp1908
Rp1909
assS'SAMPL5_067'
p1910
(dp1911
g3
(lp1912
g5
(g9
S'\xc2\xbbU\xcbK\xfbJ@'
p1913
tp1914
Rp1915
ag5
(g9
S'\x94\x0f\xab\xc9a\x8b\xc8?'
p1916
tp1917
Rp1918
asg18
S'CC(C)NC[C@@H](COc1cccc2c1cccc2)O'
p1919
sg20
F13.32
sg21
g22
(g23
(I0
tp1920
g25
tp1921
Rp1922
(I1
(I2
tp1923
g31
I00
S'\xeb\x05\xa6~\xd4g\x06@\xf06X\xf1\x1fC\xa9?'
p1924
tp1925
bsg36
g404
sg38
(lp1926
g5
(g9
S'\xa8\xb7\xd3\xa97:\xee?'
p1927
tp1928
Rp1929
ag5
(g9
S'\xf06X\xf1\x1fC\xa9?'
p1930
tp1931
Rp1932
asg46
(lp1933
g5
(g9
S'\r,\xec\xa57:\xee?'
p1934
tp1935
Rp1936
ag1932
asg51
F-1.4434
sg52
F9.25
sg53
(lp1937
F9.25
aF-1.29
asg55
(lp1938
g5
(g9
S'\xd8\xa96^\t\xfdB@'
p1939
tp1940
Rp1941
ag5
(g9
S'>q\xc2T&g\xca?'
p1942
tp1943
Rp1944
asg63
F-1.0613235294117647
sg64
(lp1945
g5
(g9
S'\xdbC\xb7\x9bz\xd4\xfb?'
p1946
tp1947
Rp1948
ag5
(g9
S'\xf06X\xf1\x1fC\xa9?'
p1949
tp1950
Rp1951
asg72
g5
(g9
S'F\xb3\x9e\x1aX\xb1\xff\xbf'
p1952
tp1953
Rp1954
sg76
(lp1955
g1929
ag1932
asg81
(lp1956
F13.32
asg83
(lp1957
g5
(g9
S'\xbb\x8c\x918\xd4g\x06@'
p1958
tp1959
Rp1960
ag1932
asg85
(lp1961
g5
(g9
S' \xb1Z\xc5\xa1<\xea?'
p1962
tp1963
Rp1964
ag5
(g9
S'\xf06X\xf1\x1fC\xa9?'
p1965
tp1966
Rp1967
assS'SAMPL5_003'
p1968
(dp1969
g3
(lp1970
g5
(g9
S'\xabR^G\xd1\x04J@'
p1971
tp1972
Rp1973
ag5
(g9
S'\x9b<&\xbc\xd0\x11\xc4?'
p1974
tp1975
Rp1976
asg18
S'c1ccc2c(c1)c(=O)oc(n2)c3ccccc3F'
p1977
sg20
Nsg21
g22
(g23
(I0
tp1978
g25
tp1979
Rp1980
(I1
(I2
tp1981
g31
I00
S'\xfc\x05\x8f/\xa2\x9c\xff?\xb7\x96\x8d\x9dA\xa5\xa0?'
p1982
tp1983
bsg36
S'1231787'
p1984
sg38
(lp1985
g5
(g9
S'\xf4\xc5\xde\xa6\x91\x9c\xff?'
p1986
tp1987
Rp1988
ag5
(g9
S'\xb7\x96\x8d\x9dA\xa5\xa0?'
p1989
tp1990
Rp1991
asg46
(lp1992
g5
(g9
S'\xf4\xc5\xde\xa6\x91\x9c\xff?'
p1993
tp1994
Rp1995
ag1991
asg51
F0.0
sg52
F2.96
sg53
(lp1996
F2.96
aF-1.86
asg55
(lp1997
g5
(g9
S'\xf4\xda}\xe1JaD@'
p1998
tp1999
Rp2000
ag5
(g9
S'\xe3\xb7\xce\xf3#i\xb9?'
p2001
tp2002
Rp2003
asg63
F0.0
sg64
(lp2004
g5
(g9
S'\xfc\x05\x8f/\xa2\x9c\xff?'
p2005
tp2006
Rp2007
ag5
(g9
S'\xb7\x96\x8d\x9dA\xa5\xa0?'
p2008
tp2009
Rp2010
asg72
g5
(g9
S'\x00\x00\x00\x00\x00\x00\x00\x00'
p2011
tp2012
Rp2013
sg76
(lp2014
g1988
ag1991
asg81
(lp2015
sg83
(lp2016
g5
(g9
S'\xfc\x05\x8f/\xa2\x9c\xff?'
p2017
tp2018
Rp2019
ag1991
asg85
(lp2020
g5
(g9
S'\xfc\x05\x8f/\xa2\x9c\xff?'
p2021
tp2022
Rp2023
ag5
(g9
S'\xb7\x96\x8d\x9dA\xa5\xa0?'
p2024
tp2025
Rp2026
assS'SAMPL5_002'
p2027
(dp2028
g3
(lp2029
g5
(g9
S'\xa8\xc5\x06\x07?\x9aM@'
p2030
tp2031
Rp2032
ag5
(g9
S']\xdeU\xd0#\x12\xc6?'
p2033
tp2034
Rp2035
asg18
S'CCOC(=O)c1c(c2c(c(c(nc2s1)C)C)C)N'
p2036
sg20
F11.05
sg21
g22
(g23
(I0
tp2037
g25
tp2038
Rp2039
(I1
(I2
tp2040
g31
I00
S'\xd5\x10\xe09\xc0L\x01@\x95\x08\x87\xce\nE\xa2?'
p2041
tp2042
bsg36
S'1254130'
p2043
sg38
(lp2044
g5
(g9
S'y\xd7^\xf2\xbaK\x01@'
p2045
tp2046
Rp2047
ag5
(g9
S'\x95\x08\x87\xce\nE\xa2?'
p2048
tp2049
Rp2050
asg46
(lp2051
g5
(g9
S'D\x99H\t\x88K\x01@'
p2052
tp2053
Rp2054
ag2050
asg51
F0.0
sg52
F4.46
sg53
(lp2055
F2.92
aF4.46
asg55
(lp2056
g5
(g9
S'U\x1d\x9b\xa6InG@'
p2057
tp2058
Rp2059
ag5
(g9
S'8\xf0\x0f\x02\xf8\xc0\xbb?'
p2060
tp2061
Rp2062
asg63
F0.0
sg64
(lp2063
g5
(g9
S'\xd5\x10\xe09\xc0L\x01@'
p2064
tp2065
Rp2066
ag5
(g9
S'\x95\x08\x87\xce\nE\xa2?'
p2067
tp2068
Rp2069
asg72
g5
(g9
S'm>\xaci\x1b73\xbf'
p2070
tp2071
Rp2072
sg76
(lp2073
g2047
ag2050
asg81
(lp2074
F11.05
aF11.05
asg83
(lp2075
g5
(g9
S'\x99x\xd3A\x8dL\x01@'
p2076
tp2077
Rp2078
ag2050
asg85
(lp2079
g5
(g9
S's\xc3\x04\x81&L\x01@'
p2080
tp2081
Rp2082
ag5
(g9
S'\x95\x08\x87\xce\nE\xa2?'
p2083
tp2084
Rp2085
assS'SAMPL5_070'
p2086
(dp2087
g3
(lp2088
g5
(g9
S'Cq}\x7fR\xe1L@'
p2089
tp2090
Rp2091
ag5
(g9
S'\xc4f\xa55\xb8h\xca?'
p2092
tp2093
Rp2094
asg18
S'CN(C)CCC=C1c2ccccc2CCc3c1cccc3'
p2095
sg20
Nsg21
g22
(g23
(I0
tp2096
g25
tp2097
Rp2098
(I1
(I2
tp2099
g31
I00
S'\x14\x9e\xaf\x00\xd4\xf1\x12@\x85d\xfeM;\xad\xa5?'
p2100
tp2101
bsg36
g404
sg38
(lp2102
g5
(g9
S'\xb2\xe4\xc4\x03|8\x08@'
p2103
tp2104
Rp2105
ag5
(g9
S'\x85d\xfeM;\xad\xa5?'
p2106
tp2107
Rp2108
asg46
(lp2109
g5
(g9
S'\xb2\xe4\xc4\x03|8\x08@'
p2110
tp2111
Rp2112
ag2108
asg51
F-1.3071
sg52
F9.1
sg53
(lp2113
F9.1
asg55
(lp2114
g5
(g9
S'v\xda\r\xc2\xee\xb9>@'
p2115
tp2116
Rp2117
ag5
(g9
S'\x04\xeb\xad7\n\x1b\xc0?'
p2118
tp2119
Rp2120
asg63
F-0.9611029411764704
sg64
(lp2121
g5
(g9
S'8\xb2;DQ3\x0e@'
p2122
tp2123
Rp2124
ag5
(g9
S'\x85d\xfeM;\xad\xa5?'
p2125
tp2126
Rp2127
asg72
g5
(g9
S'\x08\xf7O\xb0i\x14\xfd\xbf'
p2128
tp2129
Rp2130
sg76
(lp2131
g2105
ag2108
asg81
(lp2132
sg83
(lp2133
g5
(g9
S'\x14\x9e\xaf\x00\xd4\xf1\x12@'
p2134
tp2135
Rp2136
ag2108
asg85
(lp2137
g5
(g9
S'\xa4@7)sY\x07@'
p2138
tp2139
Rp2140
ag5
(g9
S'\x85d\xfeM;\xad\xa5?'
p2141
tp2142
Rp2143
assS'SAMPL5_069'
p2144
(dp2145
g3
(lp2146
g5
(g9
S'D_mHP\xd4R@'
p2147
tp2148
Rp2149
ag5
(g9
S'Z\xd3q\xc4\xcam\xca?'
p2150
tp2151
Rp2152
asg18
S'C[N@]1CCc2cc(c(c-3c2[C@@H]1Cc4c3cc(c(c4)O)OC)OC)O'
p2153
sg20
F10.1
sg21
g22
(g23
(I0
tp2154
g25
tp2155
Rp2156
(I1
(I2
tp2157
g31
I00
S'QG\xde./,\x07@u\xbc\xbb^W\x9d\xa6?'
p2158
tp2159
bsg36
g404
sg38
(lp2160
g5
(g9
S'a\x18.\xb8\xc5\xf0\x00@'
p2161
tp2162
Rp2163
ag5
(g9
S'u\xbc\xbb^W\x9d\xa6?'
p2164
tp2165
Rp2166
asg46
(lp2167
g5
(g9
S'\x97\x98\xb0)z\xf0\x00@'
p2168
tp2169
Rp2170
ag2166
asg51
F-0.1734
sg52
F8.1
sg53
(lp2171
F8.1
asg55
(lp2172
g5
(g9
S'\xbe\xad\xe5zQdM@'
p2173
tp2174
Rp2175
ag5
(g9
S'\xedb+l\xc1\x84\xc2?'
p2176
tp2177
Rp2178
asg63
F-0.1275
sg64
(lp2179
g5
(g9
S"\xcc[\x8cv\x10'\x06@"
p2180
tp2181
Rp2182
ag5
(g9
S'u\xbc\xbb^W\x9d\xa6?'
p2183
tp2184
Rp2185
asg72
g5
(g9
S'\xa1\x08\xe8\xd4F\xef\xea\xbf'
p2186
tp2187
Rp2188
sg76
(lp2189
g2163
ag2166
asg81
(lp2190
F10.1
aF10.22
asg83
(lp2191
g5
(g9
S'\xb5p\xddRi*\x07@'
p2192
tp2193
Rp2194
ag2166
asg85
(lp2195
g5
(g9
S')E\xa4y]p\x00@'
p2196
tp2197
Rp2198
ag5
(g9
S'u\xbc\xbb^W\x9d\xa6?'
p2199
tp2200
Rp2201
assS'SAMPL5_068'
p2202
(dp2203
g3
(lp2204
g5
(g9
S'\x80\x900\xb5\xf4\x8bQ@'
p2205
tp2206
Rp2207
ag5
(g9
S'\xf8\xce\x1a\xcd<\xfd\xc9?'
p2208
tp2209
Rp2210
asg18
S'c1ccc(cc1)c2c(nnc(n2)c3ccccn3)c4ccccc4'
p2211
sg20
Nsg21
g22
(g23
(I0
tp2212
g25
tp2213
Rp2214
(I1
(I2
tp2215
g31
I00
S'\xd0\x8a\xab\x98t-\x11@\xf1\x9a\x97\xaa$\x19\xa5?'
p2216
tp2217
bsg36
g404
sg38
(lp2218
g5
(g9
S'\xffZ\xd3\x90t-\x11@'
p2219
tp2220
Rp2221
ag5
(g9
S'\xf1\x9a\x97\xaa$\x19\xa5?'
p2222
tp2223
Rp2224
asg46
(lp2225
g5
(g9
S'\xffZ\xd3\x90t-\x11@'
p2226
tp2227
Rp2228
ag2224
asg51
F0.0
sg52
F0.83
sg53
(lp2229
F-2.69
aF0.83
asg55
(lp2230
g5
(g9
S'\xf7~G\xf7R\xd6F@'
p2231
tp2232
Rp2233
ag5
(g9
S'\xf1\x9b)l\xc9e\xbe?'
p2234
tp2235
Rp2236
asg63
F0.0
sg64
(lp2237
g5
(g9
S'\xd0\x8a\xab\x98t-\x11@'
p2238
tp2239
Rp2240
ag5
(g9
S'\xf1\x9a\x97\xaa$\x19\xa5?'
p2241
tp2242
Rp2243
asg72
g5
(g9
S'\x00\x00\x00\x00\x00\x00\x00\x00'
p2244
tp2245
Rp2246
sg76
(lp2247
g2221
ag2224
asg81
(lp2248
sg83
(lp2249
g5
(g9
S'\xd0\x8a\xab\x98t-\x11@'
p2250
tp2251
Rp2252
ag2224
asg85
(lp2253
g5
(g9
S'\xd0\x8a\xab\x98t-\x11@'
p2254
tp2255
Rp2256
ag5
(g9
S'\xf1\x9a\x97\xaa$\x19\xa5?'
p2257
tp2258
Rp2259
assS'SAMPL5_045'
p2260
(dp2261
g3
(lp2262
g5
(g9
S'\xf0\xabB\xde\xcf\xc7G@'
p2263
tp2264
Rp2265
ag5
(g9
S'\xa6\xfa\xf7\x8b"\x8d\xc2?'
p2266
tp2267
Rp2268
asg18
S'CCC(=O)Nc1ccc2c(c1)ncs2'
p2269
sg20
F11.72
sg21
g22
(g23
(I0
tp2270
g25
tp2271
Rp2272
(I1
(I2
tp2273
g31
I00
S'E\x8c\xeb\xbe\x96\xbe\xff\xbfh\xa5\x92p\xd4\xa9\xa0?'
p2274
tp2275
bsg36
S'12474692'
p2276
sg38
(lp2277
g5
(g9
S'\xe6\x12\x87\xa7\x97\xbe\xff\xbf'
p2278
tp2279
Rp2280
ag5
(g9
S'h\xa5\x92p\xd4\xa9\xa0?'
p2281
tp2282
Rp2283
asg46
(lp2284
g5
(g9
S'c\x1eAs\xad\xbe\xff\xbf'
p2285
tp2286
Rp2287
ag2283
asg51
F0.0
sg52
F1.7
sg53
(lp2288
F1.11
aF1.7
asg55
(lp2289
g5
(g9
S'\xa6\x08\x9b\xcddqM@'
p2290
tp2291
Rp2292
ag5
(g9
S'"\x1f\xd24*\xc0\xbd?'
p2293
tp2294
Rp2295
asg63
F0.0
sg64
(lp2296
g5
(g9
S'E\x8c\xeb\xbe\x96\xbe\xff\xbf'
p2297
tp2298
Rp2299
ag5
(g9
S'h\xa5\x92p\xd4\xa9\xa0?'
p2300
tp2301
Rp2302
asg72
g5
(g9
S'\x00\x00\x00\x00\x00\x00\x00\x00'
p2303
tp2304
Rp2305
sg76
(lp2306
g5
(g9
S'[q\xa8\x8a\xac\xbe\xff\xbf'
p2307
tp2308
Rp2309
ag2283
asg81
(lp2310
F11.72
asg83
(lp2311
g2309
ag2283
asg85
(lp2312
g5
(g9
S'E\x8c\xeb\xbe\x96\xbe\xff\xbf'
p2313
tp2314
Rp2315
ag5
(g9
S'h\xa5\x92p\xd4\xa9\xa0?'
p2316
tp2317
Rp2318
assS'SAMPL5_044'
p2319
(dp2320
g3
(lp2321
g5
(g9
S'\xfdi\x89\xc4\x98\x19S@'
p2322
tp2323
Rp2324
ag5
(g9
S'\x8e\xdbAW\x85Z\xc7?'
p2325
tp2326
Rp2327
asg18
S'c1ccc2c(c1)cc(c(=O)o2)C(=O)Nc3ccc4c(c3)scn4'
p2328
sg20
F11.71
sg21
g22
(g23
(I0
tp2329
g25
tp2330
Rp2331
(I1
(I2
tp2332
g31
I00
S'%a\x07\xfa\xce^\x04@\xc0\xbc\xc6\x06\xe0e\xa3?'
p2333
tp2334
bsg36
S'4987019'
p2335
sg38
(lp2336
g5
(g9
S'_\xc8\x0b\xec\xce^\x04@'
p2337
tp2338
Rp2339
ag5
(g9
S'\xc0\xbc\xc6\x06\xe0e\xa3?'
p2340
tp2341
Rp2342
asg46
(lp2343
g5
(g9
S'\xa7\xe91\xc5\xc3^\x04@'
p2344
tp2345
Rp2346
ag2342
asg51
F0.0
sg52
F0.78
sg53
(lp2347
F0.78
aF0.5
aF-1.29
asg55
(lp2348
g5
(g9
S'w\xbe\xc2\x03\xcf\xeeN@'
p2349
tp2350
Rp2351
ag5
(g9
S'\x94\xefI!\xb4\xb8\xbd?'
p2352
tp2353
Rp2354
asg63
F0.0
sg64
(lp2355
g5
(g9
S'%a\x07\xfa\xce^\x04@'
p2356
tp2357
Rp2358
ag5
(g9
S'\xc0\xbc\xc6\x06\xe0e\xa3?'
p2359
tp2360
Rp2361
asg72
g5
(g9
S'\x00\x00\x00\x00\x00\x00\x00\x00'
p2362
tp2363
Rp2364
sg76
(lp2365
g5
(g9
S'\x8bU-\xd3\xc3^\x04@'
p2366
tp2367
Rp2368
ag2342
asg81
(lp2369
F11.71
asg83
(lp2370
g2368
ag2342
asg85
(lp2371
g5
(g9
S'%a\x07\xfa\xce^\x04@'
p2372
tp2373
Rp2374
ag5
(g9
S'\xc0\xbc\xc6\x06\xe0e\xa3?'
p2375
tp2376
Rp2377
assS'SAMPL5_048'
p2378
(dp2379
g3
(lp2380
g5
(g9
S'\xdb|\x96w\xfe\x1fS@'
p2381
tp2382
Rp2383
ag5
(g9
S'\xc6\xb0\xd1\xa5\xee\xd8\xc8?'
p2384
tp2385
Rp2386
asg18
S'c1ccc2c(c1)nc(s2)c3cccc(c3)NC(=O)c4ccno4'
p2387
sg20
F11.23
sg21
g22
(g23
(I0
tp2388
g25
tp2389
Rp2390
(I1
(I2
tp2391
g31
I00
S'\xb3.u\x0fk\x0e\xf2?-\xdd"\x10\xf7\xd6\xa4?'
p2392
tp2393
bsg36
S'5627798'
p2394
sg38
(lp2395
g5
(g9
S'\xbb@\x8a\x92j\x0e\xf2?'
p2396
tp2397
Rp2398
ag5
(g9
S'-\xdd"\x10\xf7\xd6\xa4?'
p2399
tp2400
Rp2401
asg46
(lp2402
g5
(g9
S",\xeea8'\x0e\xf2?"
p2403
tp2404
Rp2405
ag2401
asg51
F0.0
sg52
F1.43
sg53
(lp2406
F1.43
aF0.29
asg55
(lp2407
g5
(g9
S'\xb0\xa3_N\xbb\x83Q@'
p2408
tp2409
Rp2410
ag5
(g9
S'\xa8\x9d\xf3U\xddV\xc0?'
p2411
tp2412
Rp2413
asg63
F0.0
sg64
(lp2414
g5
(g9
S'\xb3.u\x0fk\x0e\xf2?'
p2415
tp2416
Rp2417
ag5
(g9
S'-\xdd"\x10\xf7\xd6\xa4?'
p2418
tp2419
Rp2420
asg72
g5
(g9
S'\x00\x00\x00\x00\x00\x00\x00\x00'
p2421
tp2422
Rp2423
sg76
(lp2424
g5
(g9
S"p!H\xb5'\x0e\xf2?"
p2425
tp2426
Rp2427
ag2401
asg81
(lp2428
F11.23
asg83
(lp2429
g2427
ag2401
asg85
(lp2430
g5
(g9
S'\xb3.u\x0fk\x0e\xf2?'
p2431
tp2432
Rp2433
ag5
(g9
S'-\xdd"\x10\xf7\xd6\xa4?'
p2434
tp2435
Rp2436
assS'SAMPL5_046'
p2437
(dp2438
g3
(lp2439
g5
(g9
S'6\x11\xf2[SeQ@'
p2440
tp2441
Rp2442
ag5
(g9
S'\xaa\x19\xb6C{\xf2\xc7?'
p2443
tp2444
Rp2445
asg18
S'CSc1ccc(cc1)CC(=O)Nc2c3ccsc3ncn2'
p2446
sg20
F10.04
sg21
g22
(g23
(I0
tp2447
g25
tp2448
Rp2449
(I1
(I2
tp2450
g31
I00
S'\x8e>\x9c;\x07\x89\xff?L\xe5\xbd]Ra\xa4?'
p2451
tp2452
bsg36
S'12046880'
p2453
sg38
(lp2454
g5
(g9
S'\xed\xb7\x00S\x06\x89\xff?'
p2455
tp2456
Rp2457
ag5
(g9
S'L\xe5\xbd]Ra\xa4?'
p2458
tp2459
Rp2460
asg46
(lp2461
g5
(g9
S'\x9a\xc3\x8aG\xf4\x84\xff?'
p2462
tp2463
Rp2464
ag2460
asg51
F0.0
sg52
F1.7
sg53
(lp2465
F1.7
aF0.84
aF-0.88
asg55
(lp2466
g5
(g9
S'\x19a\xb7\x93\x9f*M@'
p2467
tp2468
Rp2469
ag5
(g9
S'\xffk\xfe\x08\x95\x80\xc0?'
p2470
tp2471
Rp2472
asg63
F0.0
sg64
(lp2473
g5
(g9
S'\x8e>\x9c;\x07\x89\xff?'
p2474
tp2475
Rp2476
ag5
(g9
S'L\xe5\xbd]Ra\xa4?'
p2477
tp2478
Rp2479
asg72
g5
(g9
S':\xc6\xe1\xd6\xfe\x9dE\xbf'
p2480
tp2481
Rp2482
sg76
(lp2483
g5
(g9
S'\xb7/\x9e/\xf5\x84\xff?'
p2484
tp2485
Rp2486
ag2460
asg81
(lp2487
F10.04
asg83
(lp2488
g2486
ag2460
asg85
(lp2489
g5
(g9
S'Ub\xc1{S\x86\xff?'
p2490
tp2491
Rp2492
ag5
(g9
S'L\xe5\xbd]Ra\xa4?'
p2493
tp2494
Rp2495
assS'SAMPL5_006'
p2496
(dp2497
g3
(lp2498
g5
(g9
S'\xbeB\x9e\xb7\xa2\x99H@'
p2499
tp2500
Rp2501
ag5
(g9
S'j\x11\xbd|\xd9v\xc4?'
p2502
tp2503
Rp2504
asg18
S'C=C(Cn1c2ccccc2nc1CO)Br'
p2505
sg20
F10.9
sg21
g22
(g23
(I0
tp2506
g25
tp2507
Rp2508
(I1
(I2
tp2509
g31
I00
S'^D\xfb\xe2rz\xf5?\x12\xa2\x8aoxs\xa1?'
p2510
tp2511
bsg36
S'2118862'
p2512
sg38
(lp2513
g5
(g9
S'\xab\xacw"\xccA\xf5?'
p2514
tp2515
Rp2516
ag5
(g9
S'\x12\xa2\x8aoxs\xa1?'
p2517
tp2518
Rp2519
asg46
(lp2520
g5
(g9
S'\xc7+\xa7\xa9@A\xf5?'
p2521
tp2522
Rp2523
ag2519
asg51
F0.0
sg52
F5.91
sg53
(lp2524
F5.91
aF-1.98
asg55
(lp2525
g5
(g9
S'\x93nKK\xd9\xc4D@'
p2526
tp2527
Rp2528
ag5
(g9
S'k\xd3#\xc5Oa\xbc?'
p2529
tp2530
Rp2531
asg63
F0.0
sg64
(lp2532
g5
(g9
S'^D\xfb\xe2rz\xf5?'
p2533
tp2534
Rp2535
ag5
(g9
S'\x12\xa2\x8aoxs\xa1?'
p2536
tp2537
Rp2538
asg72
g5
(g9
S'!\x8a|\x8dp\xd1\x86\xbf'
p2539
tp2540
Rp2541
sg76
(lp2542
g2516
ag2519
asg81
(lp2543
F10.9
asg83
(lp2544
g5
(g9
S'\x89\xeb\xf6\xe6\xe2y\xf5?'
p2545
tp2546
Rp2547
ag2519
asg85
(lp2548
g5
(g9
S'JK\xe0\x01\xd0L\xf5?'
p2549
tp2550
Rp2551
ag5
(g9
S'\x12\xa2\x8aoxs\xa1?'
p2552
tp2553
Rp2554
assS'SAMPL5_063'
p2555
(dp2556
g3
(lp2557
g5
(g9
S'M\xef\x9bhT\xa7J@'
p2558
tp2559
Rp2560
ag5
(g9
S'l\xc0l@\xa4\x14\xc5?'
p2561
tp2562
Rp2563
asg18
S'C1C[C@H](CNC1)N2CCC(CC2)C(=O)N'
p2564
sg20
F13.25
sg21
g22
(g23
(I0
tp2565
g25
tp2566
Rp2567
(I1
(I2
tp2568
g31
I00
S'\xd69\xe2]\xac\xb6\r\xc0\xc8\x08\x8a\xa4x\xcb\xa1?'
p2569
tp2570
bsg36
S'38498425'
p2571
sg38
(lp2572
g5
(g9
S'\xa8t\x02U\x92\x06\x18\xc0'
p2573
tp2574
Rp2575
ag5
(g9
S'\xc8\x08\x8a\xa4x\xcb\xa1?'
p2576
tp2577
Rp2578
asg46
(lp2579
g5
(g9
S' ;8U\x92\x06\x18\xc0'
p2580
tp2581
Rp2582
ag2578
asg51
F-3.3279
sg52
F9.69
sg53
(lp2583
F9.69
aF8.66
aF-0.31
asg55
(lp2584
g5
(g9
S'\x86\x96\x04\xb1\x81\xa0R@'
p2585
tp2586
Rp2587
ag5
(g9
S'\x98\xd1\xc5;kP\xbc?'
p2588
tp2589
Rp2590
asg63
F-2.446985294117647
sg64
(lp2591
g5
(g9
S'\xd49A\xb2\x0c\xa5\x18\xc0'
p2592
tp2593
Rp2594
ag5
(g9
S'\xc8\x08\x8a\xa4x\xcb\xa1?'
p2595
tp2596
Rp2597
asg72
g5
(g9
S'E\t!\x93\x06Y\x18\xc0'
p2598
tp2599
Rp2600
sg76
(lp2601
g2575
ag2578
asg81
(lp2602
F13.25
aF13.25
asg83
(lp2603
g5
(g9
S')q8\xb0\xac\xb6\r\xc0'
p2604
tp2605
Rp2606
ag2578
asg85
(lp2607
g5
(g9
S'\x18\x13\ta.\x9a#\xc0'
p2608
tp2609
Rp2610
ag5
(g9
S'\xc8\x08\x8a\xa4x\xcb\xa1?'
p2611
tp2612
Rp2613
assS'SAMPL5_047'
p2614
(dp2615
g3
(lp2616
g5
(g9
S'\xa6\xc1\xd1\x11c\xd6P@'
p2617
tp2618
Rp2619
ag5
(g9
S'YL^\x85Z\x8f\xc6?'
p2620
tp2621
Rp2622
asg18
S'c1cnoc1C(=O)Nc2c(c3c(s2)CCCC3)C#N'
p2623
sg20
F11.35
sg21
g22
(g23
(I0
tp2624
g25
tp2625
Rp2626
(I1
(I2
tp2627
g31
I00
S'4\xfe\x15>\xc7\xdf\t@\xc5\xf4\xddA\tw\xa2?'
p2628
tp2629
bsg36
S'5627778'
p2630
sg38
(lp2631
g5
(g9
S'\xd1\x1f\xbe=\xc7\xdf\t@'
p2632
tp2633
Rp2634
ag5
(g9
S'\xc5\xf4\xddA\tw\xa2?'
p2635
tp2636
Rp2637
asg46
(lp2638
g5
(g9
S'\xd6\xa7\xdc\xb1\xad\xdf\t@'
p2639
tp2640
Rp2641
ag2637
asg51
F-1.3858
sg52
F-0.83
sg53
(lp2642
F-0.83
asg55
(lp2643
g5
(g9
S'\xd1\xe5\xe0\x17\xbdqH@'
p2644
tp2645
Rp2646
ag5
(g9
S'\xa4mn\x85z:\xbb?'
p2647
tp2648
Rp2649
asg63
F-1.018970588235294
sg64
(lp2650
g5
(g9
S'\x8e\x8a\xd50\xed\xb8\x01@'
p2651
tp2652
Rp2653
ag5
(g9
S'\xc5\xf4\xddA\tw\xa2?'
p2654
tp2655
Rp2656
asg72
g5
(g9
S'\x00\x00\x00\x00\x00\x00\x00\x00'
p2657
tp2658
Rp2659
sg76
(lp2660
g5
(g9
S'\xb3\x834\xb2\xad\xdf\t@'
p2661
tp2662
Rp2663
ag2637
asg81
(lp2664
F11.35
asg83
(lp2665
g2663
ag2637
asg85
(lp2666
g5
(g9
S'4\xfe\x15>\xc7\xdf\t@'
p2667
tp2668
Rp2669
ag5
(g9
S'\xc5\xf4\xddA\tw\xa2?'
p2670
tp2671
Rp2672
assS'SAMPL5_055'
p2673
(dp2674
g3
(lp2675
g5
(g9
S'\xf6|]\x1a\xa0\x87E@'
p2676
tp2677
Rp2678
ag5
(g9
S':h*&\xeb\xe4\xbf?'
p2679
tp2680
Rp2681
asg18
S'c1ccc2c(c1)ncc(n2)C(=O)N'
p2682
sg20
F10.75
sg21
g22
(g23
(I0
tp2683
g25
tp2684
Rp2685
(I1
(I2
tp2686
g31
I00
S'\xf1\xfc\xfe\xbcc\n\xe1\xbf\xf4\xeeG\xd6\xbcL\x9b?'
p2687
tp2688
bsg36
S'3800934'
p2689
sg38
(lp2690
g5
(g9
S'\xbe\x8d\xa5\xbec\n\xe1\xbf'
p2691
tp2692
Rp2693
ag5
(g9
S'\xf4\xeeG\xd6\xbcL\x9b?'
p2694
tp2695
Rp2696
asg46
(lp2697
g5
(g9
S'\xb6\xf8+|\xfa\x0b\xe1\xbf'
p2698
tp2699
Rp2700
ag2696
asg51
F0.0
sg52
F-0.75
sg53
(lp2701
F-0.75
aF-2.22
aF-1.9
asg55
(lp2702
g5
(g9
S'4\xf0\xeaH\xb2\x0cG@'
p2703
tp2704
Rp2705
ag5
(g9
S'\xfd\x13\xf6)\x92^\xb6?'
p2706
tp2707
Rp2708
asg63
F0.0
sg64
(lp2709
g5
(g9
S'\xf1\xfc\xfe\xbcc\n\xe1\xbf'
p2710
tp2711
Rp2712
ag5
(g9
S'\xf4\xeeG\xd6\xbcL\x9b?'
p2713
tp2714
Rp2715
asg72
g5
(g9
S'\x00\x00\x00\x00\x00\x00\x00\x00'
p2716
tp2717
Rp2718
sg76
(lp2719
g5
(g9
S'7\x98\x85z\xfa\x0b\xe1\xbf'
p2720
tp2721
Rp2722
ag2696
asg81
(lp2723
F10.75
aF10.75
asg83
(lp2724
g2722
ag2696
asg85
(lp2725
g5
(g9
S'\xf1\xfc\xfe\xbcc\n\xe1\xbf'
p2726
tp2727
Rp2728
ag5
(g9
S'\xf4\xeeG\xd6\xbcL\x9b?'
p2729
tp2730
Rp2731
assS'SAMPL5_088'
p2732
(dp2733
g3
(lp2734
g5
(g9
S'|\x88\x9fojXM@'
p2735
tp2736
Rp2737
ag5
(g9
S'\xaf\\\x8b\xbf\xd1\xe6\xc9?'
p2738
tp2739
Rp2740
asg18
S'CCN(Cc1ccncc1)C(=O)[C@H](CO)c2ccccc2'
p2741
sg20
F14.6
sg21
g22
(g23
(I0
tp2742
g25
tp2743
Rp2744
(I1
(I2
tp2745
g31
I00
S'\xf2\xa8\xe8\xb4\xacA\xa5\xbf\xe5!H^\x9d\x88\xa5?'
p2746
tp2747
bsg36
g404
sg38
(lp2748
g5
(g9
S'V\x8d\xe5\x8f\xd1/\xad\xbf'
p2749
tp2750
Rp2751
ag5
(g9
S'\xe5!H^\x9d\x88\xa5?'
p2752
tp2753
Rp2754
asg46
(lp2755
g5
(g9
S'\x0fJ\x08s\xd2/\xad\xbf'
p2756
tp2757
Rp2758
ag2754
asg51
F0.0
sg52
F5.96
sg53
(lp2759
F5.96
aF-0.13
aF-2.19
asg55
(lp2760
g5
(g9
S'\x9cN\xb6\xb6\xbfvM@'
p2761
tp2762
Rp2763
ag5
(g9
S'/\x169t\x84\x88\xc0?'
p2764
tp2765
Rp2766
asg63
F0.0
sg64
(lp2767
g5
(g9
S'\xf2\xa8\xe8\xb4\xacA\xa5\xbf'
p2768
tp2769
Rp2770
ag5
(g9
S'\xe5!H^\x9d\x88\xa5?'
p2771
tp2772
Rp2773
asg72
g5
(g9
S'e\x1b,\x9f\x9e\xab\x89\xbf'
p2774
tp2775
Rp2776
sg76
(lp2777
g2751
ag2754
asg81
(lp2778
F14.6
asg83
(lp2779
g5
(g9
S'\xdf\x93J\xa0\xadA\xa5\xbf'
p2780
tp2781
Rp2782
ag2754
asg85
(lp2783
g5
(g9
S'\xcb\xaf\xb3\\\x94\xac\xab\xbf'
p2784
tp2785
Rp2786
ag5
(g9
S'\xe5!H^\x9d\x88\xa5?'
p2787
tp2788
Rp2789
assS'SAMPL5_092'
p2790
(dp2791
g3
(lp2792
g5
(g9
S'I\x8d\xae\x83\xa4T[@'
p2793
tp2794
Rp2795
ag5
(g9
S'\xe1\xd4\xb9.\xaa\xb1\xd3?'
p2796
tp2797
Rp2798
asg18
S'CC(=O)N1CCN(CC1)c2ccc(cc2)OC[C@H]3CO[C@](O3)(Cn4ccnc4)c5ccc(cc5Cl)Cl'
p2799
sg20
Nsg21
g22
(g23
(I0
tp2800
g25
tp2801
Rp2802
(I1
(I2
tp2803
g31
I00
S'\xcf\xe04\x8f\x16f\xf8?\xabE~%\xc1i\xb4?'
p2804
tp2805
bsg36
g404
sg38
(lp2806
g5
(g9
S'\xba\xf5\xa9\xc7aL\xf5?'
p2807
tp2808
Rp2809
ag5
(g9
S'\xabE~%\xc1i\xb4?'
p2810
tp2811
Rp2812
asg46
(lp2813
g5
(g9
S'\xba\xf5\xa9\xc7aL\xf5?'
p2814
tp2815
Rp2816
ag2812
asg51
F-0.0001
sg52
F7.15
sg53
(lp2817
F5.52
aF7.15
aF0.27
asg55
(lp2818
g5
(g9
S"\x81{\x06\xaf\x91'Y@"
p2819
tp2820
Rp2821
ag5
(g9
S'9\x05\x8c\x8a\x9ev\xd5?'
p2822
tp2823
Rp2824
asg63
F-7.352941176470588e-05
sg64
(lp2825
g5
(g9
S'O-Nu\xc9e\xf8?'
p2826
tp2827
Rp2828
ag5
(g9
S'\xabE~%\xc1i\xb4?'
p2829
tp2830
Rp2831
asg72
g5
(g9
S'\x00>\xa59p\xc7\xc8\xbf'
p2832
tp2833
Rp2834
sg76
(lp2835
g2809
ag2812
asg81
(lp2836
sg83
(lp2837
g5
(g9
S'\xcf\xe04\x8f\x16f\xf8?'
p2838
tp2839
Rp2840
ag2812
asg85
(lp2841
g5
(g9
S'\x0f9\x00\x88(M\xf5?'
p2842
tp2843
Rp2844
ag5
(g9
S'\xabE~%\xc1i\xb4?'
p2845
tp2846
Rp2847
assS'SAMPL5_090'
p2848
(dp2849
g3
(lp2850
g5
(g9
S'\x8b\xc2#\x9d\xb8\xb7Q@'
p2851
tp2852
Rp2853
ag5
(g9
S"H+f3\x12'\xca?"
p2854
tp2855
Rp2856
asg18
S'Cc1cc2c(cc1C)nc(c(n2)c3ccccn3)c4ccccn4'
p2857
sg20
Nsg21
g22
(g23
(I0
tp2858
g25
tp2859
Rp2860
(I1
(I2
tp2861
g31
I00
S"\xe9\x15\xd6\xdc\xb6G\x11@\xbb^\x07\xd5'z\xa7?"
p2862
tp2863
bsg36
g404
sg38
(lp2864
g5
(g9
S'P\xeay\x19:G\x11@'
p2865
tp2866
Rp2867
ag5
(g9
S"\xbb^\x07\xd5'z\xa7?"
p2868
tp2869
Rp2870
asg46
(lp2871
g5
(g9
S'P\xeay\x19:G\x11@'
p2872
tp2873
Rp2874
ag2870
asg51
F0.0
sg52
F4.44
sg53
(lp2875
F-1.32
aF-1.32
aF4.44
aF4.44
asg55
(lp2876
g5
(g9
S'{\xd8\xa5o\x1e\x1bG@'
p2877
tp2878
Rp2879
ag5
(g9
S'\xe4l|\x9fB\xf0\xc4?'
p2880
tp2881
Rp2882
asg63
F0.0
sg64
(lp2883
g5
(g9
S'\xe9\x15\xd6\xdc\xb6G\x11@'
p2884
tp2885
Rp2886
ag5
(g9
S"\xbb^\x07\xd5'z\xa7?"
p2887
tp2888
Rp2889
asg72
g5
(g9
S'm>\xaci\x1b73\xbf'
p2890
tp2891
Rp2892
sg76
(lp2893
g2867
ag2870
asg81
(lp2894
sg83
(lp2895
g5
(g9
S'\xe9\x15\xd6\xdc\xb6G\x11@'
p2896
tp2897
Rp2898
ag2870
asg85
(lp2899
g5
(g9
S'8oh\x00jG\x11@'
p2900
tp2901
Rp2902
ag5
(g9
S"\xbb^\x07\xd5'z\xa7?"
p2903
tp2904
Rp2905
assS'SAMPL5_005'
p2906
(dp2907
g3
(lp2908
g5
(g9
S'\xb5^-\x01\xa8>Q@'
p2909
tp2910
Rp2911
ag5
(g9
S'\n(\x15\xfd\xe3j\xc6?'
p2912
tp2913
Rp2914
asg18
S'Cn1ccnc1SCC(=O)Nc2ccc3c(c2)OCO3'
p2915
sg20
F11.49
sg21
g22
(g23
(I0
tp2916
g25
tp2917
Rp2918
(I1
(I2
tp2919
g31
I00
S'l\x0bC\x93\x18\xa6\xf0?\x84\x99\x9d_\xc8^\xa6?'
p2920
tp2921
bsg36
S'1363085'
p2922
sg38
(lp2923
g5
(g9
S'\x88\x93\x13\xd5`\x07\xf0?'
p2924
tp2925
Rp2926
ag5
(g9
S'\x84\x99\x9d_\xc8^\xa6?'
p2927
tp2928
Rp2929
asg46
(lp2930
g5
(g9
S'\x19\xafG\xfa>\x07\xf0?'
p2931
tp2932
Rp2933
ag2929
asg51
F0.0
sg52
F6.37
sg53
(lp2934
F6.37
aF0.04
asg55
(lp2935
g5
(g9
S'\xd9z\x19u\x0f\x85O@'
p2936
tp2937
Rp2938
ag5
(g9
S'\xeby>\xdf\xf8\xb9\xc6?'
p2939
tp2940
Rp2941
asg63
F0.0
sg64
(lp2942
g5
(g9
S'l\x0bC\x93\x18\xa6\xf0?'
p2943
tp2944
Rp2945
ag5
(g9
S'\x84\x99\x9d_\xc8^\xa6?'
p2946
tp2947
Rp2948
asg72
g5
(g9
S'y\x91h\xdcx\x13\xa1\xbf'
p2949
tp2950
Rp2951
sg76
(lp2952
g2926
ag2929
asg81
(lp2953
F11.49
asg83
(lp2954
g5
(g9
S'\x03r\xaa\x8f\xf3\xa5\xf0?'
p2955
tp2956
Rp2957
ag2929
asg85
(lp2958
g5
(g9
S'\xe0\xc6_\xcc|\x1d\xf0?'
p2959
tp2960
Rp2961
ag5
(g9
S'\x84\x99\x9d_\xc8^\xa6?'
p2962
tp2963
Rp2964
assS'SAMPL5_042'
p2965
(dp2966
g3
(lp2967
g5
(g9
S'\xf3\x1f(\xf1q:P@'
p2968
tp2969
Rp2970
ag5
(g9
S'}9\x97\xd1.\xd0\xc7?'
p2971
tp2972
Rp2973
asg18
S'c1ccc(cc1)c2ccccc2NC(=O)c3ccc(=O)[nH]n3'
p2974
sg20
F8.57
sg21
g22
(g23
(I0
tp2975
g25
tp2976
Rp2977
(I1
(I2
tp2978
g31
I00
S'`k\xfe\x1e\xf6\xbe\xf5\xbf|\xb5\xb1l\xdb\xc5\xa7?'
p2979
tp2980
bsg36
S'1552842'
p2981
sg38
(lp2982
g5
(g9
S'*\x9e\xab-\xf6\xbe\xf5\xbf'
p2983
tp2984
Rp2985
ag5
(g9
S'|\xb5\xb1l\xdb\xc5\xa7?'
p2986
tp2987
Rp2988
asg46
(lp2989
g5
(g9
S'[\xf6\xf1@V3\xf6\xbf'
p2990
tp2991
Rp2992
ag2988
asg51
F0.0
sg52
F0.5
sg53
(lp2993
F-1.73
aF0.5
asg55
(lp2994
g5
(g9
S'\x81\xdd\x87\xef\xf2*R@'
p2995
tp2996
Rp2997
ag5
(g9
S'N\xd0m\x1bE)\xc8?'
p2998
tp2999
Rp3000
asg63
F0.0
sg64
(lp3001
g5
(g9
S'`k\xfe\x1e\xf6\xbe\xf5\xbf'
p3002
tp3003
Rp3004
ag5
(g9
S'|\xb5\xb1l\xdb\xc5\xa7?'
p3005
tp3006
Rp3007
asg72
g5
(g9
S'9\\\xce:\xd2\xb1\x98\xbf'
p3008
tp3009
Rp3010
sg76
(lp3011
g5
(g9
S'\x10\xb223V3\xf6\xbf'
p3012
tp3013
Rp3014
ag2988
asg81
(lp3015
F11.33
aF8.57
asg83
(lp3016
g3014
ag2988
asg85
(lp3017
g5
(g9
S'\xd1\xa4\xe9g\xbd!\xf6\xbf'
p3018
tp3019
Rp3020
ag5
(g9
S'|\xb5\xb1l\xdb\xc5\xa7?'
p3021
tp3022
Rp3023
assS'SAMPL5_033'
p3024
(dp3025
g3
(lp3026
g5
(g9
S'\x00u\x01\x14\x9f\xecQ@'
p3027
tp3028
Rp3029
ag5
(g9
S'\xb9;\xa0*0\xd8\xca?'
p3030
tp3031
Rp3032
asg18
S'Cc1ccc(cc1NC(=O)N2CCCCC[C@@H]2c3cccs3)Cl'
p3033
sg20
F12.17
sg21
g22
(g23
(I0
tp3034
g25
tp3035
Rp3036
(I1
(I2
tp3037
g31
I00
S'q\xb8\xb2\xcb\r\x92\x0e@\r\x95\x0c\xfb\xe5\x8d\xa6?'
p3038
tp3039
bsg36
S'16363773'
p3040
sg38
(lp3041
g5
(g9
S';\x18\xdc\t\t\x92\x0e@'
p3042
tp3043
Rp3044
ag5
(g9
S'\r\x95\x0c\xfb\xe5\x8d\xa6?'
p3045
tp3046
Rp3047
asg46
(lp3048
g5
(g9
S'Xw\xfb+\x05\x92\x0e@'
p3049
tp3050
Rp3051
ag3047
asg51
F0.0
sg52
F2.72
sg53
(lp3052
F2.72
asg55
(lp3053
g5
(g9
S'\xc0<S\x92K\xf1H@'
p3054
tp3055
Rp3056
ag5
(g9
S'_\xe2\xbd\xcaV\xc1\xc1?'
p3057
tp3058
Rp3059
asg63
F0.0
sg64
(lp3060
g5
(g9
S'q\xb8\xb2\xcb\r\x92\x0e@'
p3061
tp3062
Rp3063
ag5
(g9
S'\r\x95\x0c\xfb\xe5\x8d\xa6?'
p3064
tp3065
Rp3066
asg72
g5
(g9
S'\x00\x00\x00\x00\x00\x00\x00\x00'
p3067
tp3068
Rp3069
sg76
(lp3070
g3044
ag3047
asg81
(lp3071
F12.17
asg83
(lp3072
g5
(g9
S'0\xcc\xcc\xed\t\x92\x0e@'
p3073
tp3074
Rp3075
ag3047
asg85
(lp3076
g5
(g9
S'q\xb8\xb2\xcb\r\x92\x0e@'
p3077
tp3078
Rp3079
ag5
(g9
S'\r\x95\x0c\xfb\xe5\x8d\xa6?'
p3080
tp3081
Rp3082
assS'SAMPL5_037'
p3083
(dp3084
g3
(lp3085
g5
(g9
S'B5\xe2\x06\x1f\x12G@'
p3086
tp3087
Rp3088
ag5
(g9
S'\x11\xab\xb9\xdbx\t\xc2?'
p3089
tp3090
Rp3091
asg18
S'CN(C)S(=O)(=O)N1CCNCC1'
p3092
sg20
Nsg21
g22
(g23
(I0
tp3093
g25
tp3094
Rp3095
(I1
(I2
tp3096
g31
I00
S'<\xd5\xac\xed\xee\xb3\x12\xc0\xa8(\xc1)\xc3\x9b\x9f?'
p3097
tp3098
bsg36
S'833953'
p3099
sg38
(lp3100
g5
(g9
S'D>\xc44\xea\xe9\x14\xc0'
p3101
tp3102
Rp3103
ag5
(g9
S'\xa8(\xc1)\xc3\x9b\x9f?'
p3104
tp3105
Rp3106
asg46
(lp3107
g5
(g9
S'D>\xc44\xea\xe9\x14\xc0'
p3108
tp3109
Rp3110
ag3106
asg51
F-0.0065
sg52
F7.81
sg53
(lp3111
F-1.5
aF-0.07
aF7.81
asg55
(lp3112
g5
(g9
S'\xa5*>V(5R@'
p3113
tp3114
Rp3115
ag5
(g9
S'M\xae\xa1\xe8\xaa\x13\xbb?'
p3116
tp3117
Rp3118
asg63
F-0.004779411764705882
sg64
(lp3119
g5
(g9
S'!\xba\x91\xd2\xd3\xb8\x12\xc0'
p3120
tp3121
Rp3122
ag5
(g9
S'\xa8(\xc1)\xc3\x9b\x9f?'
p3123
tp3124
Rp3125
asg72
g5
(g9
S'\xfe\x07(\xdaPF\xe2\xbf'
p3126
tp3127
Rp3128
sg76
(lp3129
g3103
ag3106
asg81
(lp3130
sg83
(lp3131
g5
(g9
S'<\xd5\xac\xed\xee\xb3\x12\xc0'
p3132
tp3133
Rp3134
ag3106
asg85
(lp3135
g5
(g9
S'<\xd6\xf1\x08\xb9\xfc\x14\xc0'
p3136
tp3137
Rp3138
ag5
(g9
S'\xa8(\xc1)\xc3\x9b\x9f?'
p3139
tp3140
Rp3141
ass.