(dp0
S'pme'
p1
(dp2
I100
(dp3
S'energy'
p4
(lp5
cnumpy.core.multiarray
scalar
p6
(cnumpy
dtype
p7
(S'f8'
p8
I0
I1
tp9
Rp10
(I3
S'<'
p11
NNNI-1
I-1
I0
tp12
bS'\xd0\n\xcc\xed\x92\xd52@'
p13
tp14
Rp15
ag6
(g10
S'\tU.\xb5\x88\xc7\xa9?'
p16
tp17
Rp18
asS'size'
p19
F2.6944
ssI200
(dp20
g4
(lp21
g6
(g10
S'(eb&+\x143@'
p22
tp23
Rp24
ag6
(g10
S'.\xfd\x80\xdc\x07\xb6\xa9?'
p25
tp26
Rp27
asg19
F3.3714
ssI300
(dp28
g4
(lp29
g6
(g10
S'\xda\x0b\xc8\x9au\r3@'
p30
tp31
Rp32
ag6
(g10
S'\xf2\xc1\x81#2\xb0\xa9?'
p33
tp34
Rp35
asg19
F3.8458
ssI400
(dp36
g4
(lp37
g6
(g10
S'W&T\x9b\x13\x033@'
p38
tp39
Rp40
ag6
(g10
S'\x80\t\x81\xc7\xe1\x07\xaa?'
p41
tp42
Rp43
asg19
F4.228
ssI180
(dp44
g4
(lp45
g6
(g10
S'y\x17\x8cSQ\xf52@'
p46
tp47
Rp48
ag6
(g10
S'\xde\xddL\xd6\x9c\xf2\xab?'
p49
tp50
Rp51
asg19
F3.2554
ssI150
(dp52
g4
(lp53
g6
(g10
S'\x84d\xe2\xd4\x8a\x083@'
p54
tp55
Rp56
ag6
(g10
S'\x0f\x1b\x13\x00\x8b\x15\xa9?'
p57
tp58
Rp59
asg19
F3.0688
ssI120
(dp60
g4
(lp61
g6
(g10
S'\xa3j\xd1\xed\x99O3@'
p62
tp63
Rp64
ag6
(g10
S'L\x8f\xe0\xf6p\xd6\xa9?'
p65
tp66
Rp67
asg19
F2.8635
ssI500
(dp68
g4
(lp69
g6
(g10
S'\xe8\x95\xee\xfd\xfc\x1c3@'
p70
tp71
Rp72
ag6
(g10
S'}\xcb)\x01v)\xa9?'
p73
tp74
Rp75
asg19
F4.5523
sssS'rf'
p76
(dp77
I200
(dp78
g4
(lp79
g6
(g10
S'h[\x94\x14\xa683@'
p80
tp81
Rp82
ag6
(g10
S't\xc0\x16\xa5\xeb\n\xaa?'
p83
tp84
Rp85
asg19
F3.3714
ssI300
(dp86
g4
(lp87
g6
(g10
S'\xdb\xdeQ\xe3\xe6!3@'
p88
tp89
Rp90
ag6
(g10
S'\x82:\xd3\xae\x8e\xdd\xa8?'
p91
tp92
Rp93
asg19
F3.8458
ssI400
(dp94
g4
(lp95
g6
(g10
S'\xc2\xea\xf0q\x98@3@'
p96
tp97
Rp98
ag6
(g10
S'\x7f"\x0f\xb4\xc8\xc9\xa9?'
p99
tp100
Rp101
asg19
F4.228
ssI100
(dp102
g4
(lp103
g6
(g10
S'2\x1d\xa2C$\x073@'
p104
tp105
Rp106
ag6
(g10
S'\xe3\x10jM\xe0\x01\xab?'
p107
tp108
Rp109
asg19
F2.6944
ssI500
(dp110
g4
(lp111
g6
(g10
S'W~\xb7\xfd\xbdF3@'
p112
tp113
Rp114
ag6
(g10
S'\xdb/n\xa6\x8b"\xa9?'
p115
tp116
Rp117
asg19
F4.5523
sss.