(dp0
S'pme'
p1
(dp2
S'150'
p3
(dp4
S'energy'
p5
(lp6
cnumpy.core.multiarray
scalar
p7
(cnumpy
dtype
p8
(S'f8'
p9
I0
I1
tp10
Rp11
(I3
S'<'
p12
NNNI-1
I-1
I0
tp13
bS'\x84d\xe2\xd4\x8a\x083@'
p14
tp15
Rp16
ag7
(g11
S'\x0f\x1b\x13\x00\x8b\x15\xa9?'
p17
tp18
Rp19
asS'size'
p20
F3.02832
ssS'120_2'
p21
(dp22
g5
(lp23
g7
(g11
S'A\xce\xe4\xe4\xef73@'
p24
tp25
Rp26
ag7
(g11
S'C\xe9H\x81]\x8e\xa9?'
p27
tp28
Rp29
asg20
F2.81877
ssS'200'
p30
(dp31
g5
(lp32
g7
(g11
S'(eb&+\x143@'
p33
tp34
Rp35
ag7
(g11
S'.\xfd\x80\xdc\x07\xb6\xa9?'
p36
tp37
Rp38
asg20
F3.36411
ssS'300'
p39
(dp40
g5
(lp41
g7
(g11
S'\xda\x0b\xc8\x9au\r3@'
p42
tp43
Rp44
ag7
(g11
S'\xf2\xc1\x81#2\xb0\xa9?'
p45
tp46
Rp47
asg20
F3.8271
ssS'100_2'
p48
(dp49
g5
(lp50
g7
(g11
S'\x93h\x00\xeag\xfb2@'
p51
tp52
Rp53
ag7
(g11
S'\x10\xd8\x1d\x81\x8c\xe4\xaa?'
p54
tp55
Rp56
asg20
F2.6361
ssS'120'
p57
(dp58
g5
(lp59
g7
(g11
S'\xa3j\xd1\xed\x99O3@'
p60
tp61
Rp62
ag7
(g11
S'L\x8f\xe0\xf6p\xd6\xa9?'
p63
tp64
Rp65
asg20
F2.81129
ssS'180'
p66
(dp67
g5
(lp68
g7
(g11
S'y\x17\x8cSQ\xf52@'
p69
tp70
Rp71
ag7
(g11
S'\xde\xddL\xd6\x9c\xf2\xab?'
p72
tp73
Rp74
asg20
F3.22314
ssS'400'
p75
(dp76
g5
(lp77
g7
(g11
S'W&T\x9b\x13\x033@'
p78
tp79
Rp80
ag7
(g11
S'\x80\t\x81\xc7\xe1\x07\xaa?'
p81
tp82
Rp83
asg20
F4.20561
ssS'100'
p84
(dp85
g5
(lp86
g7
(g11
S'\xd0\n\xcc\xed\x92\xd52@'
p87
tp88
Rp89
ag7
(g11
S'\tU.\xb5\x88\xc7\xa9?'
p90
tp91
Rp92
asg20
F2.68497
ssS'150_2'
p93
(dp94
g5
(lp95
g7
(g11
S"\xce\xb3%j'$3@"
p96
tp97
Rp98
ag7
(g11
S'\r3\xd60\xf3:\xa9?'
p99
tp100
Rp101
asg20
F3.01949
ssS'500'
p102
(dp103
g5
(lp104
g7
(g11
S'\xe8\x95\xee\xfd\xfc\x1c3@'
p105
tp106
Rp107
ag7
(g11
S'}\xcb)\x01v)\xa9?'
p108
tp109
Rp110
asg20
F4.54103
sssS'rf'
p111
(dp112
S'300'
p113
(dp114
g5
(lp115
g7
(g11
S'\xdb\xdeQ\xe3\xe6!3@'
p116
tp117
Rp118
ag7
(g11
S'\x82:\xd3\xae\x8e\xdd\xa8?'
p119
tp120
Rp121
asg20
F3.82938
ssS'200'
p122
(dp123
g5
(lp124
g7
(g11
S'h[\x94\x14\xa683@'
p125
tp126
Rp127
ag7
(g11
S't\xc0\x16\xa5\xeb\n\xaa?'
p128
tp129
Rp130
asg20
F3.35112
ssS'100'
p131
(dp132
g5
(lp133
g7
(g11
S'2\x1d\xa2C$\x073@'
p134
tp135
Rp136
ag7
(g11
S'\xe3\x10jM\xe0\x01\xab?'
p137
tp138
Rp139
asg20
F2.6551
ssS'500'
p140
(dp141
g5
(lp142
g7
(g11
S'W~\xb7\xfd\xbdF3@'
p143
tp144
Rp145
ag7
(g11
S'\xdb/n\xa6\x8b"\xa9?'
p146
tp147
Rp148
asg20
F4.53224
ssS'400'
p149
(dp150
g5
(lp151
g7
(g11
S'\xc2\xea\xf0q\x98@3@'
p152
tp153
Rp154
ag7
(g11
S'\x7f"\x0f\xb4\xc8\xc9\xa9?'
p155
tp156
Rp157
asg20
F4.21587
sss.