(dp0
S'SAMPL5_017'
p1
(dp2
S'Smiles'
p3
S'c1ccc2c(c1)c(nc(n2)c3ccccc3O)NC4CCCC4'
p4
sS'eMolecule'
p5
S'2425478'
p6
sS'iupac'
p7
S'2-[4-(cyclopentylamino)quinazolin-2-yl]phenol'
p8
sS'batch'
p9
I0
sS'MW'
p10
F305.37365999999986
sS'data'
p11
cnumpy.core.multiarray
_reconstruct
p12
(cnumpy
ndarray
p13
(I0
tp14
S'b'
p15
tp16
Rp17
(I1
(I2
tp18
cnumpy
dtype
p19
(S'f8'
p20
I0
I1
tp21
Rp22
(I3
S'<'
p23
NNNI-1
I-1
I0
tp24
bI00
S'\x00\x00\x00\x00\x00\x00\x04@333333\xd3?'
p25
tp26
bsS'tautomers'
p27
I100
ssS'SAMPL5_058'
p28
(dp29
g3
S'c1ccc(cc1)n2c(=O)c3ccccc3cn2'
p30
sg5
S'3730323'
p31
sg7
S'2-phenylphthalazin-1-one'
p32
sg9
I0
sg10
F222.2419999999999
sg11
g12
(g13
(I0
tp33
g15
tp34
Rp35
(I1
(I2
tp36
g22
I00
S'\x9a\x99\x99\x99\x99\x99\xe9?\x9a\x99\x99\x99\x99\x99\xb9?'
p37
tp38
bsg27
I1
ssS'SAMPL5_059'
p39
(dp40
g3
S'c1ccc(cc1)c2nc(sn2)N'
p41
sg5
S'711981'
p42
sg7
S'3-phenyl-1,2,4-thiadiazol-5-amine'
p43
sg9
I0
sg10
F177.22627999999997
sg11
g12
(g13
(I0
tp44
g15
tp45
Rp46
(I1
(I2
tp47
g22
I00
S'\xcd\xcc\xcc\xcc\xcc\xcc\xf4\xbf333333\xd3?'
p48
tp49
bsg27
I3
ssS'SAMPL5_013'
p50
(dp51
g3
S'Cc1ccc(cc1)c2nc(c3c(n2)n(c(=O)[nH]3)c4ccccc4)C(=O)N'
p52
sg5
S'16095985'
p53
sg7
S'8-oxo-9-phenyl-2-(p-tolyl)-7~{H}-purine-6-carboxamide'
p54
sg9
I2
sg10
F345.35469999999987
sg11
g12
(g13
(I0
tp55
g15
tp56
Rp57
(I1
(I2
tp58
g22
I00
S'\x00\x00\x00\x00\x00\x00\xf8\xbf\x9a\x99\x99\x99\x99\x99\xd9?'
p59
tp60
bsg27
I11
ssS'SAMPL5_010'
p61
(dp62
g3
S'c1cc(cc(c1)NCc2ccncc2)C(=O)O'
p63
sg5
S'1491855'
p64
sg7
S'3-(4-pyridylmethylamino)benzoic acid'
p65
sg9
I1
sg10
F228.24658
sg11
g12
(g13
(I0
tp66
g15
tp67
Rp68
(I1
(I2
tp69
g22
I00
S'333333\xfb\xbf\x9a\x99\x99\x99\x99\x99\xd9?'
p70
tp71
bsg27
I21
ssS'SAMPL5_004'
p72
(dp73
g3
S'CCOc1ccc(cc1)Nc2cc(c3ccccc3n2)C'
p74
sg5
S'1221528'
p75
sg7
S'~{N}-(4-ethoxyphenyl)-4-methyl-quinolin-2-amine'
p76
sg9
I1
sg10
F278.3483199999999
sg11
g12
(g13
(I0
tp77
g15
tp78
Rp79
(I1
(I2
tp80
g22
I00
S'\x9a\x99\x99\x99\x99\x99\x01@333333\xd3?'
p81
tp82
bsg27
I6
ssS'SAMPL5_074'
p83
(dp84
g3
S'c1nc(c2c(n1)n(cn2)[C@H]3[C@@H]([C@@H]([C@H](O3)CO)O)O)N'
p85
sg5
S''
p86
sg7
S'(2~{R},3~{R},4~{S},5~{R})-2-(6-aminopurin-9-yl)-5-(hydroxymethyl)tetrahydrofuran-3,4-diol'
p87
sg9
I2
sg10
F267.24132000000003
sg11
g12
(g13
(I0
tp88
g15
tp89
Rp90
(I1
(I2
tp91
g22
I00
S'ffffff\xfe\xbf333333\xd3?'
p92
tp93
bsg27
I5
ssS'SAMPL5_075'
p94
(dp95
g3
S'CC(C)NC[C@@H](COc1ccc(cc1)CCOC)O'
p96
sg5
g86
sg7
S'(2~{S})-1-(isopropylamino)-3-[4-(2-methoxyethyl)phenoxy]propan-2-ol'
p97
sg9
I2
sg10
F267.36389999999994
sg11
g12
(g13
(I0
tp98
g15
tp99
Rp100
(I1
(I2
tp101
g22
I00
S'ffffff\x06\xc0333333\xd3?'
p102
tp103
bsg27
I1
ssS'SAMPL5_050'
p104
(dp105
g3
S'Cc1ccc2c(n1)nn3c2nc(cc3O)C'
p106
sg5
S'5663556'
p107
sg7
S'2,8-dimethylpyrido[2,3]pyrazolo[2,4-~{a}]pyrimidin-4-ol'
p108
sg9
I2
sg10
F214.22329999999997
sg11
g12
(g13
(I0
tp109
g15
tp110
Rp111
(I1
(I2
tp112
g22
I00
S'\x9a\x99\x99\x99\x99\x99\t\xc0333333\xe3?'
p113
tp114
bsg27
I42
ssS'SAMPL5_056'
p115
(dp116
g3
S'CC(C)[C@@H]1Cc2c(cc(c(n2)O)C#N)CO1'
p117
sg5
g86
sg7
S'(7~{S})-2-hydroxy-7-isopropyl-7,8-dihydro-5~{H}-pyrano[4,3-b]pyridine-3-carbonitrile'
p118
sg9
I1
sg10
F218.25176
sg11
g12
(g13
(I0
tp119
g15
tp120
Rp121
(I1
(I2
tp122
g22
I00
S'\x00\x00\x00\x00\x00\x00\x04\xc0\x9a\x99\x99\x99\x99\x99\xb9?'
p123
tp124
bsg27
I9
ssS'SAMPL5_071'
p125
(dp126
g3
S'CCOc1cc(c(cc1N2CCOCC2)OCC)N'
p127
sg5
g86
sg7
S'2,5-diethoxy-4-morpholino-aniline'
p128
sg9
I1
sg10
F266.33608
sg11
g12
(g13
(I0
tp129
g15
tp130
Rp131
(I1
(I2
tp132
g22
I00
S'\x9a\x99\x99\x99\x99\x99\xb9\xbf\x00\x00\x00\x00\x00\x00\xe0?'
p133
tp134
bsg27
I24
ssS'SAMPL5_072'
p135
(dp136
g3
S'CN(C)CCOC(c1ccccc1)c2ccccc2'
p137
sg5
g86
sg7
S'2-benzhydryloxy-~{N},~{N}-dimethyl-ethanamine'
p138
sg9
I1
sg10
F255.35473999999988
sg11
g12
(g13
(I0
tp139
g15
tp140
Rp141
(I1
(I2
tp142
g22
I00
S'333333\xe3?333333\xd3?'
p143
tp144
bsg27
I1
ssS'SAMPL5_019'
p145
(dp146
g3
S'Cc1ccc(cc1)Nc2ccnc(n2)Nc3ccc(cc3)C'
p147
sg5
S'43423819'
p148
sg7
S'~{N}2,~{N}4-bis(p-tolyl)pyrimidine-2,4-diamine'
p149
sg9
I2
sg10
F290.3623199999999
sg11
g12
(g13
(I0
tp150
g15
tp151
Rp152
(I1
(I2
tp153
g22
I00
S'333333\xf3?\x9a\x99\x99\x99\x99\x99\xd9?'
p154
tp155
bsg27
I18
ssS'SAMPL5_061'
p156
(dp157
g3
S'Cc1nccc(n1)[C@@]2(CNCCO2)C'
p158
sg5
S'43241882'
p159
sg7
S'(2~{S})-2-methyl-2-(2-methylpyrimidin-4-yl)morpholine'
p160
sg9
I0
sg10
F193.24560000000002
sg11
g12
(g13
(I0
tp161
g15
tp162
Rp163
(I1
(I2
tp164
g22
I00
S'333333\xf7\xbf\n\xd7\xa3p=\n\xb7?'
p165
tp166
bsg27
I4
ssS'SAMPL5_015'
p167
(dp168
g3
S'Cc1ccc2c(c1)c(ncn2)NCC(=O)O'
p169
sg5
S'1355949'
p170
sg7
S'2-[(6-methylquinazolin-4-yl)amino]acetic acid'
p171
sg9
I0
sg10
F217.22394
sg11
g12
(g13
(I0
tp172
g15
tp173
Rp174
(I1
(I2
tp175
g22
I00
S'\x9a\x99\x99\x99\x99\x99\x01\xc0333333\xd3?'
p176
tp177
bsg27
I23
ssS'SAMPL5_086'
p178
(dp179
g3
S'CCCCOc1cc(c2ccccc2n1)C(=O)NCCN(CC)CC'
p180
sg5
g86
sg7
S'2-butoxy-~{N}-[2-(diethylamino)ethyl]quinoline-4-carboxamide'
p181
sg9
I2
sg10
F343.4631599999999
sg11
g12
(g13
(I0
tp182
g15
tp183
Rp184
(I1
(I2
tp185
g22
I00
S'ffffff\xe6?\x9a\x99\x99\x99\x99\x99\xc9?'
p186
tp187
bsg27
I100
ssS'SAMPL5_068'
p188
(dp189
g3
S'c1ccc(cc1)c2c(nnc(n2)c3ccccn3)c4ccccc4'
p190
sg5
g86
sg7
S'5,6-diphenyl-3-(2-pyridyl)-1,2,4-triazine'
p191
sg9
I0
sg10
F310.35195999999985
sg11
g12
(g13
(I0
tp192
g15
tp193
Rp194
(I1
(I2
tp195
g22
I00
S'ffffff\xf6?333333\xd3?'
p196
tp197
bsg27
I1
ssS'SAMPL5_088'
p198
(dp199
g3
S'CCN(Cc1ccncc1)C(=O)[C@H](CO)c2ccccc2'
p200
sg5
g86
sg7
S'(2~{S})-~{N}-ethyl-3-hydroxy-2-phenyl-~{N}-(4-pyridylmethyl)propanamide'
p201
sg9
I2
sg10
F284.3529
sg11
g12
(g13
(I0
tp202
g15
tp203
Rp204
(I1
(I2
tp205
g22
I00
S'ffffff\xfe\xbf333333\xd3?'
p206
tp207
bsg27
I13
ssS'SAMPL5_085'
p208
(dp209
g3
S'c1ccc(cc1)C2(C(=O)NC(=O)N2)c3ccccc3'
p210
sg5
g86
sg7
S'5,5-diphenylimidazolidine-2,4-dione'
p211
sg9
I2
sg10
F252.2679799999999
sg11
g12
(g13
(I0
tp212
g15
tp213
Rp214
(I1
(I2
tp215
g22
I00
S'\x9a\x99\x99\x99\x99\x99\x01\xc0\x9a\x99\x99\x99\x99\x99\xd9?'
p216
tp217
bsg27
I5
ssS'SAMPL5_084'
p218
(dp219
g3
S'c1cc(ccc1C(=O)CCCN2CCC(CC2)(c3ccc(cc3)Cl)O)F'
p220
sg5
g86
sg7
S'4-[4-(4-chlorophenyl)-4-hydroxy-1-piperidyl]-1-(4-fluorophenyl)butan-1-one'
p221
sg9
I2
sg10
F375.86422319999986
sg11
g12
(g13
(I0
tp222
g15
tp223
Rp224
(I1
(I2
tp225
g22
I00
S'\x00\x00\x00\x00\x00\x00\x00\x80\x9a\x99\x99\x99\x99\x99\xc9?'
p226
tp227
bsg27
I5
ssS'SAMPL5_011'
p228
(dp229
g3
S'Cc1cc(nc(n1)Nc2ccccc2C(=O)O)C'
p230
sg5
S'542592'
p231
sg7
S'2-[(4,6-dimethylpyrimidin-2-yl)amino]benzoic acid'
p232
sg9
I1
sg10
F243.26121999999995
sg11
g12
(g13
(I0
tp233
g15
tp234
Rp235
(I1
(I2
tp236
g22
I00
S'\xaeG\xe1z\x14\xae\x07\xc0{\x14\xaeG\xe1z\xb4?'
p237
tp238
bsg27
I25
ssS'SAMPL5_081'
p239
(dp240
g3
S'CC(C)NC[C@H](COc1ccc(cc1)CC(=O)N)O'
p241
sg5
g86
sg7
S'2-[4-[(2~{R})-2-hydroxy-3-(isopropylamino)propoxy]phenyl]acetamide'
p242
sg9
I1
sg10
F266.3360799999999
sg11
g12
(g13
(I0
tp243
g15
tp244
Rp245
(I1
(I2
tp246
g22
I00
S'\x9a\x99\x99\x99\x99\x99\x01\xc0333333\xd3?'
p247
tp248
bsg27
I3
ssS'SAMPL5_080'
p249
(dp250
g3
S'Cn1cnc2c1c(=O)n(c(=O)n2C)C'
p251
sg5
g86
sg7
S'1,3,7-trimethylpurine-2,6-dione'
p252
sg9
I0
sg10
F194.1906
sg11
g12
(g13
(I0
tp253
g15
tp254
Rp255
(I1
(I2
tp256
g22
I00
S'\x9a\x99\x99\x99\x99\x99\x01\xc0\x9a\x99\x99\x99\x99\x99\xc9?'
p257
tp258
bsg27
I1
ssS'SAMPL5_083'
p259
(dp260
g3
S'C[C@H]1/C=C/C=C(\\C(=O)NC\\2=C(C3=C(C(=C4C(=C3C(=O)/C2=C/NN5CCN(CC5)C)C(=O)[C@](O4)(O/C=C/[C@@H]([C@H]([C@H]([C@@H]([C@@H]([C@@H]([C@H]1O)C)O)C)OC(=O)C)C)OC)C)C)O)O)/C'
p261
sg5
g86
sg7
S'[(14~{E},16~{E},18~{Z},20~{S},21~{R},22~{R},23~{R},24~{S},25~{S},26~{R},27~{S},30~{E},42~{S})-25,26,35,36-tetrahydroxy-24-methoxy-20,21,22,23,28,29,42-heptamethyl-30-[[(4-methylpiperazin-1-yl)amino]methylene]-38,39,40-trioxo-55,56-dioxa-43-azatetracyclo[BLAH.BLAH.BLAH.BLAH.BLAH]triaconta-14,16,18(28),29(37),31,33(35),34(36)-heptaen-27-yl] acetate'
p262
sg9
I2
sg10
F822.9402200000005
sg11
g12
(g13
(I0
tp263
g15
tp264
Rp265
(I1
(I2
tp266
g22
I00
S'ffffff\xfe\xbf\x9a\x99\x99\x99\x99\x99\xd9?'
p267
tp268
bsg27
I100
ssS'SAMPL5_082'
p269
(dp270
g3
S'CC/C(=C(\\c1ccccc1)/c2ccc(cc2)OCCN(C)C)/c3ccccc3'
p271
sg5
g86
sg7
S'2-[4-[(~{Z})-1,2-diphenylbut-1-enyl]phenoxy]-~{N},~{N}-dimethyl-ethanamine'
p272
sg9
I2
sg10
F371.51455999999985
sg11
g12
(g13
(I0
tp273
g15
tp274
Rp275
(I1
(I2
tp276
g22
I00
S'\x00\x00\x00\x00\x00\x00\x04@\x9a\x99\x99\x99\x99\x99\xd9?'
p277
tp278
bsg27
I1
ssS'SAMPL5_027'
p279
(dp280
g3
S'c1ccc(cc1)CNc2ncnc(n2)N'
p281
sg5
S'2483781'
p282
sg7
S'~{N}4-benzyl-1,3,5-triazine-2,4-diamine'
p283
sg9
I1
sg10
F201.22784
sg11
g12
(g13
(I0
tp284
g15
tp285
Rp286
(I1
(I2
tp287
g22
I00
S'\xecQ\xb8\x1e\x85\xeb\xfd\xbf\xecQ\xb8\x1e\x85\xeb\xb1?'
p288
tp289
bsg27
I22
ssS'SAMPL5_026'
p290
(dp291
g3
S'Cc1cc(c2c(c1)c(c([nH]2)C)CC(=O)O)C'
p292
sg5
S'703690'
p293
sg7
S'2-(2,5,7-trimethyl-1~{H}-indol-3-yl)acetic acid'
p294
sg9
I1
sg10
F217.26369999999997
sg11
g12
(g13
(I0
tp295
g15
tp296
Rp297
(I1
(I2
tp298
g22
I00
S'\xcd\xcc\xcc\xcc\xcc\xcc\x04\xc0\x9a\x99\x99\x99\x99\x99\xb9?'
p299
tp300
bsg27
I32
ssS'SAMPL5_024'
p301
(dp302
g3
S'Cc1ccc2c(c1)cc3cc(sc3n2)C(=O)Nc4ccc(c(c4)C)C'
p303
sg5
S'16329490'
p304
sg7
S'~{N}-(3,4-dimethylphenyl)-6-methyl-thieno[2,3-b]quinoline-2-carboxamide'
p305
sg9
I2
sg10
F346.4454199999999
sg11
g12
(g13
(I0
tp306
g15
tp307
Rp308
(I1
(I2
tp309
g22
I00
S'\x00\x00\x00\x00\x00\x00\xf0?\x9a\x99\x99\x99\x99\x99\xd9?'
p310
tp311
bsg27
I4
ssS'SAMPL5_021'
p312
(dp313
g3
S'Cc1nn2cc(nc2s1)c3cccc(c3)OC'
p314
sg5
S'31467689'
p315
sg7
S'6-(3-methoxyphenyl)-2-methyl-imidazo[2,1-b][1,3,4]thiadiazole'
p316
sg9
I1
sg10
F245.30023999999995
sg11
g12
(g13
(I0
tp317
g15
tp318
Rp319
(I1
(I2
tp320
g22
I00
S'333333\xf3?333333\xd3?'
p321
tp322
bsg27
I2
ssS'SAMPL5_020'
p323
(dp324
g3
S'CCCC(=O)Nc1nc2ccc(cc2s1)C(C)C'
p325
sg5
S'5522978'
p326
sg7
S'~{N}-(6-isopropyl-1,3-benzothiazol-2-yl)butanamide'
p327
sg9
I0
sg10
F262.3705199999999
sg11
g12
(g13
(I0
tp328
g15
tp329
Rp330
(I1
(I2
tp331
g22
I00
S'\x9a\x99\x99\x99\x99\x99\xf9?333333\xd3?'
p332
tp333
bsg27
I9
ssS'SAMPL5_049'
p334
(dp335
g3
S'c1cc(c(c(c1)Cl)Cl)NC(=O)c2ccno2'
p336
sg5
S'5627856'
p337
sg7
S'~{N}-(2,3-dichlorophenyl)isoxazole-5-carboxamide'
p338
sg9
I2
sg10
F257.07284
sg11
g12
(g13
(I0
tp339
g15
tp340
Rp341
(I1
(I2
tp342
g22
I00
S'\xcd\xcc\xcc\xcc\xcc\xcc\xf4?\x9a\x99\x99\x99\x99\x99\xb9?'
p343
tp344
bsg27
I4
ssS'SAMPL5_048'
p345
(dp346
g3
S'c1ccc2c(c1)nc(s2)c3cccc(c3)NC(=O)c4ccno4'
p347
sg5
S'5627798'
p348
sg7
S'~{N}-[3-(1,3-benzothiazol-2-yl)phenyl]isoxazole-5-carboxamide'
p349
sg9
I1
sg10
F321.3531399999999
sg11
g12
(g13
(I0
tp350
g15
tp351
Rp352
(I1
(I2
tp353
g22
I00
S'\xcd\xcc\xcc\xcc\xcc\xcc\xec?\x9a\x99\x99\x99\x99\x99\xd9?'
p354
tp355
bsg27
I4
ssS'SAMPL5_007'
p356
(dp357
g3
S'c1ccc(cc1)CCNc2c3cc(ccc3ncn2)Br'
p358
sg5
S'1373587'
p359
sg7
S'6-bromo-~{N}-(2-phenylethyl)quinazolin-4-amine'
p360
sg9
I1
sg10
F328.20645999999994
sg11
g12
(g13
(I0
tp361
g15
tp362
Rp363
(I1
(I2
tp364
g22
I00
S'ffffff\xf6?333333\xd3?'
p365
tp366
bsg27
I36
ssS'SAMPL5_060'
p367
(dp368
g3
S'c1ccc2c(c1)c3cc(ncc3[nH]2)C(=O)O'
p369
sg5
S'42618372'
p370
sg7
S'9~{H}-pyrido[3,4-b]indole-3-carboxylic acid'
p371
sg9
I1
sg10
F212.20412000000002
sg11
g12
(g13
(I0
tp372
g15
tp373
Rp374
(I1
(I2
tp375
g22
I00
S'333333\x0f\xc0\x9a\x99\x99\x99\x99\x99\xc9?'
p376
tp377
bsg27
I11
ssS'SAMPL5_067'
p378
(dp379
g3
S'CC(C)NC[C@@H](COc1cccc2c1cccc2)O'
p380
sg5
g86
sg7
S'(2~{S})-1-(isopropylamino)-3-(1-naphthyloxy)propan-2-ol'
p381
sg9
I2
sg10
F259.34343999999993
sg11
g12
(g13
(I0
tp382
g15
tp383
Rp384
(I1
(I2
tp385
g22
I00
S'\xcd\xcc\xcc\xcc\xcc\xcc\xf4\xbf333333\xd3?'
p386
tp387
bsg27
I1
ssS'SAMPL5_065'
p388
(dp389
g3
S'COc1ccc2c(c1)[nH]c3c2CC[N@]4[C@@H]3C[C@H]5[C@@H](C4)C[C@H]([C@@H]([C@H]5C(=O)OC)OC)OC(=O)c6cc(c(c(c6)OC)OC)OC'
p390
sg5
g86
sg7
S'methyl (1~{R},13~{R},15~{S},17~{R},18~{R},19~{S},20~{S})-6,18-dimethoxy-17-(3,4,5-trimethoxybenzoyl)oxy-1,3,11,12,14,15,16,17,18,19,20,21-dodecahydroyohimban-19-carboxylate'
p391
sg9
I2
sg10
F608.6786999999998
sg11
g12
(g13
(I0
tp392
g15
tp393
Rp394
(I1
(I2
tp395
g22
I00
S'ffffff\xe6?\x9a\x99\x99\x99\x99\x99\xc9?'
p396
tp397
bsg27
I6
ssS'SAMPL5_002'
p398
(dp399
g3
S'CCOC(=O)c1c(c2c(c(c(nc2s1)C)C)C)N'
p400
sg5
S'1254130'
p401
sg7
S'ethyl 3-amino-4,5,6-trimethyl-thieno[2,3-b]pyridine-2-carboxylate'
p402
sg9
I2
sg10
F264.34333999999996
sg11
g12
(g13
(I0
tp403
g15
tp404
Rp405
(I1
(I2
tp406
g22
I00
S'ffffff\xf6?333333\xd3?'
p407
tp408
bsg27
I14
ssS'SAMPL5_070'
p409
(dp410
g3
S'CN(C)CCC=C1c2ccccc2CCc3c1cccc3'
p411
sg5
g86
sg7
S"3-(5,6-dihydrodibenzo[1,2-~{d}:2',1'-~{f}][7]annulen-11-ylidene)-~{N},~{N}-dimethyl-propan-1-amine"
p412
sg9
I0
sg10
F277.40331999999984
sg11
g12
(g13
(I0
tp413
g15
tp414
Rp415
(I1
(I2
tp416
g22
I00
S'\x9a\x99\x99\x99\x99\x99\xf9?333333\xd3?'
p417
tp418
bsg27
I1
ssS'SAMPL5_069'
p419
(dp420
g3
S'C[N@]1CCc2cc(c(c-3c2[C@@H]1Cc4c3cc(c(c4)O)OC)OC)O'
p421
sg5
g86
sg7
S'(6~{S},6~{a}~{S})-1,10-dimethoxy-6-methyl-5,6,6~{a},7-tetrahydro-4~{H}-dibenzo[de,g]quinoline-2,9-diol'
p422
sg9
I2
sg10
F327.37433999999985
sg11
g12
(g13
(I0
tp423
g15
tp424
Rp425
(I1
(I2
tp426
g22
I00
S'\xcd\xcc\xcc\xcc\xcc\xcc\xf4\xbf333333\xd3?'
p427
tp428
bsg27
I12
ssS'SAMPL5_042'
p429
(dp430
g3
S'c1ccc(cc1)c2ccccc2NC(=O)c3ccc(=O)[nH]n3'
p431
sg5
S'1552842'
p432
sg7
S'6-oxo-~{N}-(2-phenylphenyl)-1~{H}-pyridazine-3-carboxamide'
p433
sg9
I1
sg10
F291.30402000000004
sg11
g12
(g13
(I0
tp434
g15
tp435
Rp436
(I1
(I2
tp437
g22
I00
S'\x9a\x99\x99\x99\x99\x99\xf1\xbf333333\xd3?'
p438
tp439
bsg27
I19
ssS'SAMPL5_045'
p440
(dp441
g3
S'CCC(=O)Nc1ccc2c(c1)ncs2'
p442
sg5
S'12474692'
p443
sg7
S'~{N}-(1,3-benzothiazol-5-yl)propanamide'
p444
sg9
I0
sg10
F206.2642
sg11
g12
(g13
(I0
tp445
g15
tp446
Rp447
(I1
(I2
tp448
g22
I00
S'\xcd\xcc\xcc\xcc\xcc\xcc\x00\xc0\x9a\x99\x99\x99\x99\x99\xc9?'
p449
tp450
bsg27
I9
ssS'SAMPL5_044'
p451
(dp452
g3
S'c1ccc2c(c1)cc(c(=O)o2)C(=O)Nc3ccc4c(c3)scn4'
p453
sg5
S'4987019'
p454
sg7
S'~{N}-(1,3-benzothiazol-6-yl)-2-oxo-chromene-3-carboxamide'
p455
sg9
I1
sg10
F322.33789999999993
sg11
g12
(g13
(I0
tp456
g15
tp457
Rp458
(I1
(I2
tp459
g22
I00
S'\x00\x00\x00\x00\x00\x00\xf0?\x9a\x99\x99\x99\x99\x99\xd9?'
p460
tp461
bsg27
I6
ssS'SAMPL5_047'
p462
(dp463
g3
S'c1cnoc1C(=O)Nc2c(c3c(s2)CCCC3)C#N'
p464
sg5
S'5627778'
p465
sg7
S'~{N}-(3-cyano-4,5,6,7-tetrahydrobenzothiophen-2-yl)isoxazole-5-carboxamide'
p466
sg9
I1
sg10
F273.3103399999999
sg11
g12
(g13
(I0
tp467
g15
tp468
Rp469
(I1
(I2
tp470
g22
I00
S'\x9a\x99\x99\x99\x99\x99\xd9\xbf333333\xd3?'
p471
tp472
bsg27
I3
ssS'SAMPL5_046'
p473
(dp474
g3
S'CSc1ccc(cc1)CC(=O)Nc2c3ccsc3ncn2'
p475
sg5
S'12046880'
p476
sg7
S'2-(4-methylsulfanylphenyl)-~{N}-thieno[2,3-d]pyrimidin-4-yl-acetamide'
p477
sg9
I1
sg10
F315.41321999999997
sg11
g12
(g13
(I0
tp478
g15
tp479
Rp480
(I1
(I2
tp481
g22
I00
S'\x9a\x99\x99\x99\x99\x99\xc9?333333\xd3?'
p482
tp483
bsg27
I9
ssS'SAMPL5_003'
p484
(dp485
g3
S'c1ccc2c(c1)c(=O)oc(n2)c3ccccc3F'
p486
sg5
S'1231787'
p487
sg7
S'2-(2-fluorophenyl)-3,1-benzoxazin-4-one'
p488
sg9
I0
sg10
F241.2172231999999
sg11
g12
(g13
(I0
tp489
g15
tp490
Rp491
(I1
(I2
tp492
g22
I00
S'ffffff\xfe?\x9a\x99\x99\x99\x99\x99\xb9?'
p493
tp494
bsg27
I1
ssS'SAMPL5_006'
p495
(dp496
g3
S'C=C(Cn1c2ccccc2nc1CO)Br'
p497
sg5
S'2118862'
p498
sg7
S'[1-(2-bromoallyl)benzimidazol-2-yl]methanol'
p499
sg9
I2
sg10
F267.12183999999996
sg11
g12
(g13
(I0
tp500
g15
tp501
Rp502
(I1
(I2
tp503
g22
I00
S'R\xb8\x1e\x85\xebQ\xf0\xbf\n\xd7\xa3p=\n\xb7?'
p504
tp505
bsg27
I11
ssS'SAMPL5_063'
p506
(dp507
g3
S'C1C[C@H](CNC1)N2CCC(CC2)C(=O)N'
p508
sg5
S'38498425'
p509
sg7
S'1-[(3~{R})-3-piperidyl]piperidine-4-carboxamide'
p510
sg9
I1
sg10
F211.30393999999995
sg11
g12
(g13
(I0
tp511
g15
tp512
Rp513
(I1
(I2
tp514
g22
I00
S'\x00\x00\x00\x00\x00\x00\x08\xc0\x9a\x99\x99\x99\x99\x99\xd9?'
p515
tp516
bsg27
I5
ssS'SAMPL5_055'
p517
(dp518
g3
S'c1ccc2c(c1)ncc(n2)C(=O)N'
p519
sg5
S'3800934'
p520
sg7
S'quinoxaline-2-carboxamide'
p521
sg9
I0
sg10
F173.17137999999997
sg11
g12
(g13
(I0
tp522
g15
tp523
Rp524
(I1
(I2
tp525
g22
I00
S'\x00\x00\x00\x00\x00\x00\xf8\xbf\x9a\x99\x99\x99\x99\x99\xb9?'
p526
tp527
bsg27
I2
ssS'SAMPL5_092'
p528
(dp529
g3
S'CC(=O)N1CCN(CC1)c2ccc(cc2)OC[C@H]3CO[C@](O3)(Cn4ccnc4)c5ccc(cc5Cl)Cl'
p530
sg5
g86
sg7
S'1-[4-[4-[[(2~{R},4~{S})-2-(2,4-dichlorophenyl)-2-(imidazol-1-ylmethyl)-1,3-dioxolan-4-yl]methoxy]phenyl]piperazin-1-yl]ethanone'
p531
sg9
I2
sg10
F531.4309199999998
sg11
g12
(g13
(I0
tp532
g15
tp533
Rp534
(I1
(I2
tp535
g22
I00
S'\x9a\x99\x99\x99\x99\x99\xd9\xbf333333\xd3?'
p536
tp537
bsg27
I6
ssS'SAMPL5_090'
p538
(dp539
g3
S'Cc1cc2c(cc1C)nc(c(n2)c3ccccn3)c4ccccn4'
p540
sg5
g86
sg7
S'6,7-dimethyl-2,3-bis(2-pyridyl)quinoxaline'
p541
sg9
I1
sg10
F312.36783999999994
sg11
g12
(g13
(I0
tp542
g15
tp543
Rp544
(I1
(I2
tp545
g22
I00
S'\x9a\x99\x99\x99\x99\x99\xe9?\x9a\x99\x99\x99\x99\x99\xc9?'
p546
tp547
bsg27
I1
ssS'SAMPL5_005'
p548
(dp549
g3
S'Cn1ccnc1SCC(=O)Nc2ccc3c(c2)OCO3'
p550
sg5
S'1363085'
p551
sg7
S'~{N}-(1,3-benzodioxol-5-yl)-2-(1-methylimidazol-2-yl)sulfanyl-acetamide'
p552
sg9
I1
sg10
F291.32561999999996
sg11
g12
(g13
(I0
tp553
g15
tp554
Rp555
(I1
(I2
tp556
g22
I00
S'\x85\xebQ\xb8\x1e\x85\xeb\xbf\n\xd7\xa3p=\n\xb7?'
p557
tp558
bsg27
I7
ssS'SAMPL5_033'
p559
(dp560
g3
S'Cc1ccc(cc1NC(=O)N2CCCCC[C@@H]2c3cccs3)Cl'
p561
sg5
S'16363773'
p562
sg7
S'(2~{R})-~{N}-(5-chloro-2-methyl-phenyl)-2-(2-thienyl)azepane-1-carboxamide'
p563
sg9
I2
sg10
F348.8901399999999
sg11
g12
(g13
(I0
tp564
g15
tp565
Rp566
(I1
(I2
tp567
g22
I00
S'\xcd\xcc\xcc\xcc\xcc\xcc\xfc?\x9a\x99\x99\x99\x99\x99\xc9?'
p568
tp569
bsg27
I11
ssS'SAMPL5_037'
p570
(dp571
g3
S'CN(C)S(=O)(=O)N1CCNCC1'
p572
sg5
S'833953'
p573
sg7
S'~{N},~{N}-dimethylpiperazine-1-sulfonamide'
p574
sg9
I0
sg10
F193.26719999999995
sg11
g12
(g13
(I0
tp575
g15
tp576
Rp577
(I1
(I2
tp578
g22
I00
S'\x00\x00\x00\x00\x00\x00\xf8\xbf\x9a\x99\x99\x99\x99\x99\xb9?'
p579
tp580
bsg27
I1
ss.