(dp0
S'SAMPL5_017'
p1
(dp2
S'Smiles'
p3
S'c1ccc2c(c1)c(nc(n2)c3ccccc3O)NC4CCCC4'
p4
sS'eMolecule'
p5
S'2425478'
p6
sS'iupac'
p7
S'2-[4-(cyclopentylamino)quinazolin-2-yl]phenol'
p8
sS'batch'
p9
I0
sS'data'
p10
cnumpy.core.multiarray
_reconstruct
p11
(cnumpy
ndarray
p12
(I0
tp13
S'b'
p14
tp15
Rp16
(I1
(I2
tp17
cnumpy
dtype
p18
(S'f8'
p19
I0
I1
tp20
Rp21
(I3
S'<'
p22
NNNI-1
I-1
I0
tp23
bI00
S'\x00\x00\x00\x00\x00\x00\x04@333333\xd3?'
p24
tp25
bsS'tautomers'
p26
I100
ssS'SAMPL5_058'
p27
(dp28
g3
S'c1ccc(cc1)n2c(=O)c3ccccc3cn2'
p29
sg5
S'3730323'
p30
sg7
S'2-phenylphthalazin-1-one'
p31
sg9
I0
sg10
g11
(g12
(I0
tp32
g14
tp33
Rp34
(I1
(I2
tp35
g21
I00
S'\x9a\x99\x99\x99\x99\x99\xe9?\x9a\x99\x99\x99\x99\x99\xb9?'
p36
tp37
bsg26
I1
ssS'SAMPL5_059'
p38
(dp39
g3
S'c1ccc(cc1)c2nc(sn2)N'
p40
sg5
S'711981'
p41
sg7
S'3-phenyl-1,2,4-thiadiazol-5-amine'
p42
sg9
I0
sg10
g11
(g12
(I0
tp43
g14
tp44
Rp45
(I1
(I2
tp46
g21
I00
S'\xcd\xcc\xcc\xcc\xcc\xcc\xf4\xbf333333\xd3?'
p47
tp48
bsg26
I3
ssS'SAMPL5_013'
p49
(dp50
g3
S'Cc1ccc(cc1)c2nc(c3c(n2)n(c(=O)[nH]3)c4ccccc4)C(=O)N'
p51
sg5
S'16095985'
p52
sg7
S'8-oxo-9-phenyl-2-(p-tolyl)-7~{H}-purine-6-carboxamide'
p53
sg9
I2
sg10
g11
(g12
(I0
tp54
g14
tp55
Rp56
(I1
(I2
tp57
g21
I00
S'\x00\x00\x00\x00\x00\x00\xf8\xbf\x9a\x99\x99\x99\x99\x99\xd9?'
p58
tp59
bsg26
I11
ssS'SAMPL5_010'
p60
(dp61
g3
S'c1cc(cc(c1)NCc2ccncc2)C(=O)O'
p62
sg5
S'1491855'
p63
sg7
S'3-(4-pyridylmethylamino)benzoic acid'
p64
sg9
I1
sg10
g11
(g12
(I0
tp65
g14
tp66
Rp67
(I1
(I2
tp68
g21
I00
S'333333\xfb\xbf\x9a\x99\x99\x99\x99\x99\xd9?'
p69
tp70
bsg26
I21
ssS'SAMPL5_004'
p71
(dp72
g3
S'CCOc1ccc(cc1)Nc2cc(c3ccccc3n2)C'
p73
sg5
S'1221528'
p74
sg7
S'~{N}-(4-ethoxyphenyl)-4-methyl-quinolin-2-amine'
p75
sg9
I1
sg10
g11
(g12
(I0
tp76
g14
tp77
Rp78
(I1
(I2
tp79
g21
I00
S'\x9a\x99\x99\x99\x99\x99\x01@333333\xd3?'
p80
tp81
bsg26
I6
ssS'SAMPL5_074'
p82
(dp83
g3
S'c1nc(c2c(n1)n(cn2)[C@H]3[C@@H]([C@@H]([C@H](O3)CO)O)O)N'
p84
sg5
S''
p85
sg7
S'(2~{R},3~{R},4~{S},5~{R})-2-(6-aminopurin-9-yl)-5-(hydroxymethyl)tetrahydrofuran-3,4-diol'
p86
sg9
I2
sg10
g11
(g12
(I0
tp87
g14
tp88
Rp89
(I1
(I2
tp90
g21
I00
S'ffffff\xfe\xbf333333\xd3?'
p91
tp92
bsg26
I5
ssS'SAMPL5_075'
p93
(dp94
g3
S'CC(C)NC[C@@H](COc1ccc(cc1)CCOC)O'
p95
sg5
g85
sg7
S'(2~{S})-1-(isopropylamino)-3-[4-(2-methoxyethyl)phenoxy]propan-2-ol'
p96
sg9
I2
sg10
g11
(g12
(I0
tp97
g14
tp98
Rp99
(I1
(I2
tp100
g21
I00
S'ffffff\x06\xc0333333\xd3?'
p101
tp102
bsg26
I1
ssS'SAMPL5_050'
p103
(dp104
g3
S'Cc1ccc2c(n1)nn3c2nc(cc3O)C'
p105
sg5
S'5663556'
p106
sg7
S'2,8-dimethylpyrido[2,3]pyrazolo[2,4-~{a}]pyrimidin-4-ol'
p107
sg9
I2
sg10
g11
(g12
(I0
tp108
g14
tp109
Rp110
(I1
(I2
tp111
g21
I00
S'\x9a\x99\x99\x99\x99\x99\t\xc0333333\xe3?'
p112
tp113
bsg26
I42
ssS'SAMPL5_056'
p114
(dp115
g3
S'CC(C)[C@@H]1Cc2c(cc(c(n2)O)C#N)CO1'
p116
sg5
g85
sg7
S'(7~{S})-2-hydroxy-7-isopropyl-7,8-dihydro-5~{H}-pyrano[4,3-b]pyridine-3-carbonitrile'
p117
sg9
I1
sg10
g11
(g12
(I0
tp118
g14
tp119
Rp120
(I1
(I2
tp121
g21
I00
S'\x00\x00\x00\x00\x00\x00\x04\xc0\x9a\x99\x99\x99\x99\x99\xb9?'
p122
tp123
bsg26
I9
ssS'SAMPL5_071'
p124
(dp125
g3
S'CCOc1cc(c(cc1N2CCOCC2)OCC)N'
p126
sg5
g85
sg7
S'2,5-diethoxy-4-morpholino-aniline'
p127
sg9
I1
sg10
g11
(g12
(I0
tp128
g14
tp129
Rp130
(I1
(I2
tp131
g21
I00
S'\x9a\x99\x99\x99\x99\x99\xb9\xbf\x00\x00\x00\x00\x00\x00\xe0?'
p132
tp133
bsg26
I24
ssS'SAMPL5_072'
p134
(dp135
g3
S'CN(C)CCOC(c1ccccc1)c2ccccc2'
p136
sg5
g85
sg7
S'2-benzhydryloxy-~{N},~{N}-dimethyl-ethanamine'
p137
sg9
I1
sg10
g11
(g12
(I0
tp138
g14
tp139
Rp140
(I1
(I2
tp141
g21
I00
S'333333\xe3?333333\xd3?'
p142
tp143
bsg26
I1
ssS'SAMPL5_019'
p144
(dp145
g3
S'Cc1ccc(cc1)Nc2ccnc(n2)Nc3ccc(cc3)C'
p146
sg5
S'43423819'
p147
sg7
S'~{N}2,~{N}4-bis(p-tolyl)pyrimidine-2,4-diamine'
p148
sg9
I2
sg10
g11
(g12
(I0
tp149
g14
tp150
Rp151
(I1
(I2
tp152
g21
I00
S'333333\xf3?\x9a\x99\x99\x99\x99\x99\xd9?'
p153
tp154
bsg26
I18
ssS'SAMPL5_061'
p155
(dp156
g3
S'Cc1nccc(n1)[C@@]2(CNCCO2)C'
p157
sg5
S'43241882'
p158
sg7
S'(2~{S})-2-methyl-2-(2-methylpyrimidin-4-yl)morpholine'
p159
sg9
I0
sg10
g11
(g12
(I0
tp160
g14
tp161
Rp162
(I1
(I2
tp163
g21
I00
S'333333\xf7\xbf\n\xd7\xa3p=\n\xb7?'
p164
tp165
bsg26
I4
ssS'SAMPL5_015'
p166
(dp167
g3
S'Cc1ccc2c(c1)c(ncn2)NCC(=O)O'
p168
sg5
S'1355949'
p169
sg7
S'2-[(6-methylquinazolin-4-yl)amino]acetic acid'
p170
sg9
I0
sg10
g11
(g12
(I0
tp171
g14
tp172
Rp173
(I1
(I2
tp174
g21
I00
S'\x9a\x99\x99\x99\x99\x99\x01\xc0333333\xd3?'
p175
tp176
bsg26
I23
ssS'SAMPL5_086'
p177
(dp178
g3
S'CCCCOc1cc(c2ccccc2n1)C(=O)NCCN(CC)CC'
p179
sg5
g85
sg7
S'2-butoxy-~{N}-[2-(diethylamino)ethyl]quinoline-4-carboxamide'
p180
sg9
I2
sg10
g11
(g12
(I0
tp181
g14
tp182
Rp183
(I1
(I2
tp184
g21
I00
S'ffffff\xe6?\x9a\x99\x99\x99\x99\x99\xc9?'
p185
tp186
bsg26
I100
ssS'SAMPL5_068'
p187
(dp188
g3
S'c1ccc(cc1)c2c(nnc(n2)c3ccccn3)c4ccccc4'
p189
sg5
g85
sg7
S'5,6-diphenyl-3-(2-pyridyl)-1,2,4-triazine'
p190
sg9
I0
sg10
g11
(g12
(I0
tp191
g14
tp192
Rp193
(I1
(I2
tp194
g21
I00
S'ffffff\xf6?333333\xd3?'
p195
tp196
bsg26
I1
ssS'SAMPL5_088'
p197
(dp198
g3
S'CCN(Cc1ccncc1)C(=O)[C@H](CO)c2ccccc2'
p199
sg5
g85
sg7
S'(2~{S})-~{N}-ethyl-3-hydroxy-2-phenyl-~{N}-(4-pyridylmethyl)propanamide'
p200
sg9
I2
sg10
g11
(g12
(I0
tp201
g14
tp202
Rp203
(I1
(I2
tp204
g21
I00
S'ffffff\xfe\xbf333333\xd3?'
p205
tp206
bsg26
I13
ssS'SAMPL5_085'
p207
(dp208
g3
S'c1ccc(cc1)C2(C(=O)NC(=O)N2)c3ccccc3'
p209
sg5
g85
sg7
S'5,5-diphenylimidazolidine-2,4-dione'
p210
sg9
I2
sg10
g11
(g12
(I0
tp211
g14
tp212
Rp213
(I1
(I2
tp214
g21
I00
S'\x9a\x99\x99\x99\x99\x99\x01\xc0\x9a\x99\x99\x99\x99\x99\xd9?'
p215
tp216
bsg26
I5
ssS'SAMPL5_084'
p217
(dp218
g3
S'c1cc(ccc1C(=O)CCCN2CCC(CC2)(c3ccc(cc3)Cl)O)F'
p219
sg5
g85
sg7
S'4-[4-(4-chlorophenyl)-4-hydroxy-1-piperidyl]-1-(4-fluorophenyl)butan-1-one'
p220
sg9
I2
sg10
g11
(g12
(I0
tp221
g14
tp222
Rp223
(I1
(I2
tp224
g21
I00
S'\x00\x00\x00\x00\x00\x00\x00\x80\x9a\x99\x99\x99\x99\x99\xc9?'
p225
tp226
bsg26
I5
ssS'SAMPL5_011'
p227
(dp228
g3
S'Cc1cc(nc(n1)Nc2ccccc2C(=O)O)C'
p229
sg5
S'542592'
p230
sg7
S'2-[(4,6-dimethylpyrimidin-2-yl)amino]benzoic acid'
p231
sg9
I1
sg10
g11
(g12
(I0
tp232
g14
tp233
Rp234
(I1
(I2
tp235
g21
I00
S'\xaeG\xe1z\x14\xae\x07\xc0{\x14\xaeG\xe1z\xb4?'
p236
tp237
bsg26
I25
ssS'SAMPL5_081'
p238
(dp239
g3
S'CC(C)NC[C@H](COc1ccc(cc1)CC(=O)N)O'
p240
sg5
g85
sg7
S'2-[4-[(2~{R})-2-hydroxy-3-(isopropylamino)propoxy]phenyl]acetamide'
p241
sg9
I1
sg10
g11
(g12
(I0
tp242
g14
tp243
Rp244
(I1
(I2
tp245
g21
I00
S'\x9a\x99\x99\x99\x99\x99\x01\xc0333333\xd3?'
p246
tp247
bsg26
I3
ssS'SAMPL5_080'
p248
(dp249
g3
S'Cn1cnc2c1c(=O)n(c(=O)n2C)C'
p250
sg5
g85
sg7
S'1,3,7-trimethylpurine-2,6-dione'
p251
sg9
I0
sg10
g11
(g12
(I0
tp252
g14
tp253
Rp254
(I1
(I2
tp255
g21
I00
S'\x9a\x99\x99\x99\x99\x99\x01\xc0\x9a\x99\x99\x99\x99\x99\xc9?'
p256
tp257
bsg26
I1
ssS'SAMPL5_083'
p258
(dp259
g3
S'C[C@H]1/C=C/C=C(\\C(=O)NC\\2=C(C3=C(C(=C4C(=C3C(=O)/C2=C/NN5CCN(CC5)C)C(=O)[C@](O4)(O/C=C/[C@@H]([C@H]([C@H]([C@@H]([C@@H]([C@@H]([C@H]1O)C)O)C)OC(=O)C)C)OC)C)C)O)O)/C'
p260
sg5
g85
sg7
S'[(14~{E},16~{E},18~{Z},20~{S},21~{R},22~{R},23~{R},24~{S},25~{S},26~{R},27~{S},30~{E},42~{S})-25,26,35,36-tetrahydroxy-24-methoxy-20,21,22,23,28,29,42-heptamethyl-30-[[(4-methylpiperazin-1-yl)amino]methylene]-38,39,40-trioxo-55,56-dioxa-43-azatetracyclo[BLAH.BLAH.BLAH.BLAH.BLAH]triaconta-14,16,18(28),29(37),31,33(35),34(36)-heptaen-27-yl] acetate'
p261
sg9
I2
sg10
g11
(g12
(I0
tp262
g14
tp263
Rp264
(I1
(I2
tp265
g21
I00
S'ffffff\xfe\xbf\x9a\x99\x99\x99\x99\x99\xd9?'
p266
tp267
bsg26
I100
ssS'SAMPL5_082'
p268
(dp269
g3
S'CC/C(=C(\\c1ccccc1)/c2ccc(cc2)OCCN(C)C)/c3ccccc3'
p270
sg5
g85
sg7
S'2-[4-[(~{Z})-1,2-diphenylbut-1-enyl]phenoxy]-~{N},~{N}-dimethyl-ethanamine'
p271
sg9
I2
sg10
g11
(g12
(I0
tp272
g14
tp273
Rp274
(I1
(I2
tp275
g21
I00
S'\x00\x00\x00\x00\x00\x00\x04@\x9a\x99\x99\x99\x99\x99\xd9?'
p276
tp277
bsg26
I1
ssS'SAMPL5_027'
p278
(dp279
g3
S'c1ccc(cc1)CNc2ncnc(n2)N'
p280
sg5
S'2483781'
p281
sg7
S'~{N}4-benzyl-1,3,5-triazine-2,4-diamine'
p282
sg9
I1
sg10
g11
(g12
(I0
tp283
g14
tp284
Rp285
(I1
(I2
tp286
g21
I00
S'\xecQ\xb8\x1e\x85\xeb\xfd\xbf\xecQ\xb8\x1e\x85\xeb\xb1?'
p287
tp288
bsg26
I22
ssS'SAMPL5_026'
p289
(dp290
g3
S'Cc1cc(c2c(c1)c(c([nH]2)C)CC(=O)O)C'
p291
sg5
S'703690'
p292
sg7
S'2-(2,5,7-trimethyl-1~{H}-indol-3-yl)acetic acid'
p293
sg9
I1
sg10
g11
(g12
(I0
tp294
g14
tp295
Rp296
(I1
(I2
tp297
g21
I00
S'\xcd\xcc\xcc\xcc\xcc\xcc\x04\xc0\x9a\x99\x99\x99\x99\x99\xb9?'
p298
tp299
bsg26
I32
ssS'SAMPL5_024'
p300
(dp301
g3
S'Cc1ccc2c(c1)cc3cc(sc3n2)C(=O)Nc4ccc(c(c4)C)C'
p302
sg5
S'16329490'
p303
sg7
S'~{N}-(3,4-dimethylphenyl)-6-methyl-thieno[2,3-b]quinoline-2-carboxamide'
p304
sg9
I2
sg10
g11
(g12
(I0
tp305
g14
tp306
Rp307
(I1
(I2
tp308
g21
I00
S'\x00\x00\x00\x00\x00\x00\xf0?\x9a\x99\x99\x99\x99\x99\xd9?'
p309
tp310
bsg26
I4
ssS'SAMPL5_021'
p311
(dp312
g3
S'Cc1nn2cc(nc2s1)c3cccc(c3)OC'
p313
sg5
S'31467689'
p314
sg7
S'6-(3-methoxyphenyl)-2-methyl-imidazo[2,1-b][1,3,4]thiadiazole'
p315
sg9
I1
sg10
g11
(g12
(I0
tp316
g14
tp317
Rp318
(I1
(I2
tp319
g21
I00
S'333333\xf3?333333\xd3?'
p320
tp321
bsg26
I2
ssS'SAMPL5_020'
p322
(dp323
g3
S'CCCC(=O)Nc1nc2ccc(cc2s1)C(C)C'
p324
sg5
S'5522978'
p325
sg7
S'~{N}-(6-isopropyl-1,3-benzothiazol-2-yl)butanamide'
p326
sg9
I0
sg10
g11
(g12
(I0
tp327
g14
tp328
Rp329
(I1
(I2
tp330
g21
I00
S'\x9a\x99\x99\x99\x99\x99\xf9?333333\xd3?'
p331
tp332
bsg26
I9
ssS'SAMPL5_049'
p333
(dp334
g3
S'c1cc(c(c(c1)Cl)Cl)NC(=O)c2ccno2'
p335
sg5
S'5627856'
p336
sg7
S'~{N}-(2,3-dichlorophenyl)isoxazole-5-carboxamide'
p337
sg9
I2
sg10
g11
(g12
(I0
tp338
g14
tp339
Rp340
(I1
(I2
tp341
g21
I00
S'\xcd\xcc\xcc\xcc\xcc\xcc\xf4?\x9a\x99\x99\x99\x99\x99\xb9?'
p342
tp343
bsg26
I4
ssS'SAMPL5_048'
p344
(dp345
g3
S'c1ccc2c(c1)nc(s2)c3cccc(c3)NC(=O)c4ccno4'
p346
sg5
S'5627798'
p347
sg7
S'~{N}-[3-(1,3-benzothiazol-2-yl)phenyl]isoxazole-5-carboxamide'
p348
sg9
I1
sg10
g11
(g12
(I0
tp349
g14
tp350
Rp351
(I1
(I2
tp352
g21
I00
S'\xcd\xcc\xcc\xcc\xcc\xcc\xec?\x9a\x99\x99\x99\x99\x99\xd9?'
p353
tp354
bsg26
I4
ssS'SAMPL5_007'
p355
(dp356
g3
S'c1ccc(cc1)CCNc2c3cc(ccc3ncn2)Br'
p357
sg5
S'1373587'
p358
sg7
S'6-bromo-~{N}-(2-phenylethyl)quinazolin-4-amine'
p359
sg9
I1
sg10
g11
(g12
(I0
tp360
g14
tp361
Rp362
(I1
(I2
tp363
g21
I00
S'ffffff\xf6?333333\xd3?'
p364
tp365
bsg26
I36
ssS'SAMPL5_060'
p366
(dp367
g3
S'c1ccc2c(c1)c3cc(ncc3[nH]2)C(=O)O'
p368
sg5
S'42618372'
p369
sg7
S'9~{H}-pyrido[3,4-b]indole-3-carboxylic acid'
p370
sg9
I1
sg10
g11
(g12
(I0
tp371
g14
tp372
Rp373
(I1
(I2
tp374
g21
I00
S'333333\x0f\xc0\x9a\x99\x99\x99\x99\x99\xc9?'
p375
tp376
bsg26
I11
ssS'SAMPL5_067'
p377
(dp378
g3
S'CC(C)NC[C@@H](COc1cccc2c1cccc2)O'
p379
sg5
g85
sg7
S'(2~{S})-1-(isopropylamino)-3-(1-naphthyloxy)propan-2-ol'
p380
sg9
I2
sg10
g11
(g12
(I0
tp381
g14
tp382
Rp383
(I1
(I2
tp384
g21
I00
S'\xcd\xcc\xcc\xcc\xcc\xcc\xf4\xbf333333\xd3?'
p385
tp386
bsg26
I1
ssS'SAMPL5_065'
p387
(dp388
g3
S'COc1ccc2c(c1)[nH]c3c2CC[N@]4[C@@H]3C[C@H]5[C@@H](C4)C[C@H]([C@@H]([C@H]5C(=O)OC)OC)OC(=O)c6cc(c(c(c6)OC)OC)OC'
p389
sg5
g85
sg7
S'methyl (1~{R},13~{R},15~{S},17~{R},18~{R},19~{S},20~{S})-6,18-dimethoxy-17-(3,4,5-trimethoxybenzoyl)oxy-1,3,11,12,14,15,16,17,18,19,20,21-dodecahydroyohimban-19-carboxylate'
p390
sg9
I2
sg10
g11
(g12
(I0
tp391
g14
tp392
Rp393
(I1
(I2
tp394
g21
I00
S'ffffff\xe6?\x9a\x99\x99\x99\x99\x99\xc9?'
p395
tp396
bsg26
I6
ssS'SAMPL5_002'
p397
(dp398
g3
S'CCOC(=O)c1c(c2c(c(c(nc2s1)C)C)C)N'
p399
sg5
S'1254130'
p400
sg7
S'ethyl 3-amino-4,5,6-trimethyl-thieno[2,3-b]pyridine-2-carboxylate'
p401
sg9
I2
sg10
g11
(g12
(I0
tp402
g14
tp403
Rp404
(I1
(I2
tp405
g21
I00
S'ffffff\xf6?333333\xd3?'
p406
tp407
bsg26
I14
ssS'SAMPL5_070'
p408
(dp409
g3
S'CN(C)CCC=C1c2ccccc2CCc3c1cccc3'
p410
sg5
g85
sg7
S"3-(5,6-dihydrodibenzo[1,2-~{d}:2',1'-~{f}][7]annulen-11-ylidene)-~{N},~{N}-dimethyl-propan-1-amine"
p411
sg9
I0
sg10
g11
(g12
(I0
tp412
g14
tp413
Rp414
(I1
(I2
tp415
g21
I00
S'\x9a\x99\x99\x99\x99\x99\xf9?333333\xd3?'
p416
tp417
bsg26
I1
ssS'SAMPL5_069'
p418
(dp419
g3
S'C[N@]1CCc2cc(c(c-3c2[C@@H]1Cc4c3cc(c(c4)O)OC)OC)O'
p420
sg5
g85
sg7
S'(6~{S},6~{a}~{S})-1,10-dimethoxy-6-methyl-5,6,6~{a},7-tetrahydro-4~{H}-dibenzo[de,g]quinoline-2,9-diol'
p421
sg9
I2
sg10
g11
(g12
(I0
tp422
g14
tp423
Rp424
(I1
(I2
tp425
g21
I00
S'\xcd\xcc\xcc\xcc\xcc\xcc\xf4\xbf333333\xd3?'
p426
tp427
bsg26
I12
ssS'SAMPL5_042'
p428
(dp429
g3
S'c1ccc(cc1)c2ccccc2NC(=O)c3ccc(=O)[nH]n3'
p430
sg5
S'1552842'
p431
sg7
S'6-oxo-~{N}-(2-phenylphenyl)-1~{H}-pyridazine-3-carboxamide'
p432
sg9
I1
sg10
g11
(g12
(I0
tp433
g14
tp434
Rp435
(I1
(I2
tp436
g21
I00
S'\x9a\x99\x99\x99\x99\x99\xf1\xbf333333\xd3?'
p437
tp438
bsg26
I19
ssS'SAMPL5_045'
p439
(dp440
g3
S'CCC(=O)Nc1ccc2c(c1)ncs2'
p441
sg5
S'12474692'
p442
sg7
S'~{N}-(1,3-benzothiazol-5-yl)propanamide'
p443
sg9
I0
sg10
g11
(g12
(I0
tp444
g14
tp445
Rp446
(I1
(I2
tp447
g21
I00
S'\xcd\xcc\xcc\xcc\xcc\xcc\x00\xc0\x9a\x99\x99\x99\x99\x99\xc9?'
p448
tp449
bsg26
I9
ssS'SAMPL5_044'
p450
(dp451
g3
S'c1ccc2c(c1)cc(c(=O)o2)C(=O)Nc3ccc4c(c3)scn4'
p452
sg5
S'4987019'
p453
sg7
S'~{N}-(1,3-benzothiazol-6-yl)-2-oxo-chromene-3-carboxamide'
p454
sg9
I1
sg10
g11
(g12
(I0
tp455
g14
tp456
Rp457
(I1
(I2
tp458
g21
I00
S'\x00\x00\x00\x00\x00\x00\xf0?\x9a\x99\x99\x99\x99\x99\xd9?'
p459
tp460
bsg26
I6
ssS'SAMPL5_047'
p461
(dp462
g3
S'c1cnoc1C(=O)Nc2c(c3c(s2)CCCC3)C#N'
p463
sg5
S'5627778'
p464
sg7
S'~{N}-(3-cyano-4,5,6,7-tetrahydrobenzothiophen-2-yl)isoxazole-5-carboxamide'
p465
sg9
I1
sg10
g11
(g12
(I0
tp466
g14
tp467
Rp468
(I1
(I2
tp469
g21
I00
S'\x9a\x99\x99\x99\x99\x99\xd9\xbf333333\xd3?'
p470
tp471
bsg26
I3
ssS'SAMPL5_046'
p472
(dp473
g3
S'CSc1ccc(cc1)CC(=O)Nc2c3ccsc3ncn2'
p474
sg5
S'12046880'
p475
sg7
S'2-(4-methylsulfanylphenyl)-~{N}-thieno[2,3-d]pyrimidin-4-yl-acetamide'
p476
sg9
I1
sg10
g11
(g12
(I0
tp477
g14
tp478
Rp479
(I1
(I2
tp480
g21
I00
S'\x9a\x99\x99\x99\x99\x99\xc9?333333\xd3?'
p481
tp482
bsg26
I9
ssS'SAMPL5_003'
p483
(dp484
g3
S'c1ccc2c(c1)c(=O)oc(n2)c3ccccc3F'
p485
sg5
S'1231787'
p486
sg7
S'2-(2-fluorophenyl)-3,1-benzoxazin-4-one'
p487
sg9
I0
sg10
g11
(g12
(I0
tp488
g14
tp489
Rp490
(I1
(I2
tp491
g21
I00
S'ffffff\xfe?\x9a\x99\x99\x99\x99\x99\xb9?'
p492
tp493
bsg26
I1
ssS'SAMPL5_006'
p494
(dp495
g3
S'C=C(Cn1c2ccccc2nc1CO)Br'
p496
sg5
S'2118862'
p497
sg7
S'[1-(2-bromoallyl)benzimidazol-2-yl]methanol'
p498
sg9
I2
sg10
g11
(g12
(I0
tp499
g14
tp500
Rp501
(I1
(I2
tp502
g21
I00
S'R\xb8\x1e\x85\xebQ\xf0\xbf\n\xd7\xa3p=\n\xb7?'
p503
tp504
bsg26
I11
ssS'SAMPL5_063'
p505
(dp506
g3
S'C1C[C@H](CNC1)N2CCC(CC2)C(=O)N'
p507
sg5
S'38498425'
p508
sg7
S'1-[(3~{R})-3-piperidyl]piperidine-4-carboxamide'
p509
sg9
I1
sg10
g11
(g12
(I0
tp510
g14
tp511
Rp512
(I1
(I2
tp513
g21
I00
S'\x00\x00\x00\x00\x00\x00\x08\xc0\x9a\x99\x99\x99\x99\x99\xd9?'
p514
tp515
bsg26
I5
ssS'SAMPL5_055'
p516
(dp517
g3
S'c1ccc2c(c1)ncc(n2)C(=O)N'
p518
sg5
S'3800934'
p519
sg7
S'quinoxaline-2-carboxamide'
p520
sg9
I0
sg10
g11
(g12
(I0
tp521
g14
tp522
Rp523
(I1
(I2
tp524
g21
I00
S'\x00\x00\x00\x00\x00\x00\xf8\xbf\x9a\x99\x99\x99\x99\x99\xb9?'
p525
tp526
bsg26
I2
ssS'SAMPL5_092'
p527
(dp528
g3
S'CC(=O)N1CCN(CC1)c2ccc(cc2)OC[C@H]3CO[C@](O3)(Cn4ccnc4)c5ccc(cc5Cl)Cl'
p529
sg5
g85
sg7
S'1-[4-[4-[[(2~{R},4~{S})-2-(2,4-dichlorophenyl)-2-(imidazol-1-ylmethyl)-1,3-dioxolan-4-yl]methoxy]phenyl]piperazin-1-yl]ethanone'
p530
sg9
I2
sg10
g11
(g12
(I0
tp531
g14
tp532
Rp533
(I1
(I2
tp534
g21
I00
S'\x9a\x99\x99\x99\x99\x99\xd9\xbf333333\xd3?'
p535
tp536
bsg26
I6
ssS'SAMPL5_090'
p537
(dp538
g3
S'Cc1cc2c(cc1C)nc(c(n2)c3ccccn3)c4ccccn4'
p539
sg5
g85
sg7
S'6,7-dimethyl-2,3-bis(2-pyridyl)quinoxaline'
p540
sg9
I1
sg10
g11
(g12
(I0
tp541
g14
tp542
Rp543
(I1
(I2
tp544
g21
I00
S'\x9a\x99\x99\x99\x99\x99\xe9?\x9a\x99\x99\x99\x99\x99\xc9?'
p545
tp546
bsg26
I1
ssS'SAMPL5_005'
p547
(dp548
g3
S'Cn1ccnc1SCC(=O)Nc2ccc3c(c2)OCO3'
p549
sg5
S'1363085'
p550
sg7
S'~{N}-(1,3-benzodioxol-5-yl)-2-(1-methylimidazol-2-yl)sulfanyl-acetamide'
p551
sg9
I1
sg10
g11
(g12
(I0
tp552
g14
tp553
Rp554
(I1
(I2
tp555
g21
I00
S'\x85\xebQ\xb8\x1e\x85\xeb\xbf\n\xd7\xa3p=\n\xb7?'
p556
tp557
bsg26
I7
ssS'SAMPL5_033'
p558
(dp559
g3
S'Cc1ccc(cc1NC(=O)N2CCCCC[C@@H]2c3cccs3)Cl'
p560
sg5
S'16363773'
p561
sg7
S'(2~{R})-~{N}-(5-chloro-2-methyl-phenyl)-2-(2-thienyl)azepane-1-carboxamide'
p562
sg9
I2
sg10
g11
(g12
(I0
tp563
g14
tp564
Rp565
(I1
(I2
tp566
g21
I00
S'\xcd\xcc\xcc\xcc\xcc\xcc\xfc?\x9a\x99\x99\x99\x99\x99\xc9?'
p567
tp568
bsg26
I11
ssS'SAMPL5_037'
p569
(dp570
g3
S'CN(C)S(=O)(=O)N1CCNCC1'
p571
sg5
S'833953'
p572
sg7
S'~{N},~{N}-dimethylpiperazine-1-sulfonamide'
p573
sg9
I0
sg10
g11
(g12
(I0
tp574
g14
tp575
Rp576
(I1
(I2
tp577
g21
I00
S'\x00\x00\x00\x00\x00\x00\xf8\xbf\x9a\x99\x99\x99\x99\x99\xb9?'
p578
tp579
bsg26
I1
ss.