(dp0
S'SAMPL5_017'
p1
(dp2
S'Smiles'
p3
S'c1ccc2c(c1)c(nc(n2)c3ccccc3O)NC4CCCC4'
p4
sS'iupac'
p5
S'2-[4-(cyclopentylamino)quinazolin-2-yl]phenol'
p6
sS'eMolecule'
p7
S'2425478'
p8
sS'batch'
p9
I0
sS'data'
p10
cnumpy.core.multiarray
_reconstruct
p11
(cnumpy
ndarray
p12
(I0
tp13
S'b'
p14
tp15
Rp16
(I1
(I2
tp17
cnumpy
dtype
p18
(S'f8'
p19
I0
I1
tp20
Rp21
(I3
S'<'
p22
NNNI-1
I-1
I0
tp23
bI00
S'\x00\x00\x00\x00\x00\x00\x04@333333\xd3?'
p24
tp25
bssS'SAMPL5_058'
p26
(dp27
g3
S'c1ccc(cc1)n2c(=O)c3ccccc3cn2'
p28
sg5
S'2-phenylphthalazin-1-one'
p29
sg7
S'3730323'
p30
sg9
I0
sg10
g11
(g12
(I0
tp31
g14
tp32
Rp33
(I1
(I2
tp34
g21
I00
S'\x9a\x99\x99\x99\x99\x99\xe9?\x9a\x99\x99\x99\x99\x99\xb9?'
p35
tp36
bssS'SAMPL5_059'
p37
(dp38
g3
S'c1ccc(cc1)c2nc(sn2)N'
p39
sg5
S'3-phenyl-1,2,4-thiadiazol-5-amine'
p40
sg7
S'711981'
p41
sg9
I0
sg10
g11
(g12
(I0
tp42
g14
tp43
Rp44
(I1
(I2
tp45
g21
I00
S'\xcd\xcc\xcc\xcc\xcc\xcc\xf4\xbf333333\xd3?'
p46
tp47
bssS'SAMPL5_013'
p48
(dp49
g3
S'Cc1ccc(cc1)c2nc(c3c(n2)n(c(=O)[nH]3)c4ccccc4)C(=O)N'
p50
sg5
S'8-oxo-9-phenyl-2-(p-tolyl)-7~{H}-purine-6-carboxamide'
p51
sg7
S'16095985'
p52
sg9
I2
sg10
g11
(g12
(I0
tp53
g14
tp54
Rp55
(I1
(I2
tp56
g21
I00
S'\x00\x00\x00\x00\x00\x00\xf8\xbf\x9a\x99\x99\x99\x99\x99\xd9?'
p57
tp58
bssS'SAMPL5_010'
p59
(dp60
g3
S'c1cc(cc(c1)NCc2ccncc2)C(=O)O'
p61
sg5
S'3-(4-pyridylmethylamino)benzoic acid'
p62
sg7
S'1491855'
p63
sg9
I1
sg10
g11
(g12
(I0
tp64
g14
tp65
Rp66
(I1
(I2
tp67
g21
I00
S'333333\xfb\xbf\x9a\x99\x99\x99\x99\x99\xd9?'
p68
tp69
bssS'SAMPL5_004'
p70
(dp71
g3
S'CCOc1ccc(cc1)Nc2cc(c3ccccc3n2)C'
p72
sg5
S'~{N}-(4-ethoxyphenyl)-4-methyl-quinolin-2-amine'
p73
sg7
S'1221528'
p74
sg9
I1
sg10
g11
(g12
(I0
tp75
g14
tp76
Rp77
(I1
(I2
tp78
g21
I00
S'\x9a\x99\x99\x99\x99\x99\x01@333333\xd3?'
p79
tp80
bssS'SAMPL5_074'
p81
(dp82
g3
S'c1nc(c2c(n1)n(cn2)[C@H]3[C@@H]([C@@H]([C@H](O3)CO)O)O)N'
p83
sg5
S'(2~{R},3~{R},4~{S},5~{R})-2-(6-aminopurin-9-yl)-5-(hydroxymethyl)tetrahydrofuran-3,4-diol'
p84
sg7
S''
p85
sg9
I2
sg10
g11
(g12
(I0
tp86
g14
tp87
Rp88
(I1
(I2
tp89
g21
I00
S'ffffff\xfe\xbf333333\xd3?'
p90
tp91
bssS'SAMPL5_075'
p92
(dp93
g3
S'CC(C)NC[C@@H](COc1ccc(cc1)CCOC)O'
p94
sg5
S'(2~{S})-1-(isopropylamino)-3-[4-(2-methoxyethyl)phenoxy]propan-2-ol'
p95
sg7
g85
sg9
I2
sg10
g11
(g12
(I0
tp96
g14
tp97
Rp98
(I1
(I2
tp99
g21
I00
S'ffffff\x06\xc0333333\xd3?'
p100
tp101
bssS'SAMPL5_050'
p102
(dp103
g3
S'Cc1ccc2c(n1)nn3c2nc(cc3O)C'
p104
sg5
S'2,8-dimethylpyrido[2,3]pyrazolo[2,4-~{a}]pyrimidin-4-ol'
p105
sg7
S'5663556'
p106
sg9
I2
sg10
g11
(g12
(I0
tp107
g14
tp108
Rp109
(I1
(I2
tp110
g21
I00
S'\x9a\x99\x99\x99\x99\x99\t\xc0333333\xe3?'
p111
tp112
bssS'SAMPL5_056'
p113
(dp114
g3
S'CC(C)[C@@H]1Cc2c(cc(c(n2)O)C#N)CO1'
p115
sg5
S'(7~{S})-2-hydroxy-7-isopropyl-7,8-dihydro-5~{H}-pyrano[4,3-b]pyridine-3-carbonitrile'
p116
sg7
g85
sg9
I1
sg10
g11
(g12
(I0
tp117
g14
tp118
Rp119
(I1
(I2
tp120
g21
I00
S'\x00\x00\x00\x00\x00\x00\x04\xc0\x9a\x99\x99\x99\x99\x99\xb9?'
p121
tp122
bssS'SAMPL5_071'
p123
(dp124
g3
S'CCOc1cc(c(cc1N2CCOCC2)OCC)N'
p125
sg5
S'2,5-diethoxy-4-morpholino-aniline'
p126
sg7
g85
sg9
I1
sg10
g11
(g12
(I0
tp127
g14
tp128
Rp129
(I1
(I2
tp130
g21
I00
S'\x9a\x99\x99\x99\x99\x99\xb9\xbf\x00\x00\x00\x00\x00\x00\xe0?'
p131
tp132
bssS'SAMPL5_072'
p133
(dp134
g3
S'CN(C)CCOC(c1ccccc1)c2ccccc2'
p135
sg5
S'2-benzhydryloxy-~{N},~{N}-dimethyl-ethanamine'
p136
sg7
g85
sg9
I1
sg10
g11
(g12
(I0
tp137
g14
tp138
Rp139
(I1
(I2
tp140
g21
I00
S'333333\xe3?333333\xd3?'
p141
tp142
bssS'SAMPL5_019'
p143
(dp144
g3
S'Cc1ccc(cc1)Nc2ccnc(n2)Nc3ccc(cc3)C'
p145
sg5
S'~{N}2,~{N}4-bis(p-tolyl)pyrimidine-2,4-diamine'
p146
sg7
S'43423819'
p147
sg9
I2
sg10
g11
(g12
(I0
tp148
g14
tp149
Rp150
(I1
(I2
tp151
g21
I00
S'333333\xf3?\x9a\x99\x99\x99\x99\x99\xd9?'
p152
tp153
bssS'SAMPL5_061'
p154
(dp155
g3
S'Cc1nccc(n1)[C@@]2(CNCCO2)C'
p156
sg5
S'(2~{S})-2-methyl-2-(2-methylpyrimidin-4-yl)morpholine'
p157
sg7
S'43241882'
p158
sg9
I0
sg10
g11
(g12
(I0
tp159
g14
tp160
Rp161
(I1
(I2
tp162
g21
I00
S'333333\xf7\xbf\n\xd7\xa3p=\n\xb7?'
p163
tp164
bssS'SAMPL5_015'
p165
(dp166
g3
S'Cc1ccc2c(c1)c(ncn2)NCC(=O)O'
p167
sg5
S'2-[(6-methylquinazolin-4-yl)amino]acetic acid'
p168
sg7
S'1355949'
p169
sg9
I0
sg10
g11
(g12
(I0
tp170
g14
tp171
Rp172
(I1
(I2
tp173
g21
I00
S'\x9a\x99\x99\x99\x99\x99\x01\xc0333333\xd3?'
p174
tp175
bssS'SAMPL5_086'
p176
(dp177
g3
S'CCCCOc1cc(c2ccccc2n1)C(=O)NCCN(CC)CC'
p178
sg5
S'2-butoxy-~{N}-[2-(diethylamino)ethyl]quinoline-4-carboxamide'
p179
sg7
g85
sg9
I2
sg10
g11
(g12
(I0
tp180
g14
tp181
Rp182
(I1
(I2
tp183
g21
I00
S'ffffff\xe6?\x9a\x99\x99\x99\x99\x99\xc9?'
p184
tp185
bssS'SAMPL5_068'
p186
(dp187
g3
S'c1ccc(cc1)c2c(nnc(n2)c3ccccn3)c4ccccc4'
p188
sg5
S'5,6-diphenyl-3-(2-pyridyl)-1,2,4-triazine'
p189
sg7
g85
sg9
I0
sg10
g11
(g12
(I0
tp190
g14
tp191
Rp192
(I1
(I2
tp193
g21
I00
S'ffffff\xf6?333333\xd3?'
p194
tp195
bssS'SAMPL5_088'
p196
(dp197
g3
S'CCN(Cc1ccncc1)C(=O)[C@H](CO)c2ccccc2'
p198
sg5
S'(2~{S})-~{N}-ethyl-3-hydroxy-2-phenyl-~{N}-(4-pyridylmethyl)propanamide'
p199
sg7
g85
sg9
I2
sg10
g11
(g12
(I0
tp200
g14
tp201
Rp202
(I1
(I2
tp203
g21
I00
S'ffffff\xfe\xbf333333\xd3?'
p204
tp205
bssS'SAMPL5_085'
p206
(dp207
g3
S'c1ccc(cc1)C2(C(=O)NC(=O)N2)c3ccccc3'
p208
sg5
S'5,5-diphenylimidazolidine-2,4-dione'
p209
sg7
g85
sg9
I2
sg10
g11
(g12
(I0
tp210
g14
tp211
Rp212
(I1
(I2
tp213
g21
I00
S'\x9a\x99\x99\x99\x99\x99\x01\xc0\x9a\x99\x99\x99\x99\x99\xd9?'
p214
tp215
bssS'SAMPL5_084'
p216
(dp217
g3
S'c1cc(ccc1C(=O)CCCN2CCC(CC2)(c3ccc(cc3)Cl)O)F'
p218
sg5
S'4-[4-(4-chlorophenyl)-4-hydroxy-1-piperidyl]-1-(4-fluorophenyl)butan-1-one'
p219
sg7
g85
sg9
I2
sg10
g11
(g12
(I0
tp220
g14
tp221
Rp222
(I1
(I2
tp223
g21
I00
S'\x00\x00\x00\x00\x00\x00\x00\x80\x9a\x99\x99\x99\x99\x99\xc9?'
p224
tp225
bssS'SAMPL5_011'
p226
(dp227
g3
S'Cc1cc(nc(n1)Nc2ccccc2C(=O)O)C'
p228
sg5
S'2-[(4,6-dimethylpyrimidin-2-yl)amino]benzoic acid'
p229
sg7
S'542592'
p230
sg9
I1
sg10
g11
(g12
(I0
tp231
g14
tp232
Rp233
(I1
(I2
tp234
g21
I00
S'\xaeG\xe1z\x14\xae\x07\xc0{\x14\xaeG\xe1z\xb4?'
p235
tp236
bssS'SAMPL5_081'
p237
(dp238
g3
S'CC(C)NC[C@H](COc1ccc(cc1)CC(=O)N)O'
p239
sg5
S'2-[4-[(2~{R})-2-hydroxy-3-(isopropylamino)propoxy]phenyl]acetamide'
p240
sg7
g85
sg9
I1
sg10
g11
(g12
(I0
tp241
g14
tp242
Rp243
(I1
(I2
tp244
g21
I00
S'\x9a\x99\x99\x99\x99\x99\x01\xc0333333\xd3?'
p245
tp246
bssS'SAMPL5_080'
p247
(dp248
g3
S'Cn1cnc2c1c(=O)n(c(=O)n2C)C'
p249
sg5
S'1,3,7-trimethylpurine-2,6-dione'
p250
sg7
g85
sg9
I0
sg10
g11
(g12
(I0
tp251
g14
tp252
Rp253
(I1
(I2
tp254
g21
I00
S'\x9a\x99\x99\x99\x99\x99\x01\xc0\x9a\x99\x99\x99\x99\x99\xc9?'
p255
tp256
bssS'SAMPL5_083'
p257
(dp258
g3
S'C[C@H]1/C=C/C=C(\\C(=O)NC\\2=C(C3=C(C(=C4C(=C3C(=O)/C2=C/NN5CCN(CC5)C)C(=O)[C@](O4)(O/C=C/[C@@H]([C@H]([C@H]([C@@H]([C@@H]([C@@H]([C@H]1O)C)O)C)OC(=O)C)C)OC)C)C)O)O)/C'
p259
sg5
S'[(14~{E},16~{E},18~{Z},20~{S},21~{R},22~{R},23~{R},24~{S},25~{S},26~{R},27~{S},30~{E},42~{S})-25,26,35,36-tetrahydroxy-24-methoxy-20,21,22,23,28,29,42-heptamethyl-30-[[(4-methylpiperazin-1-yl)amino]methylene]-38,39,40-trioxo-55,56-dioxa-43-azatetracyclo[BLAH.BLAH.BLAH.BLAH.BLAH]triaconta-14,16,18(28),29(37),31,33(35),34(36)-heptaen-27-yl] acetate'
p260
sg7
g85
sg9
I2
sg10
g11
(g12
(I0
tp261
g14
tp262
Rp263
(I1
(I2
tp264
g21
I00
S'ffffff\xfe\xbf\x9a\x99\x99\x99\x99\x99\xd9?'
p265
tp266
bssS'SAMPL5_082'
p267
(dp268
g3
S'CC/C(=C(\\c1ccccc1)/c2ccc(cc2)OCCN(C)C)/c3ccccc3'
p269
sg5
S'2-[4-[(~{Z})-1,2-diphenylbut-1-enyl]phenoxy]-~{N},~{N}-dimethyl-ethanamine'
p270
sg7
g85
sg9
I2
sg10
g11
(g12
(I0
tp271
g14
tp272
Rp273
(I1
(I2
tp274
g21
I00
S'\x00\x00\x00\x00\x00\x00\x04@\x9a\x99\x99\x99\x99\x99\xd9?'
p275
tp276
bssS'SAMPL5_027'
p277
(dp278
g3
S'c1ccc(cc1)CNc2ncnc(n2)N'
p279
sg5
S'~{N}4-benzyl-1,3,5-triazine-2,4-diamine'
p280
sg7
S'2483781'
p281
sg9
I1
sg10
g11
(g12
(I0
tp282
g14
tp283
Rp284
(I1
(I2
tp285
g21
I00
S'\xecQ\xb8\x1e\x85\xeb\xfd\xbf\xecQ\xb8\x1e\x85\xeb\xb1?'
p286
tp287
bssS'SAMPL5_026'
p288
(dp289
g3
S'Cc1cc(c2c(c1)c(c([nH]2)C)CC(=O)O)C'
p290
sg5
S'2-(2,5,7-trimethyl-1~{H}-indol-3-yl)acetic acid'
p291
sg7
S'703690'
p292
sg9
I1
sg10
g11
(g12
(I0
tp293
g14
tp294
Rp295
(I1
(I2
tp296
g21
I00
S'\xcd\xcc\xcc\xcc\xcc\xcc\x04\xc0\x9a\x99\x99\x99\x99\x99\xb9?'
p297
tp298
bssS'SAMPL5_024'
p299
(dp300
g3
S'Cc1ccc2c(c1)cc3cc(sc3n2)C(=O)Nc4ccc(c(c4)C)C'
p301
sg5
S'~{N}-(3,4-dimethylphenyl)-6-methyl-thieno[2,3-b]quinoline-2-carboxamide'
p302
sg7
S'16329490'
p303
sg9
I2
sg10
g11
(g12
(I0
tp304
g14
tp305
Rp306
(I1
(I2
tp307
g21
I00
S'\x00\x00\x00\x00\x00\x00\xf0?\x9a\x99\x99\x99\x99\x99\xd9?'
p308
tp309
bssS'SAMPL5_021'
p310
(dp311
g3
S'Cc1nn2cc(nc2s1)c3cccc(c3)OC'
p312
sg5
S'6-(3-methoxyphenyl)-2-methyl-imidazo[2,1-b][1,3,4]thiadiazole'
p313
sg7
S'31467689'
p314
sg9
I1
sg10
g11
(g12
(I0
tp315
g14
tp316
Rp317
(I1
(I2
tp318
g21
I00
S'333333\xf3?333333\xd3?'
p319
tp320
bssS'SAMPL5_020'
p321
(dp322
g3
S'CCCC(=O)Nc1nc2ccc(cc2s1)C(C)C'
p323
sg5
S'~{N}-(6-isopropyl-1,3-benzothiazol-2-yl)butanamide'
p324
sg7
S'5522978'
p325
sg9
I0
sg10
g11
(g12
(I0
tp326
g14
tp327
Rp328
(I1
(I2
tp329
g21
I00
S'\x9a\x99\x99\x99\x99\x99\xf9?333333\xd3?'
p330
tp331
bssS'SAMPL5_049'
p332
(dp333
g3
S'c1cc(c(c(c1)Cl)Cl)NC(=O)c2ccno2'
p334
sg5
S'~{N}-(2,3-dichlorophenyl)isoxazole-5-carboxamide'
p335
sg7
S'5627856'
p336
sg9
I2
sg10
g11
(g12
(I0
tp337
g14
tp338
Rp339
(I1
(I2
tp340
g21
I00
S'\xcd\xcc\xcc\xcc\xcc\xcc\xf4?\x9a\x99\x99\x99\x99\x99\xb9?'
p341
tp342
bssS'SAMPL5_048'
p343
(dp344
g3
S'c1ccc2c(c1)nc(s2)c3cccc(c3)NC(=O)c4ccno4'
p345
sg5
S'~{N}-[3-(1,3-benzothiazol-2-yl)phenyl]isoxazole-5-carboxamide'
p346
sg7
S'5627798'
p347
sg9
I1
sg10
g11
(g12
(I0
tp348
g14
tp349
Rp350
(I1
(I2
tp351
g21
I00
S'\xcd\xcc\xcc\xcc\xcc\xcc\xec?\x9a\x99\x99\x99\x99\x99\xd9?'
p352
tp353
bssS'SAMPL5_007'
p354
(dp355
g3
S'c1ccc(cc1)CCNc2c3cc(ccc3ncn2)Br'
p356
sg5
S'6-bromo-~{N}-(2-phenylethyl)quinazolin-4-amine'
p357
sg7
S'1373587'
p358
sg9
I1
sg10
g11
(g12
(I0
tp359
g14
tp360
Rp361
(I1
(I2
tp362
g21
I00
S'ffffff\xf6?333333\xd3?'
p363
tp364
bssS'SAMPL5_060'
p365
(dp366
g3
S'c1ccc2c(c1)c3cc(ncc3[nH]2)C(=O)O'
p367
sg5
S'9~{H}-pyrido[3,4-b]indole-3-carboxylic acid'
p368
sg7
S'42618372'
p369
sg9
I1
sg10
g11
(g12
(I0
tp370
g14
tp371
Rp372
(I1
(I2
tp373
g21
I00
S'333333\x0f\xc0\x9a\x99\x99\x99\x99\x99\xc9?'
p374
tp375
bssS'SAMPL5_067'
p376
(dp377
g3
S'CC(C)NC[C@@H](COc1cccc2c1cccc2)O'
p378
sg5
S'(2~{S})-1-(isopropylamino)-3-(1-naphthyloxy)propan-2-ol'
p379
sg7
g85
sg9
I2
sg10
g11
(g12
(I0
tp380
g14
tp381
Rp382
(I1
(I2
tp383
g21
I00
S'\xcd\xcc\xcc\xcc\xcc\xcc\xf4\xbf333333\xd3?'
p384
tp385
bssS'SAMPL5_065'
p386
(dp387
g3
S'COc1ccc2c(c1)[nH]c3c2CC[N@]4[C@@H]3C[C@H]5[C@@H](C4)C[C@H]([C@@H]([C@H]5C(=O)OC)OC)OC(=O)c6cc(c(c(c6)OC)OC)OC'
p388
sg5
S'methyl (1~{R},13~{R},15~{S},17~{R},18~{R},19~{S},20~{S})-6,18-dimethoxy-17-(3,4,5-trimethoxybenzoyl)oxy-1,3,11,12,14,15,16,17,18,19,20,21-dodecahydroyohimban-19-carboxylate'
p389
sg7
g85
sg9
I2
sg10
g11
(g12
(I0
tp390
g14
tp391
Rp392
(I1
(I2
tp393
g21
I00
S'ffffff\xe6?\x9a\x99\x99\x99\x99\x99\xc9?'
p394
tp395
bssS'SAMPL5_002'
p396
(dp397
g3
S'CCOC(=O)c1c(c2c(c(c(nc2s1)C)C)C)N'
p398
sg5
S'ethyl 3-amino-4,5,6-trimethyl-thieno[2,3-b]pyridine-2-carboxylate'
p399
sg7
S'1254130'
p400
sg9
I2
sg10
g11
(g12
(I0
tp401
g14
tp402
Rp403
(I1
(I2
tp404
g21
I00
S'ffffff\xf6?333333\xd3?'
p405
tp406
bssS'SAMPL5_070'
p407
(dp408
g3
S'CN(C)CCC=C1c2ccccc2CCc3c1cccc3'
p409
sg5
S"3-(5,6-dihydrodibenzo[1,2-~{d}:2',1'-~{f}][7]annulen-11-ylidene)-~{N},~{N}-dimethyl-propan-1-amine"
p410
sg7
g85
sg9
I0
sg10
g11
(g12
(I0
tp411
g14
tp412
Rp413
(I1
(I2
tp414
g21
I00
S'\x9a\x99\x99\x99\x99\x99\xf9?333333\xd3?'
p415
tp416
bssS'SAMPL5_069'
p417
(dp418
g3
S'C[N@]1CCc2cc(c(c-3c2[C@@H]1Cc4c3cc(c(c4)O)OC)OC)O'
p419
sg5
S'(6~{S},6~{a}~{S})-1,10-dimethoxy-6-methyl-5,6,6~{a},7-tetrahydro-4~{H}-dibenzo[de,g]quinoline-2,9-diol'
p420
sg7
g85
sg9
I2
sg10
g11
(g12
(I0
tp421
g14
tp422
Rp423
(I1
(I2
tp424
g21
I00
S'\xcd\xcc\xcc\xcc\xcc\xcc\xf4\xbf333333\xd3?'
p425
tp426
bssS'SAMPL5_042'
p427
(dp428
g3
S'c1ccc(cc1)c2ccccc2NC(=O)c3ccc(=O)[nH]n3'
p429
sg5
S'6-oxo-~{N}-(2-phenylphenyl)-1~{H}-pyridazine-3-carboxamide'
p430
sg7
S'1552842'
p431
sg9
I1
sg10
g11
(g12
(I0
tp432
g14
tp433
Rp434
(I1
(I2
tp435
g21
I00
S'\x9a\x99\x99\x99\x99\x99\xf1\xbf333333\xd3?'
p436
tp437
bssS'SAMPL5_045'
p438
(dp439
g3
S'CCC(=O)Nc1ccc2c(c1)ncs2'
p440
sg5
S'~{N}-(1,3-benzothiazol-5-yl)propanamide'
p441
sg7
S'12474692'
p442
sg9
I0
sg10
g11
(g12
(I0
tp443
g14
tp444
Rp445
(I1
(I2
tp446
g21
I00
S'\xcd\xcc\xcc\xcc\xcc\xcc\x00\xc0\x9a\x99\x99\x99\x99\x99\xc9?'
p447
tp448
bssS'SAMPL5_044'
p449
(dp450
g3
S'c1ccc2c(c1)cc(c(=O)o2)C(=O)Nc3ccc4c(c3)scn4'
p451
sg5
S'~{N}-(1,3-benzothiazol-6-yl)-2-oxo-chromene-3-carboxamide'
p452
sg7
S'4987019'
p453
sg9
I1
sg10
g11
(g12
(I0
tp454
g14
tp455
Rp456
(I1
(I2
tp457
g21
I00
S'\x00\x00\x00\x00\x00\x00\xf0?\x9a\x99\x99\x99\x99\x99\xd9?'
p458
tp459
bssS'SAMPL5_047'
p460
(dp461
g3
S'c1cnoc1C(=O)Nc2c(c3c(s2)CCCC3)C#N'
p462
sg5
S'~{N}-(3-cyano-4,5,6,7-tetrahydrobenzothiophen-2-yl)isoxazole-5-carboxamide'
p463
sg7
S'5627778'
p464
sg9
I1
sg10
g11
(g12
(I0
tp465
g14
tp466
Rp467
(I1
(I2
tp468
g21
I00
S'\x9a\x99\x99\x99\x99\x99\xd9\xbf333333\xd3?'
p469
tp470
bssS'SAMPL5_046'
p471
(dp472
g3
S'CSc1ccc(cc1)CC(=O)Nc2c3ccsc3ncn2'
p473
sg5
S'2-(4-methylsulfanylphenyl)-~{N}-thieno[2,3-d]pyrimidin-4-yl-acetamide'
p474
sg7
S'12046880'
p475
sg9
I1
sg10
g11
(g12
(I0
tp476
g14
tp477
Rp478
(I1
(I2
tp479
g21
I00
S'\x9a\x99\x99\x99\x99\x99\xc9?333333\xd3?'
p480
tp481
bssS'SAMPL5_003'
p482
(dp483
g3
S'c1ccc2c(c1)c(=O)oc(n2)c3ccccc3F'
p484
sg5
S'2-(2-fluorophenyl)-3,1-benzoxazin-4-one'
p485
sg7
S'1231787'
p486
sg9
I0
sg10
g11
(g12
(I0
tp487
g14
tp488
Rp489
(I1
(I2
tp490
g21
I00
S'ffffff\xfe?\x9a\x99\x99\x99\x99\x99\xb9?'
p491
tp492
bssS'SAMPL5_006'
p493
(dp494
g3
S'C=C(Cn1c2ccccc2nc1CO)Br'
p495
sg5
S'[1-(2-bromoallyl)benzimidazol-2-yl]methanol'
p496
sg7
S'2118862'
p497
sg9
I2
sg10
g11
(g12
(I0
tp498
g14
tp499
Rp500
(I1
(I2
tp501
g21
I00
S'R\xb8\x1e\x85\xebQ\xf0\xbf\n\xd7\xa3p=\n\xb7?'
p502
tp503
bssS'SAMPL5_063'
p504
(dp505
g3
S'C1C[C@H](CNC1)N2CCC(CC2)C(=O)N'
p506
sg5
S'1-[(3~{R})-3-piperidyl]piperidine-4-carboxamide'
p507
sg7
S'38498425'
p508
sg9
I1
sg10
g11
(g12
(I0
tp509
g14
tp510
Rp511
(I1
(I2
tp512
g21
I00
S'\x00\x00\x00\x00\x00\x00\x08\xc0\x9a\x99\x99\x99\x99\x99\xd9?'
p513
tp514
bssS'SAMPL5_055'
p515
(dp516
g3
S'c1ccc2c(c1)ncc(n2)C(=O)N'
p517
sg5
S'quinoxaline-2-carboxamide'
p518
sg7
S'3800934'
p519
sg9
I0
sg10
g11
(g12
(I0
tp520
g14
tp521
Rp522
(I1
(I2
tp523
g21
I00
S'\x00\x00\x00\x00\x00\x00\xf8\xbf\x9a\x99\x99\x99\x99\x99\xb9?'
p524
tp525
bssS'SAMPL5_092'
p526
(dp527
g3
S'CC(=O)N1CCN(CC1)c2ccc(cc2)OC[C@H]3CO[C@](O3)(Cn4ccnc4)c5ccc(cc5Cl)Cl'
p528
sg5
S'1-[4-[4-[[(2~{R},4~{S})-2-(2,4-dichlorophenyl)-2-(imidazol-1-ylmethyl)-1,3-dioxolan-4-yl]methoxy]phenyl]piperazin-1-yl]ethanone'
p529
sg7
g85
sg9
I2
sg10
g11
(g12
(I0
tp530
g14
tp531
Rp532
(I1
(I2
tp533
g21
I00
S'\x9a\x99\x99\x99\x99\x99\xd9\xbf333333\xd3?'
p534
tp535
bssS'SAMPL5_090'
p536
(dp537
g3
S'Cc1cc2c(cc1C)nc(c(n2)c3ccccn3)c4ccccn4'
p538
sg5
S'6,7-dimethyl-2,3-bis(2-pyridyl)quinoxaline'
p539
sg7
g85
sg9
I1
sg10
g11
(g12
(I0
tp540
g14
tp541
Rp542
(I1
(I2
tp543
g21
I00
S'\x9a\x99\x99\x99\x99\x99\xe9?\x9a\x99\x99\x99\x99\x99\xc9?'
p544
tp545
bssS'SAMPL5_005'
p546
(dp547
g3
S'Cn1ccnc1SCC(=O)Nc2ccc3c(c2)OCO3'
p548
sg5
S'~{N}-(1,3-benzodioxol-5-yl)-2-(1-methylimidazol-2-yl)sulfanyl-acetamide'
p549
sg7
S'1363085'
p550
sg9
I1
sg10
g11
(g12
(I0
tp551
g14
tp552
Rp553
(I1
(I2
tp554
g21
I00
S'\x85\xebQ\xb8\x1e\x85\xeb\xbf\n\xd7\xa3p=\n\xb7?'
p555
tp556
bssS'SAMPL5_033'
p557
(dp558
g3
S'Cc1ccc(cc1NC(=O)N2CCCCC[C@@H]2c3cccs3)Cl'
p559
sg5
S'(2~{R})-~{N}-(5-chloro-2-methyl-phenyl)-2-(2-thienyl)azepane-1-carboxamide'
p560
sg7
S'16363773'
p561
sg9
I2
sg10
g11
(g12
(I0
tp562
g14
tp563
Rp564
(I1
(I2
tp565
g21
I00
S'\xcd\xcc\xcc\xcc\xcc\xcc\xfc?\x9a\x99\x99\x99\x99\x99\xc9?'
p566
tp567
bssS'SAMPL5_037'
p568
(dp569
g3
S'CN(C)S(=O)(=O)N1CCNCC1'
p570
sg5
S'~{N},~{N}-dimethylpiperazine-1-sulfonamide'
p571
sg7
S'833953'
p572
sg9
I0
sg10
g11
(g12
(I0
tp573
g14
tp574
Rp575
(I1
(I2
tp576
g21
I00
S'\x00\x00\x00\x00\x00\x00\xf8\xbf\x9a\x99\x99\x99\x99\x99\xb9?'
p577
tp578
bss.