(dp0
S'SAMPL5_017'
p1
(dp2
S'Smiles'
p3
S'c1ccc2c(c1)c(nc(n2)c3ccccc3O)NC4CCCC4'
p4
sS'iupac'
p5
S'2-[4-(cyclopentylamino)quinazolin-2-yl]phenol'
p6
sS'data'
p7
cnumpy.core.multiarray
_reconstruct
p8
(cnumpy
ndarray
p9
(I0
tp10
S'b'
p11
tp12
Rp13
(I1
(I2
tp14
cnumpy
dtype
p15
(S'f8'
p16
I0
I1
tp17
Rp18
(I3
S'<'
p19
NNNI-1
I-1
I0
tp20
bI00
S'\x00\x00\x00\x00\x00\x00\x04@333333\xd3?'
p21
tp22
bsS'batch'
p23
I0
sS'EmolID'
p24
S'2425478'
p25
ssS'SAMPL5_058'
p26
(dp27
g3
S'c1ccc(cc1)n2c(=O)c3ccccc3cn2'
p28
sg5
S'2-phenylphthalazin-1-one'
p29
sg7
g8
(g9
(I0
tp30
g11
tp31
Rp32
(I1
(I2
tp33
g18
I00
S'\x9a\x99\x99\x99\x99\x99\xe9?\x9a\x99\x99\x99\x99\x99\xb9?'
p34
tp35
bsg23
I0
sg24
S'3730323'
p36
ssS'SAMPL5_059'
p37
(dp38
g3
S'c1ccc(cc1)c2nc(sn2)N'
p39
sg5
S'3-phenyl-1,2,4-thiadiazol-5-amine'
p40
sg7
g8
(g9
(I0
tp41
g11
tp42
Rp43
(I1
(I2
tp44
g18
I00
S'\xcd\xcc\xcc\xcc\xcc\xcc\xf4\xbf333333\xd3?'
p45
tp46
bsg23
I0
sg24
S'711981'
p47
ssS'SAMPL5_013'
p48
(dp49
g3
S'Cc1ccc(cc1)c2nc(c3c(n2)n(c(=O)[nH]3)c4ccccc4)C(=O)N'
p50
sg5
S'8-oxo-9-phenyl-2-(p-tolyl)-7~{H}-purine-6-carboxamide'
p51
sg7
g8
(g9
(I0
tp52
g11
tp53
Rp54
(I1
(I2
tp55
g18
I00
S'\x00\x00\x00\x00\x00\x00\xf8\xbf\x9a\x99\x99\x99\x99\x99\xd9?'
p56
tp57
bsg23
I2
sg24
S'16095985'
p58
ssS'SAMPL5_010'
p59
(dp60
g3
S'c1cc(cc(c1)NCc2ccncc2)C(=O)O'
p61
sg5
S'3-(4-pyridylmethylamino)benzoic acid'
p62
sg7
g8
(g9
(I0
tp63
g11
tp64
Rp65
(I1
(I2
tp66
g18
I00
S'333333\xfb\xbf\x9a\x99\x99\x99\x99\x99\xd9?'
p67
tp68
bsg23
I1
sg24
S'1491855'
p69
ssS'SAMPL5_011'
p70
(dp71
g3
S'Cc1cc(nc(n1)Nc2ccccc2C(=O)O)C'
p72
sg5
S'2-[(4,6-dimethylpyrimidin-2-yl)amino]benzoic acid'
p73
sg7
g8
(g9
(I0
tp74
g11
tp75
Rp76
(I1
(I2
tp77
g18
I00
S'\xaeG\xe1z\x14\xae\x07\xc0{\x14\xaeG\xe1z\xb4?'
p78
tp79
bsg23
I1
sg24
S'542592'
p80
ssS'SAMPL5_074'
p81
(dp82
g3
S'c1nc(c2c(n1)n(cn2)[C@H]3[C@@H]([C@@H]([C@H](O3)CO)O)O)N'
p83
sg5
S'(2~{R},3~{R},4~{S},5~{R})-2-(6-aminopurin-9-yl)-5-(hydroxymethyl)tetrahydrofuran-3,4-diol'
p84
sg7
g8
(g9
(I0
tp85
g11
tp86
Rp87
(I1
(I2
tp88
g18
I00
S'ffffff\xfe\xbf333333\xd3?'
p89
tp90
bsg23
I2
sg24
S''
p91
ssS'SAMPL5_075'
p92
(dp93
g3
S'CC(C)NC[C@@H](COc1ccc(cc1)CCOC)O'
p94
sg5
S'(2~{S})-1-(isopropylamino)-3-[4-(2-methoxyethyl)phenoxy]propan-2-ol'
p95
sg7
g8
(g9
(I0
tp96
g11
tp97
Rp98
(I1
(I2
tp99
g18
I00
S'ffffff\x06\xc0333333\xd3?'
p100
tp101
bsg23
I2
sg24
g91
ssS'SAMPL5_050'
p102
(dp103
g3
S'Cc1ccc2c(n1)nn3c2nc(cc3O)C'
p104
sg5
S'2,8-dimethylpyrido[2,3]pyrazolo[2,4-~{a}]pyrimidin-4-ol'
p105
sg7
g8
(g9
(I0
tp106
g11
tp107
Rp108
(I1
(I2
tp109
g18
I00
S'\x9a\x99\x99\x99\x99\x99\t\xc0333333\xe3?'
p110
tp111
bsg23
I2
sg24
S'5663556'
p112
ssS'SAMPL5_056'
p113
(dp114
g3
S'CC(C)[C@@H]1Cc2c(cc(c(n2)O)C#N)CO1'
p115
sg5
S'(7~{S})-2-hydroxy-7-isopropyl-7,8-dihydro-5~{H}-pyrano[4,3-b]pyridine-3-carbonitrile'
p116
sg7
g8
(g9
(I0
tp117
g11
tp118
Rp119
(I1
(I2
tp120
g18
I00
S'\x00\x00\x00\x00\x00\x00\x04\xc0\x9a\x99\x99\x99\x99\x99\xb9?'
p121
tp122
bsg23
I1
sg24
g91
ssS'SAMPL5_071'
p123
(dp124
g3
S'CCOc1cc(c(cc1N2CCOCC2)OCC)N'
p125
sg5
S'2,5-diethoxy-4-morpholino-aniline'
p126
sg7
g8
(g9
(I0
tp127
g11
tp128
Rp129
(I1
(I2
tp130
g18
I00
S'\x9a\x99\x99\x99\x99\x99\xb9\xbf\x00\x00\x00\x00\x00\x00\xe0?'
p131
tp132
bsg23
I1
sg24
g91
ssS'SAMPL5_072'
p133
(dp134
g3
S'CN(C)CCOC(c1ccccc1)c2ccccc2'
p135
sg5
S'2-benzhydryloxy-~{N},~{N}-dimethyl-ethanamine'
p136
sg7
g8
(g9
(I0
tp137
g11
tp138
Rp139
(I1
(I2
tp140
g18
I00
S'333333\xe3?333333\xd3?'
p141
tp142
bsg23
I1
sg24
g91
ssS'SAMPL5_019'
p143
(dp144
g3
S'Cc1ccc(cc1)Nc2ccnc(n2)Nc3ccc(cc3)C'
p145
sg5
S'~{N}2,~{N}4-bis(p-tolyl)pyrimidine-2,4-diamine'
p146
sg7
g8
(g9
(I0
tp147
g11
tp148
Rp149
(I1
(I2
tp150
g18
I00
S'333333\xf3?\x9a\x99\x99\x99\x99\x99\xd9?'
p151
tp152
bsg23
I2
sg24
S'43423819'
p153
ssS'SAMPL5_015'
p154
(dp155
g3
S'Cc1ccc2c(c1)c(ncn2)NCC(=O)O'
p156
sg5
S'2-[(6-methylquinazolin-4-yl)amino]acetic acid'
p157
sg7
g8
(g9
(I0
tp158
g11
tp159
Rp160
(I1
(I2
tp161
g18
I00
S'\x9a\x99\x99\x99\x99\x99\x01\xc0333333\xd3?'
p162
tp163
bsg23
I0
sg24
S'1355949'
p164
ssS'SAMPL5_065'
p165
(dp166
g3
S'COc1ccc2c(c1)[nH]c3c2CC[N@]4[C@@H]3C[C@H]5[C@@H](C4)C[C@H]([C@@H]([C@H]5C(=O)OC)OC)OC(=O)c6cc(c(c(c6)OC)OC)OC'
p167
sg5
S'methyl (1~{R},13~{R},15~{S},17~{R},18~{R},19~{S},20~{S})-6,18-dimethoxy-17-(3,4,5-trimethoxybenzoyl)oxy-1,3,11,12,14,15,16,17,18,19,20,21-dodecahydroyohimban-19-carboxylate'
p168
sg7
g8
(g9
(I0
tp169
g11
tp170
Rp171
(I1
(I2
tp172
g18
I00
S'ffffff\xe6?\x9a\x99\x99\x99\x99\x99\xc9?'
p173
tp174
bsg23
I2
sg24
g91
ssS'SAMPL5_085'
p175
(dp176
g3
S'c1ccc(cc1)C2(C(=O)NC(=O)N2)c3ccccc3'
p177
sg5
S'5,5-diphenylimidazolidine-2,4-dione'
p178
sg7
g8
(g9
(I0
tp179
g11
tp180
Rp181
(I1
(I2
tp182
g18
I00
S'\x9a\x99\x99\x99\x99\x99\x01\xc0\x9a\x99\x99\x99\x99\x99\xd9?'
p183
tp184
bsg23
I2
sg24
g91
ssS'SAMPL5_084'
p185
(dp186
g3
S'c1cc(ccc1C(=O)CCCN2CCC(CC2)(c3ccc(cc3)Cl)O)F'
p187
sg5
S'4-[4-(4-chlorophenyl)-4-hydroxy-1-piperidyl]-1-(4-fluorophenyl)butan-1-one'
p188
sg7
g8
(g9
(I0
tp189
g11
tp190
Rp191
(I1
(I2
tp192
g18
I00
S'\x00\x00\x00\x00\x00\x00\x00\x80\x9a\x99\x99\x99\x99\x99\xc9?'
p193
tp194
bsg23
I2
sg24
g91
ssS'SAMPL5_086'
p195
(dp196
g3
S'CCCCOc1cc(c2ccccc2n1)C(=O)NCCN(CC)CC'
p197
sg5
S'2-butoxy-~{N}-[2-(diethylamino)ethyl]quinoline-4-carboxamide'
p198
sg7
g8
(g9
(I0
tp199
g11
tp200
Rp201
(I1
(I2
tp202
g18
I00
S'ffffff\xe6?\x9a\x99\x99\x99\x99\x99\xc9?'
p203
tp204
bsg23
I2
sg24
g91
ssS'SAMPL5_081'
p205
(dp206
g3
S'CC(C)NC[C@H](COc1ccc(cc1)CC(=O)N)O'
p207
sg5
S'2-[4-[(2~{R})-2-hydroxy-3-(isopropylamino)propoxy]phenyl]acetamide'
p208
sg7
g8
(g9
(I0
tp209
g11
tp210
Rp211
(I1
(I2
tp212
g18
I00
S'\x9a\x99\x99\x99\x99\x99\x01\xc0333333\xd3?'
p213
tp214
bsg23
I1
sg24
g91
ssS'SAMPL5_080'
p215
(dp216
g3
S'Cn1cnc2c1c(=O)n(c(=O)n2C)C'
p217
sg5
S'1,3,7-trimethylpurine-2,6-dione'
p218
sg7
g8
(g9
(I0
tp219
g11
tp220
Rp221
(I1
(I2
tp222
g18
I00
S'\x9a\x99\x99\x99\x99\x99\x01\xc0\x9a\x99\x99\x99\x99\x99\xc9?'
p223
tp224
bsg23
I0
sg24
g91
ssS'SAMPL5_083'
p225
(dp226
g3
S'C[C@H]1/C=C/C=C(\\C(=O)NC\\2=C(C3=C(C(=C4C(=C3C(=O)/C2=C/NN5CCN(CC5)C)C(=O)[C@](O4)(O/C=C/[C@@H]([C@H]([C@H]([C@@H]([C@@H]([C@@H]([C@H]1O)C)O)C)OC(=O)C)C)OC)C)C)O)O)/C'
p227
sg5
S'[(14~{E},16~{E},18~{Z},20~{S},21~{R},22~{R},23~{R},24~{S},25~{S},26~{R},27~{S},30~{E},42~{S})-25,26,35,36-tetrahydroxy-24-methoxy-20,21,22,23,28,29,42-heptamethyl-30-[[(4-methylpiperazin-1-yl)amino]methylene]-38,39,40-trioxo-55,56-dioxa-43-azatetracyclo[BLAH.BLAH.BLAH.BLAH.BLAH]triaconta-14,16,18(28),29(37),31,33(35),34(36)-heptaen-27-yl] acetate'
p228
sg7
g8
(g9
(I0
tp229
g11
tp230
Rp231
(I1
(I2
tp232
g18
I00
S'ffffff\xfe\xbf\x9a\x99\x99\x99\x99\x99\xd9?'
p233
tp234
bsg23
I2
sg24
g91
ssS'SAMPL5_082'
p235
(dp236
g3
S'CC/C(=C(\\c1ccccc1)/c2ccc(cc2)OCCN(C)C)/c3ccccc3'
p237
sg5
S'2-[4-[(~{Z})-1,2-diphenylbut-1-enyl]phenoxy]-~{N},~{N}-dimethyl-ethanamine'
p238
sg7
g8
(g9
(I0
tp239
g11
tp240
Rp241
(I1
(I2
tp242
g18
I00
S'\x00\x00\x00\x00\x00\x00\x04@\x9a\x99\x99\x99\x99\x99\xd9?'
p243
tp244
bsg23
I2
sg24
g91
ssS'SAMPL5_007'
p245
(dp246
g3
S'c1ccc(cc1)CCNc2c3cc(ccc3ncn2)Br'
p247
sg5
S'6-bromo-~{N}-(2-phenylethyl)quinazolin-4-amine'
p248
sg7
g8
(g9
(I0
tp249
g11
tp250
Rp251
(I1
(I2
tp252
g18
I00
S'ffffff\xf6?333333\xd3?'
p253
tp254
bsg23
I1
sg24
S'1373587'
p255
ssS'SAMPL5_027'
p256
(dp257
g3
S'c1ccc(cc1)CNc2ncnc(n2)N'
p258
sg5
S'~{N}4-benzyl-1,3,5-triazine-2,4-diamine'
p259
sg7
g8
(g9
(I0
tp260
g11
tp261
Rp262
(I1
(I2
tp263
g18
I00
S'\xecQ\xb8\x1e\x85\xeb\xfd\xbf\xecQ\xb8\x1e\x85\xeb\xb1?'
p264
tp265
bsg23
I1
sg24
S'2483781'
p266
ssS'SAMPL5_026'
p267
(dp268
g3
S'Cc1cc(c2c(c1)c(c([nH]2)C)CC(=O)O)C'
p269
sg5
S'2-(2,5,7-trimethyl-1~{H}-indol-3-yl)acetic acid'
p270
sg7
g8
(g9
(I0
tp271
g11
tp272
Rp273
(I1
(I2
tp274
g18
I00
S'\xcd\xcc\xcc\xcc\xcc\xcc\x04\xc0\x9a\x99\x99\x99\x99\x99\xb9?'
p275
tp276
bsg23
I1
sg24
S'703690'
p277
ssS'SAMPL5_024'
p278
(dp279
g3
S'Cc1ccc2c(c1)cc3cc(sc3n2)C(=O)Nc4ccc(c(c4)C)C'
p280
sg5
S'~{N}-(3,4-dimethylphenyl)-6-methyl-thieno[2,3-b]quinoline-2-carboxamide'
p281
sg7
g8
(g9
(I0
tp282
g11
tp283
Rp284
(I1
(I2
tp285
g18
I00
S'\x00\x00\x00\x00\x00\x00\xf0?\x9a\x99\x99\x99\x99\x99\xd9?'
p286
tp287
bsg23
I2
sg24
S'16329490'
p288
ssS'SAMPL5_021'
p289
(dp290
g3
S'Cc1nn2cc(nc2s1)c3cccc(c3)OC'
p291
sg5
S'6-(3-methoxyphenyl)-2-methyl-imidazo[2,1-b][1,3,4]thiadiazole'
p292
sg7
g8
(g9
(I0
tp293
g11
tp294
Rp295
(I1
(I2
tp296
g18
I00
S'333333\xf3?333333\xd3?'
p297
tp298
bsg23
I1
sg24
S'31467689'
p299
ssS'SAMPL5_020'
p300
(dp301
g3
S'CCCC(=O)Nc1nc2ccc(cc2s1)C(C)C'
p302
sg5
S'~{N}-(6-isopropyl-1,3-benzothiazol-2-yl)butanamide'
p303
sg7
g8
(g9
(I0
tp304
g11
tp305
Rp306
(I1
(I2
tp307
g18
I00
S'\x9a\x99\x99\x99\x99\x99\xf9?333333\xd3?'
p308
tp309
bsg23
I0
sg24
S'5522978'
p310
ssS'SAMPL5_049'
p311
(dp312
g3
S'c1cc(c(c(c1)Cl)Cl)NC(=O)c2ccno2'
p313
sg5
S'~{N}-(2,3-dichlorophenyl)isoxazole-5-carboxamide'
p314
sg7
g8
(g9
(I0
tp315
g11
tp316
Rp317
(I1
(I2
tp318
g18
I00
S'\xcd\xcc\xcc\xcc\xcc\xcc\xf4?\x9a\x99\x99\x99\x99\x99\xb9?'
p319
tp320
bsg23
I2
sg24
S'5627856'
p321
ssS'SAMPL5_004'
p322
(dp323
g3
S'CCOc1ccc(cc1)Nc2cc(c3ccccc3n2)C'
p324
sg5
S'~{N}-(4-ethoxyphenyl)-4-methyl-quinolin-2-amine'
p325
sg7
g8
(g9
(I0
tp326
g11
tp327
Rp328
(I1
(I2
tp329
g18
I00
S'\x9a\x99\x99\x99\x99\x99\x01@333333\xd3?'
p330
tp331
bsg23
I1
sg24
S'1221528'
p332
ssS'SAMPL5_061'
p333
(dp334
g3
S'Cc1nccc(n1)[C@@]2(CNCCO2)C'
p335
sg5
S'(2~{S})-2-methyl-2-(2-methylpyrimidin-4-yl)morpholine'
p336
sg7
g8
(g9
(I0
tp337
g11
tp338
Rp339
(I1
(I2
tp340
g18
I00
S'333333\xf7\xbf\n\xd7\xa3p=\n\xb7?'
p341
tp342
bsg23
I0
sg24
S'43241882'
p343
ssS'SAMPL5_060'
p344
(dp345
g3
S'c1ccc2c(c1)c3cc(ncc3[nH]2)C(=O)O'
p346
sg5
S'9~{H}-pyrido[3,4-b]indole-3-carboxylic acid'
p347
sg7
g8
(g9
(I0
tp348
g11
tp349
Rp350
(I1
(I2
tp351
g18
I00
S'333333\x0f\xc0\x9a\x99\x99\x99\x99\x99\xc9?'
p352
tp353
bsg23
I1
sg24
S'42618372'
p354
ssS'SAMPL5_067'
p355
(dp356
g3
S'CC(C)NC[C@@H](COc1cccc2c1cccc2)O'
p357
sg5
S'(2~{S})-1-(isopropylamino)-3-(1-naphthyloxy)propan-2-ol'
p358
sg7
g8
(g9
(I0
tp359
g11
tp360
Rp361
(I1
(I2
tp362
g18
I00
S'\xcd\xcc\xcc\xcc\xcc\xcc\xf4\xbf333333\xd3?'
p363
tp364
bsg23
I2
sg24
g91
ssS'SAMPL5_003'
p365
(dp366
g3
S'c1ccc2c(c1)c(=O)oc(n2)c3ccccc3F'
p367
sg5
S'2-(2-fluorophenyl)-3,1-benzoxazin-4-one'
p368
sg7
g8
(g9
(I0
tp369
g11
tp370
Rp371
(I1
(I2
tp372
g18
I00
S'ffffff\xfe?\x9a\x99\x99\x99\x99\x99\xb9?'
p373
tp374
bsg23
I0
sg24
S'1231787'
p375
ssS'SAMPL5_002'
p376
(dp377
g3
S'CCOC(=O)c1c(c2c(c(c(nc2s1)C)C)C)N'
p378
sg5
S'ethyl 3-amino-4,5,6-trimethyl-thieno[2,3-b]pyridine-2-carboxylate'
p379
sg7
g8
(g9
(I0
tp380
g11
tp381
Rp382
(I1
(I2
tp383
g18
I00
S'ffffff\xf6?333333\xd3?'
p384
tp385
bsg23
I2
sg24
S'1254130'
p386
ssS'SAMPL5_070'
p387
(dp388
g3
S'CN(C)CCC=C1c2ccccc2CCc3c1cccc3'
p389
sg5
S"3-(5,6-dihydrodibenzo[1,2-~{d}:2',1'-~{f}][7]annulen-11-ylidene)-~{N},~{N}-dimethyl-propan-1-amine"
p390
sg7
g8
(g9
(I0
tp391
g11
tp392
Rp393
(I1
(I2
tp394
g18
I00
S'\x9a\x99\x99\x99\x99\x99\xf9?333333\xd3?'
p395
tp396
bsg23
I0
sg24
g91
ssS'SAMPL5_069'
p397
(dp398
g3
S'C[N@]1CCc2cc(c(c-3c2[C@@H]1Cc4c3cc(c(c4)O)OC)OC)O'
p399
sg5
S'(6~{S},6~{a}~{S})-1,10-dimethoxy-6-methyl-5,6,6~{a},7-tetrahydro-4~{H}-dibenzo[de,g]quinoline-2,9-diol'
p400
sg7
g8
(g9
(I0
tp401
g11
tp402
Rp403
(I1
(I2
tp404
g18
I00
S'\xcd\xcc\xcc\xcc\xcc\xcc\xf4\xbf333333\xd3?'
p405
tp406
bsg23
I2
sg24
g91
ssS'SAMPL5_068'
p407
(dp408
g3
S'c1ccc(cc1)c2c(nnc(n2)c3ccccn3)c4ccccc4'
p409
sg5
S'5,6-diphenyl-3-(2-pyridyl)-1,2,4-triazine'
p410
sg7
g8
(g9
(I0
tp411
g11
tp412
Rp413
(I1
(I2
tp414
g18
I00
S'ffffff\xf6?333333\xd3?'
p415
tp416
bsg23
I0
sg24
g91
ssS'SAMPL5_045'
p417
(dp418
g3
S'CCC(=O)Nc1ccc2c(c1)ncs2'
p419
sg5
S'~{N}-(1,3-benzothiazol-5-yl)propanamide'
p420
sg7
g8
(g9
(I0
tp421
g11
tp422
Rp423
(I1
(I2
tp424
g18
I00
S'\xcd\xcc\xcc\xcc\xcc\xcc\x00\xc0\x9a\x99\x99\x99\x99\x99\xc9?'
p425
tp426
bsg23
I0
sg24
S'12474692'
p427
ssS'SAMPL5_044'
p428
(dp429
g3
S'c1ccc2c(c1)cc(c(=O)o2)C(=O)Nc3ccc4c(c3)scn4'
p430
sg5
S'~{N}-(1,3-benzothiazol-6-yl)-2-oxo-chromene-3-carboxamide'
p431
sg7
g8
(g9
(I0
tp432
g11
tp433
Rp434
(I1
(I2
tp435
g18
I00
S'\x00\x00\x00\x00\x00\x00\xf0?\x9a\x99\x99\x99\x99\x99\xd9?'
p436
tp437
bsg23
I1
sg24
S'4987019'
p438
ssS'SAMPL5_048'
p439
(dp440
g3
S'c1ccc2c(c1)nc(s2)c3cccc(c3)NC(=O)c4ccno4'
p441
sg5
S'~{N}-[3-(1,3-benzothiazol-2-yl)phenyl]isoxazole-5-carboxamide'
p442
sg7
g8
(g9
(I0
tp443
g11
tp444
Rp445
(I1
(I2
tp446
g18
I00
S'\xcd\xcc\xcc\xcc\xcc\xcc\xec?\x9a\x99\x99\x99\x99\x99\xd9?'
p447
tp448
bsg23
I1
sg24
S'5627798'
p449
ssS'SAMPL5_046'
p450
(dp451
g3
S'CSc1ccc(cc1)CC(=O)Nc2c3ccsc3ncn2'
p452
sg5
S'2-(4-methylsulfanylphenyl)-~{N}-thieno[2,3-d]pyrimidin-4-yl-acetamide'
p453
sg7
g8
(g9
(I0
tp454
g11
tp455
Rp456
(I1
(I2
tp457
g18
I00
S'\x9a\x99\x99\x99\x99\x99\xc9?333333\xd3?'
p458
tp459
bsg23
I1
sg24
S'12046880'
p460
ssS'SAMPL5_006'
p461
(dp462
g3
S'C=C(Cn1c2ccccc2nc1CO)Br'
p463
sg5
S'[1-(2-bromoallyl)benzimidazol-2-yl]methanol'
p464
sg7
g8
(g9
(I0
tp465
g11
tp466
Rp467
(I1
(I2
tp468
g18
I00
S'R\xb8\x1e\x85\xebQ\xf0\xbf\n\xd7\xa3p=\n\xb7?'
p469
tp470
bsg23
I2
sg24
S'2118862'
p471
ssS'SAMPL5_063'
p472
(dp473
g3
S'C1C[C@H](CNC1)N2CCC(CC2)C(=O)N'
p474
sg5
S'1-[(3~{R})-3-piperidyl]piperidine-4-carboxamide'
p475
sg7
g8
(g9
(I0
tp476
g11
tp477
Rp478
(I1
(I2
tp479
g18
I00
S'\x00\x00\x00\x00\x00\x00\x08\xc0\x9a\x99\x99\x99\x99\x99\xd9?'
p480
tp481
bsg23
I1
sg24
S'38498425'
p482
ssS'SAMPL5_047'
p483
(dp484
g3
S'c1cnoc1C(=O)Nc2c(c3c(s2)CCCC3)C#N'
p485
sg5
S'~{N}-(3-cyano-4,5,6,7-tetrahydrobenzothiophen-2-yl)isoxazole-5-carboxamide'
p486
sg7
g8
(g9
(I0
tp487
g11
tp488
Rp489
(I1
(I2
tp490
g18
I00
S'\x9a\x99\x99\x99\x99\x99\xd9\xbf333333\xd3?'
p491
tp492
bsg23
I1
sg24
S'5627778'
p493
ssS'SAMPL5_055'
p494
(dp495
g3
S'c1ccc2c(c1)ncc(n2)C(=O)N'
p496
sg5
S'quinoxaline-2-carboxamide'
p497
sg7
g8
(g9
(I0
tp498
g11
tp499
Rp500
(I1
(I2
tp501
g18
I00
S'\x00\x00\x00\x00\x00\x00\xf8\xbf\x9a\x99\x99\x99\x99\x99\xb9?'
p502
tp503
bsg23
I0
sg24
S'3800934'
p504
ssS'SAMPL5_088'
p505
(dp506
g3
S'CCN(Cc1ccncc1)C(=O)[C@H](CO)c2ccccc2'
p507
sg5
S'(2~{S})-~{N}-ethyl-3-hydroxy-2-phenyl-~{N}-(4-pyridylmethyl)propanamide'
p508
sg7
g8
(g9
(I0
tp509
g11
tp510
Rp511
(I1
(I2
tp512
g18
I00
S'ffffff\xfe\xbf333333\xd3?'
p513
tp514
bsg23
I2
sg24
g91
ssS'SAMPL5_092'
p515
(dp516
g3
S'CC(=O)N1CCN(CC1)c2ccc(cc2)OC[C@H]3CO[C@](O3)(Cn4ccnc4)c5ccc(cc5Cl)Cl'
p517
sg5
S'1-[4-[4-[[(2~{R},4~{S})-2-(2,4-dichlorophenyl)-2-(imidazol-1-ylmethyl)-1,3-dioxolan-4-yl]methoxy]phenyl]piperazin-1-yl]ethanone'
p518
sg7
g8
(g9
(I0
tp519
g11
tp520
Rp521
(I1
(I2
tp522
g18
I00
S'\x9a\x99\x99\x99\x99\x99\xd9\xbf333333\xd3?'
p523
tp524
bsg23
I2
sg24
g91
ssS'SAMPL5_090'
p525
(dp526
g3
S'Cc1cc2c(cc1C)nc(c(n2)c3ccccn3)c4ccccn4'
p527
sg5
S'6,7-dimethyl-2,3-bis(2-pyridyl)quinoxaline'
p528
sg7
g8
(g9
(I0
tp529
g11
tp530
Rp531
(I1
(I2
tp532
g18
I00
S'\x9a\x99\x99\x99\x99\x99\xe9?\x9a\x99\x99\x99\x99\x99\xc9?'
p533
tp534
bsg23
I1
sg24
g91
ssS'SAMPL5_005'
p535
(dp536
g3
S'Cn1ccnc1SCC(=O)Nc2ccc3c(c2)OCO3'
p537
sg5
S'~{N}-(1,3-benzodioxol-5-yl)-2-(1-methylimidazol-2-yl)sulfanyl-acetamide'
p538
sg7
g8
(g9
(I0
tp539
g11
tp540
Rp541
(I1
(I2
tp542
g18
I00
S'\x85\xebQ\xb8\x1e\x85\xeb\xbf\n\xd7\xa3p=\n\xb7?'
p543
tp544
bsg23
I1
sg24
S'1363085'
p545
ssS'SAMPL5_042'
p546
(dp547
g3
S'c1ccc(cc1)c2ccccc2NC(=O)c3ccc(=O)[nH]n3'
p548
sg5
S'6-oxo-~{N}-(2-phenylphenyl)-1~{H}-pyridazine-3-carboxamide'
p549
sg7
g8
(g9
(I0
tp550
g11
tp551
Rp552
(I1
(I2
tp553
g18
I00
S'\x9a\x99\x99\x99\x99\x99\xf1\xbf333333\xd3?'
p554
tp555
bsg23
I1
sg24
S'1552842'
p556
ssS'SAMPL5_033'
p557
(dp558
g3
S'Cc1ccc(cc1NC(=O)N2CCCCC[C@@H]2c3cccs3)Cl'
p559
sg5
S'(2~{R})-~{N}-(5-chloro-2-methyl-phenyl)-2-(2-thienyl)azepane-1-carboxamide'
p560
sg7
g8
(g9
(I0
tp561
g11
tp562
Rp563
(I1
(I2
tp564
g18
I00
S'\xcd\xcc\xcc\xcc\xcc\xcc\xfc?\x9a\x99\x99\x99\x99\x99\xc9?'
p565
tp566
bsg23
I2
sg24
S'16363773'
p567
ssS'SAMPL5_037'
p568
(dp569
g3
S'CN(C)S(=O)(=O)N1CCNCC1'
p570
sg5
S'~{N},~{N}-dimethylpiperazine-1-sulfonamide'
p571
sg7
g8
(g9
(I0
tp572
g11
tp573
Rp574
(I1
(I2
tp575
g18
I00
S'\x00\x00\x00\x00\x00\x00\xf8\xbf\x9a\x99\x99\x99\x99\x99\xb9?'
p576
tp577
bsg23
I0
sg24
S'833953'
p578
ss.