(dp0
S'SAMPL5_017'
p1
(dp2
S'cyclohexane'
p3
(lp4
cnumpy.core.multiarray
scalar
p5
(cnumpy
dtype
p6
(S'f8'
p7
I0
I1
tp8
Rp9
(I3
S'<'
p10
NNNI-1
I-1
I0
tp11
bS'\xeaz\xaa44\x04R@'
p12
tp13
Rp14
ag5
(g9
S'\xec\xc6Vu\xc8\x08\xc8?'
p15
tp16
Rp17
asS'Smiles'
p18
S'c1ccc2c(c1)c(nc(n2)c3ccccc3O)NC4CCCC4'
p19
sS'EmolID'
p20
S'2425478'
p21
sS'rotatable'
p22
I3
sS'water'
p23
(lp24
g5
(g9
S'~\x0e<\xc6!2B@'
p25
tp26
Rp27
ag5
(g9
S'Rs}1#\xd2\xbe?'
p28
tp29
Rp30
asS'LogD_calc'
p31
cnumpy.core.multiarray
_reconstruct
p32
(cnumpy
ndarray
p33
(I0
tp34
S'b'
p35
tp36
Rp37
(I1
(I2
tp38
g6
(S'f8'
p39
I0
I1
tp40
Rp41
(I3
S'<'
p42
NNNI-1
I-1
I0
tp43
bI00
S'\xf0;F\xcc\xd1\xff\x18@\x82\x10\xb9_\xdf\x01\xa4?'
p44
tp45
bssS'SAMPL5_058'
p46
(dp47
g3
(lp48
g5
(g9
S'\xfb\xf4\xd7\xa7\xfd\xb6I@'
p49
tp50
Rp51
ag5
(g9
S'\x1f\xdf\x17\xf3(N\xc4?'
p52
tp53
Rp54
asg18
S'c1ccc(cc1)n2c(=O)c3ccccc3cn2'
p55
sg20
S'3730323'
p56
sg22
I1
sg23
(lp57
g5
(g9
S'\x9c\xbd\x19\x84\x04\x05G@'
p58
tp59
Rp60
ag5
(g9
S'G\xefP\x9e\x80t\xba?'
p61
tp62
Rp63
asg31
g32
(g33
(I0
tp64
g35
tp65
Rp66
(I1
(I2
tp67
g41
I00
S'\xd0\x00\xbe\xa438\xee?\xdfk\xd5Dv\xfb\xa0?'
p68
tp69
bssS'SAMPL5_059'
p70
(dp71
g3
(lp72
g5
(g9
S'6\x02\xa7\xa2\x1e\tE@'
p73
tp74
Rp75
ag5
(g9
S'w\xd4D~\x10\x03\xc0?'
p76
tp77
Rp78
asg18
S'c1ccc(cc1)c2nc(sn2)N'
p79
sg20
S'711981'
p80
sg22
I1
sg23
(lp81
g5
(g9
S'\xb2\x05\x15\xe1\xae\xebF@'
p82
tp83
Rp84
ag5
(g9
S'\xb3\xf7\x92%\xd6\xdc\xb6?'
p85
tp86
Rp87
asg31
g32
(g33
(I0
tp88
g35
tp89
Rp90
(I1
(I2
tp91
g41
I00
S'\xb5$5&\xa8"\xe5\xbf\x14;\xb8\xb1\xd8\x92\x9b?'
p92
tp93
bssS'SAMPL5_013'
p94
(dp95
g3
(lp96
g5
(g9
S'\x13\xa8NJu\xe1T@'
p97
tp98
Rp99
ag5
(g9
S'v\xd9\x00\x03d\x0e\xca?'
p100
tp101
Rp102
asg18
S'Cc1ccc(cc1)c2nc(c3c(n2)n(c(=O)[nH]3)c4ccccc4)C(=O)N'
p103
sg20
S'16095985'
p104
sg22
I3
sg23
(lp105
g5
(g9
S'nD\x9b\xf1\xa4NS@'
p106
tp107
Rp108
ag5
(g9
S'\xdd(w\xa1\xbf\x1a\xc0?'
p109
tp110
Rp111
asg31
g32
(g33
(I0
tp112
g35
tp113
Rp114
(I1
(I2
tp115
g41
I00
S'a\xac\x7f\x88z\xa4\xf1?sUi*.w\xa5?'
p116
tp117
bssS'SAMPL5_010'
p118
(dp119
g3
(lp120
g5
(g9
S'\xa1\xbf\x08\xe2P\x81K@'
p121
tp122
Rp123
ag5
(g9
S'\x80\xed\x92\xcd%d\xc3?'
p124
tp125
Rp126
asg18
S'c1cc(cc(c1)NCc2ccncc2)C(=O)O'
p127
sg20
S'1491855'
p128
sg22
I4
sg23
(lp129
g5
(g9
S'<\xf1\xc0+YxO@'
p130
tp131
Rp132
ag5
(g9
S'\x86\x82\xd7L|\x95\xbb?'
p133
tp134
Rp135
asg31
g32
(g33
(I0
tp136
g35
tp137
Rp138
(I1
(I2
tp139
g41
I00
S'\x86\x88\xadWo:\xf6\xbf\xc0%\xb6\x12\xe3\xac\xa0?'
p140
tp141
bssS'SAMPL5_011'
p142
(dp143
g3
(lp144
g5
(g9
S'\xb2\xb4\xd9\x81\xc3`M@'
p145
tp146
Rp147
ag5
(g9
S')\xeb\xa2\xfc\xf7\xde\xc4?'
p148
tp149
Rp150
asg18
S'Cc1cc(nc(n1)Nc2ccccc2C(=O)O)C'
p151
sg20
S'542592'
p152
sg22
I3
sg23
(lp153
g5
(g9
S'(tg\xfccyH@'
p154
tp155
Rp156
ag5
(g9
S'Bx\x11\xa2\xba\xf0\xba?'
p157
tp158
Rp159
asg31
g32
(g33
(I0
tp160
g35
tp161
Rp162
(I1
(I2
tp163
g41
I00
S'M\xae\\\xeb\xd2}\xfb?\xa2\x85a\xc9Ih\xa1?'
p164
tp165
bssS'SAMPL5_074'
p166
(dp167
g3
(lp168
g5
(g9
S'\t\x18l\x00\xb2\x8aQ@'
p169
tp170
Rp171
ag5
(g9
S'\xe6\xbb\xab\xf8X(\xc4?'
p172
tp173
Rp174
asg18
S'c1nc(c2c(n1)n(cn2)[C@H]3[C@@H]([C@@H]([C@H](O3)CO)O)O)N'
p175
sg20
S''
p176
sg22
I2
sg23
(lp177
g5
(g9
S'\x141Bl\x17\xe8V@'
p178
tp179
Rp180
ag5
(g9
S'\xb0\x0c\xc5\xfei\x92\xc5?'
p181
tp182
Rp183
asg31
g32
(g33
(I0
tp184
g35
tp185
Rp186
(I1
(I2
tp187
g41
I00
S'\x9c+T\xe8z\x13\x0e\xc0N\xcb\xba\xda\x8d\xb0\xa4?'
p188
tp189
bssS'SAMPL5_075'
p190
(dp191
g3
(lp192
g5
(g9
S'=/\xd8\xeb\xc5\xfaL@'
p193
tp194
Rp195
ag5
(g9
S'\xd7\xaf\x8f\x01C\x0e\xc9?'
p196
tp197
Rp198
asg18
S'CC(C)NC[C@@H](COc1ccc(cc1)CCOC)O'
p199
sg20
g176
sg22
I9
sg23
(lp200
g5
(g9
S'\x92w\x99,\xd8\x8aE@'
p201
tp202
Rp203
ag5
(g9
S'\xc5j5\xedx~\xc4?'
p204
tp205
Rp206
asg31
g32
(g33
(I0
tp207
g35
tp208
Rp209
(I1
(I2
tp210
g41
I00
S'\x05\xe5\xa7\x8c\xdd\xd8\x04@\xd3D\xcf\xb5\x05\xaf\xa6?'
p211
tp212
bssS'SAMPL5_050'
p213
(dp214
g3
(lp215
g5
(g9
S'6D\xa0\xa4\x90bK@'
p216
tp217
Rp218
ag5
(g9
S'\x8a\xe0\xa3\x82%\xea\xc2?'
p219
tp220
Rp221
asg18
S'Cc1ccc2c(n1)nn3c2nc(cc3O)C'
p222
sg20
S'5663556'
p223
sg22
I0
sg23
(lp224
g5
(g9
S'r\xe4r\xfe\x17\xf6G@'
p225
tp226
Rp227
ag5
(g9
S'\x0e\x16\xfd\x0b)6\xc5?'
p228
tp229
Rp230
asg31
g32
(g33
(I0
tp231
g35
tp232
Rp233
(I1
(I2
tp234
g41
I00
S'\x10\x1d\xa5\x9f\xa31\xf3?\xac\x927\x83u\xea\xa3?'
p235
tp236
bssS'SAMPL5_056'
p237
(dp238
g3
(lp239
g5
(g9
S'\xad\x11%\x9e\xbe\xefK@'
p240
tp241
Rp242
ag5
(g9
S'7P\xb5l"\xd8\xc4?'
p243
tp244
Rp245
asg18
S'CC(C)[C@@H]1Cc2c(cc(c(n2)O)C#N)CO1'
p246
sg20
g176
sg22
I1
sg23
(lp247
g5
(g9
S'C\xe74\x01\xc7@D@'
p248
tp249
Rp250
ag5
(g9
S'Sh\x10\x0e4\x9c\xb9?'
p251
tp252
Rp253
asg31
g32
(g33
(I0
tp254
g35
tp255
Rp256
(I1
(I2
tp257
g41
I00
S'\xa6\xb7{I\x91\x89\x05@\x15\xbf)^\xa6$\xa1?'
p258
tp259
bssS'SAMPL5_071'
p260
(dp261
g3
(lp262
g5
(g9
S'\x87?,\xcb\xdd\x96M@'
p263
tp264
Rp265
ag5
(g9
S'\x0b?\x82\x89=\x98\xc7?'
p266
tp267
Rp268
asg18
S'CCOc1cc(c(cc1N2CCOCC2)OCC)N'
p269
sg20
g176
sg22
I5
sg23
(lp270
g5
(g9
S'\xed\xed_\xd5\xb5XK@'
p271
tp272
Rp273
ag5
(g9
S'\xfbf\xb9X]6\xbf?'
p274
tp275
Rp276
asg31
g32
(g33
(I0
tp277
g35
tp278
Rp279
(I1
(I2
tp280
g41
I00
S'\x00z\xc5~\x9f%\xe9?\xbf\xbd\xc6\x03\xf3\xd2\xa3?'
p281
tp282
bssS'SAMPL5_072'
p283
(dp284
g3
(lp285
g5
(g9
S'\x1c\xb4\xd4(\xfbJJ@'
p286
tp287
Rp288
ag5
(g9
S'H]H\x9e\xbe\x97\xc8?'
p289
tp290
Rp291
asg18
S'CN(C)CCOC(c1ccccc1)c2ccccc2'
p292
sg20
g176
sg22
I6
sg23
(lp293
g5
(g9
S'\xb9\x9e\xb1\x87:0@@'
p294
tp295
Rp296
ag5
(g9
S'\x01}o\x8bh\xbe\xc1?'
p297
tp298
Rp299
asg31
g32
(g33
(I0
tp300
g35
tp301
Rp302
(I1
(I2
tp303
g41
I00
S'7Z\x19\x1a\xe0R\x0c@:\x96:\x03V@\xa5?'
p304
tp305
bssS'SAMPL5_019'
p306
(dp307
g3
(lp308
g5
(g9
S'\xa3}2\x82V\xcfQ@'
p309
tp310
Rp311
ag5
(g9
S'\xb9&\xc5M\xab\x07\xc8?'
p312
tp313
Rp314
asg18
S'Cc1ccc(cc1)Nc2ccnc(n2)Nc3ccc(cc3)C'
p315
sg20
S'43423819'
p316
sg22
I4
sg23
(lp317
g5
(g9
S'p#y\x1f\xcdcK@'
p318
tp319
Rp320
ag5
(g9
S']\x86A1#\x98\xbe?'
p321
tp322
Rp323
asg31
g32
(g33
(I0
tp324
g35
tp325
Rp326
(I1
(I2
tp327
g41
I00
S'\x9c.\xec4\xbd\x11\x07@\xd7"\x90\x03F\xf6\xa3?'
p328
tp329
bssS'SAMPL5_061'
p330
(dp331
g3
(lp332
g5
(g9
S'V\xb33\x96xgG@'
p333
tp334
Rp335
ag5
(g9
S'$\xd8\xce\xf0!\xe4\xc3?'
p336
tp337
Rp338
asg18
S'Cc1nccc(n1)[C@@]2(CNCCO2)C'
p339
sg20
S'43241882'
p340
sg22
I1
sg23
(lp341
g5
(g9
S'[\xd7\xb4\xfd\x1a\xffA@'
p342
tp343
Rp344
ag5
(g9
S"'\xce\x05\x11\xbc\xdc\xc1?"
p345
tp346
Rp347
asg31
g32
(g33
(I0
tp348
g35
tp349
Rp350
(I1
(I2
tp351
g41
I00
S"\xf0\xadT\xfc\xf9P\xfe?'|\\\xfd\t\xbc\xa2?"
p352
tp353
bssS'SAMPL5_015'
p354
(dp355
g3
(lp356
g5
(g9
S'9\xa7\x84\xb1\x98\xa8K@'
p357
tp358
Rp359
ag5
(g9
S'L5z;\x90\xd1\xc2?'
p360
tp361
Rp362
asg18
S'Cc1ccc2c(c1)c(ncn2)NCC(=O)O'
p363
sg20
S'1355949'
p364
sg22
I3
sg23
(lp365
g5
(g9
S'w\xcd\x90\xee\xf1\rN@'
p366
tp367
Rp368
ag5
(g9
S'v\xb9\x16l^\xa1\xba?'
p369
tp370
Rp371
asg31
g32
(g33
(I0
tp372
g35
tp373
Rp374
(I1
(I2
tp375
g41
I00
S"\xcb\xa5\xbf\xd7\x0f\xdd\xea\xbf\xf8+\xcd\x87\x9d'\xa0?"
p376
tp377
bssS'SAMPL5_003'
p378
(dp379
g3
(lp380
g5
(g9
S'\xabR^G\xd1\x04J@'
p381
tp382
Rp383
ag5
(g9
S'\x9b<&\xbc\xd0\x11\xc4?'
p384
tp385
Rp386
asg18
S'c1ccc2c(c1)c(=O)oc(n2)c3ccccc3F'
p387
sg20
S'1231787'
p388
sg22
I1
sg23
(lp389
g5
(g9
S'\xf4\xda}\xe1JaD@'
p390
tp391
Rp392
ag5
(g9
S'\xe3\xb7\xce\xf3#i\xb9?'
p393
tp394
Rp395
asg31
g32
(g33
(I0
tp396
g35
tp397
Rp398
(I1
(I2
tp399
g41
I00
S'\xfc\x05\x8f/\xa2\x9c\xff?\xb7\x96\x8d\x9dA\xa5\xa0?'
p400
tp401
bssS'SAMPL5_085'
p402
(dp403
g3
(lp404
g5
(g9
S'\xb3,\xa9={\xc1L@'
p405
tp406
Rp407
ag5
(g9
S'F\xa7\xda\xda\x01I\xc5?'
p408
tp409
Rp410
asg18
S'c1ccc(cc1)C2(C(=O)NC(=O)N2)c3ccccc3'
p411
sg20
g176
sg22
I2
sg23
(lp412
g5
(g9
S'\xcf\xa3\x93\xddcGQ@'
p413
tp414
Rp415
ag5
(g9
S'\xe0\x1bF\x95Sh\xbc?'
p416
tp417
Rp418
asg31
g32
(g33
(I0
tp419
g35
tp420
Rp421
(I1
(I2
tp422
g41
I00
S'\xa9\x05\x93~iC\x00\xc0\xc6\xe6\xb7\x1a\xa0\xee\xa1?'
p423
tp424
bssS'SAMPL5_084'
p425
(dp426
g3
(lp427
g5
(g9
S'\xaf=i\x8c{YR@'
p428
tp429
Rp430
ag5
(g9
S'\x80R\x16\xd5x\xdb\xce?'
p431
tp432
Rp433
asg18
S'c1cc(ccc1C(=O)CCCN2CCC(CC2)(c3ccc(cc3)Cl)O)F'
p434
sg20
g176
sg22
I6
sg23
(lp435
g5
(g9
S'\xd2$r\xb4LwK@'
p436
tp437
Rp438
ag5
(g9
S'|RH|x]\xd8?'
p439
tp440
Rp441
asg31
g32
(g33
(I0
tp442
g35
tp443
Rp444
(I1
(I2
tp445
g41
I00
S'\x99\x0f@\x82\x8b\xe1\t@"\x92\xa6\x07\xae5\xb4?'
p446
tp447
bssS'SAMPL5_086'
p448
(dp449
g3
(lp450
g5
(g9
S'\x8c\xd6\xe5\xa6\x04\x01S@'
p451
tp452
Rp453
ag5
(g9
S'\xc6t\xbe\xb5\xdc\xf5\xcd?'
p454
tp455
Rp456
asg18
S'CCCCOc1cc(c2ccccc2n1)C(=O)NCCN(CC)CC'
p457
sg20
g176
sg22
I11
sg23
(lp458
g5
(g9
S'1\xda\x91\xf5\xe2TM@'
p459
tp460
Rp461
ag5
(g9
S'\x1e\xef\xbb2\x16\x7f\xcb?'
p462
tp463
Rp464
asg31
g32
(g33
(I0
tp465
g35
tp466
Rp467
(I1
(I2
tp468
g41
I00
S'\x8b\xc6U\xc9\x0fR\x08@\x15\xc6sZD\x7f\xac?'
p469
tp470
bssS'SAMPL5_081'
p471
(dp472
g3
(lp473
g5
(g9
S'cb\xd4\x18-RM@'
p474
tp475
Rp476
ag5
(g9
S'\xfe#\xae\xc1Y\xb3\xc7?'
p477
tp478
Rp479
asg18
S'CC(C)NC[C@H](COc1ccc(cc1)CC(=O)N)O'
p480
sg20
g176
sg22
I8
sg23
(lp481
g5
(g9
S'\xb2O\x98\x8e\xe1\xb0Q@'
p482
tp483
Rp484
ag5
(g9
S'\x18#\x01o\xaf\xc1\xca?'
p485
tp486
Rp487
asg31
g32
(g33
(I0
tp488
g35
tp489
Rp490
(I1
(I2
tp491
g41
I00
S'\x98*\xbfq8\xfd\x00\xc0A\xba\x87\x9a^\x0c\xa9?'
p492
tp493
bssS'SAMPL5_080'
p494
(dp495
g3
(lp496
g5
(g9
S'T\xc3\x0e\x88\xae J@'
p497
tp498
Rp499
ag5
(g9
S'\x10q\x17\xbe\xd3\xfd\xc0?'
p500
tp501
Rp502
asg18
S'Cn1cnc2c1c(=O)n(c(=O)n2C)C'
p503
sg20
g176
sg22
I0
sg23
(lp504
g5
(g9
S'\xaae\xf9\xba\xb1lR@'
p505
tp506
Rp507
ag5
(g9
S'\x84v\tf\x11R\xba?'
p508
tp509
Rp510
asg31
g32
(g33
(I0
tp511
g35
tp512
Rp513
(I1
(I2
tp514
g41
I00
S'^AJN\xa2\r\x0e\xc0\xc1\x9d@\x1d2\x1f\x9e?'
p515
tp516
bssS'SAMPL5_083'
p517
(dp518
g3
(lp519
g5
(g9
S'\xdfZ\xa7B\xc4\xa2b@'
p520
tp521
Rp522
ag5
(g9
S't\xa1\xc7\xe2\xc2L\xdc?'
p523
tp524
Rp525
asg18
S'C[C@H]1/C=C/C=C(\\C(=O)NC\\2=C(C3=C(C(=C4C(=C3C(=O)/C2=C/NN5CCN(CC5)C)C(=O)[C@](O4)(O/C=C/[C@@H]([C@H]([C@H]([C@@H]([C@@H]([C@@H]([C@H]1O)C)O)C)OC(=O)C)C)OC)C)C)O)O)/C'
p526
sg20
g176
sg22
I5
sg23
(lp527
g5
(g9
S'\x1ae5\xca&\xc6a@'
p528
tp529
Rp530
ag5
(g9
S'7\xa2\xb0\xe4\xda\xbd\xd1?'
p531
tp532
Rp533
asg31
g32
(g33
(I0
tp534
g35
tp535
Rp536
(I1
(I2
tp537
g41
I00
S'j]x,7S\xf3?R\x19\xfb\xec\x18h\xb7?'
p538
tp539
bssS'SAMPL5_082'
p540
(dp541
g3
(lp542
g5
(g9
S'oJ\xfeNc\xeeQ@'
p543
tp544
Rp545
ag5
(g9
S'.T\x1c\xae\xd7\xf7\xcf?'
p546
tp547
Rp548
asg18
S'CC/C(=C(\\c1ccccc1)/c2ccc(cc2)OCCN(C)C)/c3ccccc3'
p549
sg20
g176
sg22
I8
sg23
(lp550
g5
(g9
S'\xa2\xa6\xbd@[$A@'
p551
tp552
Rp553
ag5
(g9
S'\xff\xa83\xb26\xa9\xc4?'
p554
tp555
Rp556
asg31
g32
(g33
(I0
tp557
g35
tp558
Rp559
(I1
(I2
tp560
g41
I00
S'\xd2\xd8\x14\xc9\xc4<\x1a@\xf9;\x93\xb2\x80\xac\xaa?'
p561
tp562
bssS'SAMPL5_027'
p563
(dp564
g3
(lp565
g5
(g9
S'\x7f\xac\x1b\xc6q\xb2J@'
p566
tp567
Rp568
ag5
(g9
S'[8\xd3\xd5\xf7\xf4\xc1?'
p569
tp570
Rp571
asg18
S'c1ccc(cc1)CNc2ncnc(n2)N'
p572
sg20
S'2483781'
p573
sg22
I3
sg23
(lp574
g5
(g9
S'\x8b/\x8f\xfe\x02\x82P@'
p575
tp576
Rp577
ag5
(g9
S'&\x90\xf6\x02\xfb\xab\xba?'
p578
tp579
Rp580
asg31
g32
(g33
(I0
tp581
g35
tp582
Rp583
(I1
(I2
tp584
g41
I00
S'\x07~\xb4=4\xb6\x01\xc0\xec\x15}\xc2CY\x9f?'
p585
tp586
bssS'SAMPL5_026'
p587
(dp588
g3
(lp589
g5
(g9
S'\xc3\xd8vx0TH@'
p590
tp591
Rp592
ag5
(g9
S'\x05|\xe8*Cw\xc5?'
p593
tp594
Rp595
asg18
S'Cc1cc(c2c(c1)c(c([nH]2)C)CC(=O)O)C'
p596
sg20
S'703690'
p597
sg22
I2
sg23
(lp598
g5
(g9
S'#9MG\xb68M@'
p599
tp600
Rp601
ag5
(g9
S'\x8fp7|\n\x1f\xc4?'
p602
tp603
Rp604
asg31
g32
(g33
(I0
tp605
g35
tp606
Rp607
(I1
(I2
tp608
g41
I00
S'y\xf6n\x07\xd8m\xfb\xbf\x0f\x18$\xa24\x9e\xa4?'
p609
tp610
bssS'SAMPL5_024'
p611
(dp612
g3
(lp613
g5
(g9
S'\xcd\x1cQ\xd2\x10\xfeS@'
p614
tp615
Rp616
ag5
(g9
S'm\xad\x14\xa6\xc4Q\xca?'
p617
tp618
Rp619
asg18
S'Cc1ccc2c(c1)cc3cc(sc3n2)C(=O)Nc4ccc(c(c4)C)C'
p620
sg20
S'16329490'
p621
sg22
I3
sg23
(lp622
g5
(g9
S'\x97\xd4]i\x84IS@'
p623
tp624
Rp625
ag5
(g9
S'\xcd\xde\xfc\xcf:\x89\xc1?'
p626
tp627
Rp628
asg31
g32
(g33
(I0
tp629
g35
tp630
Rp631
(I1
(I2
tp632
g41
I00
S'\x10\x85\x00|x\xa1\xdf?\xa9\xd3\x88$\xac)\xa6?'
p633
tp634
bssS'SAMPL5_021'
p635
(dp636
g3
(lp637
g5
(g9
S"\x7f\x10Yfb'M@"
p638
tp639
Rp640
ag5
(g9
S'C\x9eG\xa6\xf2\xed\xc4?'
p641
tp642
Rp643
asg18
S'Cc1nn2cc(nc2s1)c3cccc(c3)OC'
p644
sg20
S'31467689'
p645
sg22
I2
sg23
(lp646
g5
(g9
S'\x10C,\x1d\x03\xbaC@'
p647
tp648
Rp649
ag5
(g9
S'{\xac\xbft\xff\xd8\xba?'
p650
tp651
Rp652
asg31
g32
(g33
(I0
tp653
g35
tp654
Rp655
(I1
(I2
tp656
g41
I00
S'\x01y\x11i\xe0l\n@>>I\xe8\x9dl\xa1?'
p657
tp658
bssS'SAMPL5_020'
p659
(dp660
g3
(lp661
g5
(g9
S'\x9d\xd6\xc3H\xcf\xa4M@'
p662
tp663
Rp664
ag5
(g9
S'?\x8d\xa5\xd9\x03\x94\xc7?'
p665
tp666
Rp667
asg18
S'CCCC(=O)Nc1nc2ccc(cc2s1)C(C)C'
p668
sg20
S'5522978'
p669
sg22
I5
sg23
(lp670
g5
(g9
S'sG\xc4o\x08QT@'
p671
tp672
Rp673
ag5
(g9
S'\x11\x94\r\x14\xc4\x17\xc1?'
p674
tp675
Rp676
asg31
g32
(g33
(I0
tp677
g35
tp678
Rp679
(I1
(I2
tp680
g41
I00
S'\xe5\xbd\x99\x9c\xc8\xcd\x0e\xc0H\x80\xc9@kh\xa4?'
p681
tp682
bssS'SAMPL5_049'
p683
(dp684
g3
(lp685
g5
(g9
S'ml\xb9\xa5\xd0\x8dJ@'
p686
tp687
Rp688
ag5
(g9
S'%\xf8V?iV\xc4?'
p689
tp690
Rp691
asg18
S'c1cc(c(c(c1)Cl)Cl)NC(=O)c2ccno2'
p692
sg20
S'5627856'
p693
sg22
I3
sg23
(lp694
g5
(g9
S'\xfd\x96\x0c\xa6iDD@'
p695
tp696
Rp697
ag5
(g9
S'\x17\x15\xd5ub\xdf\xba?'
p698
tp699
Rp700
asg31
g32
(g33
(I0
tp701
g35
tp702
Rp703
(I1
(I2
tp704
g41
I00
S'?Z\xa2\xc9H\x9f\x01@zv\x1a\xdb\xd6\x14\xa1?'
p705
tp706
bssS'SAMPL5_004'
p707
(dp708
g3
(lp709
g5
(g9
S'@\x87Z7\xa8wP@'
p710
tp711
Rp712
ag5
(g9
S'\xff\x8e\xca\xf3p\x94\xc7?'
p713
tp714
Rp715
asg18
S'CCOc1ccc(cc1)Nc2cc(c3ccccc3n2)C'
p716
sg20
S'1221528'
p717
sg22
I4
sg23
(lp718
g5
(g9
S'\xeaA0EX\x18D@'
p719
tp720
Rp721
ag5
(g9
S'+\xea\xe1V\xc3\x14\xbe?'
p722
tp723
Rp724
asg31
g32
(g33
(I0
tp725
g35
tp726
Rp727
(I1
(I2
tp728
g41
I00
S'\xe5\x06\\\xe5\xd1\xfe\x11@\xc3\x91KSp\x99\xa3?'
p729
tp730
bssS'SAMPL5_007'
p731
(dp732
g3
(lp733
g5
(g9
S'\x030\x82\x7fy\xb6P@'
p734
tp735
Rp736
ag5
(g9
S'\xa3}\x99\x16>\x0c\xc7?'
p737
tp738
Rp739
asg18
S'c1ccc(cc1)CCNc2c3cc(ccc3ncn2)Br'
p740
sg20
S'1373587'
p741
sg22
I4
sg23
(lp742
g5
(g9
S'{\x95\xbcN\\-D@'
p743
tp744
Rp745
ag5
(g9
S'\xdf\x18\x91V\xccB\xbe?'
p746
tp747
Rp748
asg31
g32
(g33
(I0
tp749
g35
tp750
Rp751
(I1
(I2
tp752
g41
I00
S'\x9f5P\xafr\x91\x12@\x05\x0f\xf3;\x12R\xa3?'
p753
tp754
bssS'SAMPL5_060'
p755
(dp756
g3
(lp757
g5
(g9
S'\x91\xaa\x95v\x90\x88J@'
p758
tp759
Rp760
ag5
(g9
S'\x8d\x83\n\x7f\xecY\xc2?'
p761
tp762
Rp763
asg18
S'c1ccc2c(c1)c3cc(ncc3[nH]2)C(=O)O'
p764
sg20
S'42618372'
p765
sg22
I1
sg23
(lp766
g5
(g9
S'#tOR*\x8bR@'
p767
tp768
Rp769
ag5
(g9
S'\xdd21\x17\xfeW\xba?'
p770
tp771
Rp772
asg31
g32
(g33
(I0
tp773
g35
tp774
Rp775
(I1
(I2
tp776
g41
I00
S'\x1e\x8b\x80\xbeD\x95\r\xc0_\xfc[\xea\xd5\xa8\x9f?'
p777
tp778
bssS'SAMPL5_067'
p779
(dp780
g3
(lp781
g5
(g9
S'\xc2\xbbU\xcbK\xfbJ@'
p782
tp783
Rp784
ag5
(g9
S'\x94\x0f\xab\xc9a\x8b\xc8?'
p785
tp786
Rp787
asg18
S'CC(C)NC[C@@H](COc1cccc2c1cccc2)O'
p788
sg20
g176
sg22
I6
sg23
(lp789
g5
(g9
S'\xd8\xa96^\t\xfdB@'
p790
tp791
Rp792
ag5
(g9
S'>q\xc2T&g\xca?'
p793
tp794
Rp795
asg31
g32
(g33
(I0
tp796
g35
tp797
Rp798
(I1
(I2
tp799
g41
I00
S'\xeb\x05\xa6~\xd4g\x06@\xf06X\xf1\x1fC\xa9?'
p800
tp801
bssS'SAMPL5_065'
p802
(dp803
g3
(lp804
g5
(g9
S'C\xb4\x15\x0c<\xa3`@'
p805
tp806
Rp807
ag5
(g9
S'\xbf0zB\xf5\xe2\xd3?'
p808
tp809
Rp810
asg18
S'COc1ccc2c(c1)[nH]c3c2CC[N@]4[C@@H]3C[C@H]5[C@@H](C4)C[C@H]([C@@H]([C@H]5C(=O)OC)OC)OC(=O)c6cc(c(c(c6)OC)OC)OC'
p811
sg20
g176
sg22
I10
sg23
(lp812
g5
(g9
S'\xc2K\x83h\x9ec]@'
p813
tp814
Rp815
ag5
(g9
S']H\xc6\xd9gb\xc7?'
p816
tp817
Rp818
asg31
g32
(g33
(I0
tp819
g35
tp820
Rp821
(I1
(I2
tp822
g41
I00
S'\x90\xact\x8aJ\xc9\x05@t\xbeL\x19\x87*\xb0?'
p823
tp824
bssS'SAMPL5_002'
p825
(dp826
g3
(lp827
g5
(g9
S'\xa8\xc5\x06\x07?\x9aM@'
p828
tp829
Rp830
ag5
(g9
S']\xdeU\xd0#\x12\xc6?'
p831
tp832
Rp833
asg18
S'CCOC(=O)c1c(c2c(c(c(nc2s1)C)C)C)N'
p834
sg20
S'1254130'
p835
sg22
I3
sg23
(lp836
g5
(g9
S'U\x1d\x9b\xa6InG@'
p837
tp838
Rp839
ag5
(g9
S'8\xf0\x0f\x02\xf8\xc0\xbb?'
p840
tp841
Rp842
asg31
g32
(g33
(I0
tp843
g35
tp844
Rp845
(I1
(I2
tp846
g41
I00
S'\xd5\x10\xe09\xc0L\x01@\x95\x08\x87\xce\nE\xa2?'
p847
tp848
bssS'SAMPL5_070'
p849
(dp850
g3
(lp851
g5
(g9
S'Cq}\x7fR\xe1L@'
p852
tp853
Rp854
ag5
(g9
S'\xc4f\xa55\xb8h\xca?'
p855
tp856
Rp857
asg18
S'CN(C)CCC=C1c2ccccc2CCc3c1cccc3'
p858
sg20
g176
sg22
I3
sg23
(lp859
g5
(g9
S'v\xda\r\xc2\xee\xb9>@'
p860
tp861
Rp862
ag5
(g9
S'\x04\xeb\xad7\n\x1b\xc0?'
p863
tp864
Rp865
asg31
g32
(g33
(I0
tp866
g35
tp867
Rp868
(I1
(I2
tp869
g41
I00
S'\x14\x9e\xaf\x00\xd4\xf1\x12@\x85d\xfeM;\xad\xa5?'
p870
tp871
bssS'SAMPL5_069'
p872
(dp873
g3
(lp874
g5
(g9
S'D_mHP\xd4R@'
p875
tp876
Rp877
ag5
(g9
S'Z\xd3q\xc4\xcam\xca?'
p878
tp879
Rp880
asg18
S'C[N@]1CCc2cc(c(c-3c2[C@@H]1Cc4c3cc(c(c4)O)OC)OC)O'
p881
sg20
g176
sg22
I2
sg23
(lp882
g5
(g9
S'\xbe\xad\xe5zQdM@'
p883
tp884
Rp885
ag5
(g9
S'\xedb+l\xc1\x84\xc2?'
p886
tp887
Rp888
asg31
g32
(g33
(I0
tp889
g35
tp890
Rp891
(I1
(I2
tp892
g41
I00
S'QG\xde./,\x07@u\xbc\xbb^W\x9d\xa6?'
p893
tp894
bssS'SAMPL5_068'
p895
(dp896
g3
(lp897
g5
(g9
S'\x80\x900\xb5\xf4\x8bQ@'
p898
tp899
Rp900
ag5
(g9
S'\xf8\xce\x1a\xcd<\xfd\xc9?'
p901
tp902
Rp903
asg18
S'c1ccc(cc1)c2c(nnc(n2)c3ccccn3)c4ccccc4'
p904
sg20
g176
sg22
I3
sg23
(lp905
g5
(g9
S'\xf7~G\xf7R\xd6F@'
p906
tp907
Rp908
ag5
(g9
S'\xf1\x9b)l\xc9e\xbe?'
p909
tp910
Rp911
asg31
g32
(g33
(I0
tp912
g35
tp913
Rp914
(I1
(I2
tp915
g41
I00
S'\xd0\x8a\xab\x98t-\x11@\xf1\x9a\x97\xaa$\x19\xa5?'
p916
tp917
bssS'SAMPL5_045'
p918
(dp919
g3
(lp920
g5
(g9
S'\xf0\xabB\xde\xcf\xc7G@'
p921
tp922
Rp923
ag5
(g9
S'\xa6\xfa\xf7\x8b"\x8d\xc2?'
p924
tp925
Rp926
asg18
S'CCC(=O)Nc1ccc2c(c1)ncs2'
p927
sg20
S'12474692'
p928
sg22
I3
sg23
(lp929
g5
(g9
S'\xa6\x08\x9b\xcddqM@'
p930
tp931
Rp932
ag5
(g9
S'"\x1f\xd24*\xc0\xbd?'
p933
tp934
Rp935
asg31
g32
(g33
(I0
tp936
g35
tp937
Rp938
(I1
(I2
tp939
g41
I00
S'E\x8c\xeb\xbe\x96\xbe\xff\xbfh\xa5\x92p\xd4\xa9\xa0?'
p940
tp941
bssS'SAMPL5_044'
p942
(dp943
g3
(lp944
g5
(g9
S'\xfdi\x89\xc4\x98\x19S@'
p945
tp946
Rp947
ag5
(g9
S'\x8e\xdbAW\x85Z\xc7?'
p948
tp949
Rp950
asg18
S'c1ccc2c(c1)cc(c(=O)o2)C(=O)Nc3ccc4c(c3)scn4'
p951
sg20
S'4987019'
p952
sg22
I3
sg23
(lp953
g5
(g9
S'w\xbe\xc2\x03\xcf\xeeN@'
p954
tp955
Rp956
ag5
(g9
S'\x94\xefI!\xb4\xb8\xbd?'
p957
tp958
Rp959
asg31
g32
(g33
(I0
tp960
g35
tp961
Rp962
(I1
(I2
tp963
g41
I00
S'%a\x07\xfa\xce^\x04@\xc0\xbc\xc6\x06\xe0e\xa3?'
p964
tp965
bssS'SAMPL5_048'
p966
(dp967
g3
(lp968
g5
(g9
S'\xdb|\x96w\xfe\x1fS@'
p969
tp970
Rp971
ag5
(g9
S'\xc6\xb0\xd1\xa5\xee\xd8\xc8?'
p972
tp973
Rp974
asg18
S'c1ccc2c(c1)nc(s2)c3cccc(c3)NC(=O)c4ccno4'
p975
sg20
S'5627798'
p976
sg22
I4
sg23
(lp977
g5
(g9
S'\xb0\xa3_N\xbb\x83Q@'
p978
tp979
Rp980
ag5
(g9
S'\xa8\x9d\xf3U\xddV\xc0?'
p981
tp982
Rp983
asg31
g32
(g33
(I0
tp984
g35
tp985
Rp986
(I1
(I2
tp987
g41
I00
S'\xb3.u\x0fk\x0e\xf2?-\xdd"\x10\xf7\xd6\xa4?'
p988
tp989
bssS'SAMPL5_046'
p990
(dp991
g3
(lp992
g5
(g9
S'6\x11\xf2[SeQ@'
p993
tp994
Rp995
ag5
(g9
S'\xaa\x19\xb6C{\xf2\xc7?'
p996
tp997
Rp998
asg18
S'CSc1ccc(cc1)CC(=O)Nc2c3ccsc3ncn2'
p999
sg20
S'12046880'
p1000
sg22
I5
sg23
(lp1001
g5
(g9
S'\x19a\xb7\x93\x9f*M@'
p1002
tp1003
Rp1004
ag5
(g9
S'\xffk\xfe\x08\x95\x80\xc0?'
p1005
tp1006
Rp1007
asg31
g32
(g33
(I0
tp1008
g35
tp1009
Rp1010
(I1
(I2
tp1011
g41
I00
S'\x8e>\x9c;\x07\x89\xff?L\xe5\xbd]Ra\xa4?'
p1012
tp1013
bssS'SAMPL5_006'
p1014
(dp1015
g3
(lp1016
g5
(g9
S'\xbeB\x9e\xb7\xa2\x99H@'
p1017
tp1018
Rp1019
ag5
(g9
S'j\x11\xbd|\xd9v\xc4?'
p1020
tp1021
Rp1022
asg18
S'C=C(Cn1c2ccccc2nc1CO)Br'
p1023
sg20
S'2118862'
p1024
sg22
I3
sg23
(lp1025
g5
(g9
S'\x93nKK\xd9\xc4D@'
p1026
tp1027
Rp1028
ag5
(g9
S'k\xd3#\xc5Oa\xbc?'
p1029
tp1030
Rp1031
asg31
g32
(g33
(I0
tp1032
g35
tp1033
Rp1034
(I1
(I2
tp1035
g41
I00
S'^D\xfb\xe2rz\xf5?\x12\xa2\x8aoxs\xa1?'
p1036
tp1037
bssS'SAMPL5_063'
p1038
(dp1039
g3
(lp1040
g5
(g9
S'M\xef\x9bhT\xa7J@'
p1041
tp1042
Rp1043
ag5
(g9
S'l\xc0l@\xa4\x14\xc5?'
p1044
tp1045
Rp1046
asg18
S'C1C[C@H](CNC1)N2CCC(CC2)C(=O)N'
p1047
sg20
S'38498425'
p1048
sg22
I2
sg23
(lp1049
g5
(g9
S'\x86\x96\x04\xb1\x81\xa0R@'
p1050
tp1051
Rp1052
ag5
(g9
S'\x98\xd1\xc5;kP\xbc?'
p1053
tp1054
Rp1055
asg31
g32
(g33
(I0
tp1056
g35
tp1057
Rp1058
(I1
(I2
tp1059
g41
I00
S'\xd69\xe2]\xac\xb6\r\xc0\xc8\x08\x8a\xa4x\xcb\xa1?'
p1060
tp1061
bssS'SAMPL5_047'
p1062
(dp1063
g3
(lp1064
g5
(g9
S'\xa6\xc1\xd1\x11c\xd6P@'
p1065
tp1066
Rp1067
ag5
(g9
S'YL^\x85Z\x8f\xc6?'
p1068
tp1069
Rp1070
asg18
S'c1cnoc1C(=O)Nc2c(c3c(s2)CCCC3)C#N'
p1071
sg20
S'5627778'
p1072
sg22
I3
sg23
(lp1073
g5
(g9
S'\xd1\xe5\xe0\x17\xbdqH@'
p1074
tp1075
Rp1076
ag5
(g9
S'\xa4mn\x85z:\xbb?'
p1077
tp1078
Rp1079
asg31
g32
(g33
(I0
tp1080
g35
tp1081
Rp1082
(I1
(I2
tp1083
g41
I00
S'4\xfe\x15>\xc7\xdf\t@\xc5\xf4\xddA\tw\xa2?'
p1084
tp1085
bssS'SAMPL5_055'
p1086
(dp1087
g3
(lp1088
g5
(g9
S'\xf6|]\x1a\xa0\x87E@'
p1089
tp1090
Rp1091
ag5
(g9
S':h*&\xeb\xe4\xbf?'
p1092
tp1093
Rp1094
asg18
S'c1ccc2c(c1)ncc(n2)C(=O)N'
p1095
sg20
S'3800934'
p1096
sg22
I1
sg23
(lp1097
g5
(g9
S'4\xf0\xeaH\xb2\x0cG@'
p1098
tp1099
Rp1100
ag5
(g9
S'\xfd\x13\xf6)\x92^\xb6?'
p1101
tp1102
Rp1103
asg31
g32
(g33
(I0
tp1104
g35
tp1105
Rp1106
(I1
(I2
tp1107
g41
I00
S'\xf1\xfc\xfe\xbcc\n\xe1\xbf\xf4\xeeG\xd6\xbcL\x9b?'
p1108
tp1109
bssS'SAMPL5_088'
p1110
(dp1111
g3
(lp1112
g5
(g9
S'|\x88\x9fojXM@'
p1113
tp1114
Rp1115
ag5
(g9
S'\xaf\\\x8b\xbf\xd1\xe6\xc9?'
p1116
tp1117
Rp1118
asg18
S'CCN(Cc1ccncc1)C(=O)[C@H](CO)c2ccccc2'
p1119
sg20
g176
sg22
I7
sg23
(lp1120
g5
(g9
S'\x9cN\xb6\xb6\xbfvM@'
p1121
tp1122
Rp1123
ag5
(g9
S'/\x169t\x84\x88\xc0?'
p1124
tp1125
Rp1126
asg31
g32
(g33
(I0
tp1127
g35
tp1128
Rp1129
(I1
(I2
tp1130
g41
I00
S'\xf2\xa8\xe8\xb4\xacA\xa5\xbf\xe5!H^\x9d\x88\xa5?'
p1131
tp1132
bssS'SAMPL5_092'
p1133
(dp1134
g3
(lp1135
g5
(g9
S'I\x8d\xae\x83\xa4T[@'
p1136
tp1137
Rp1138
ag5
(g9
S'\xe1\xd4\xb9.\xaa\xb1\xd3?'
p1139
tp1140
Rp1141
asg18
S'CC(=O)N1CCN(CC1)c2ccc(cc2)OC[C@H]3CO[C@](O3)(Cn4ccnc4)c5ccc(cc5Cl)Cl'
p1142
sg20
g176
sg22
I8
sg23
(lp1143
g5
(g9
S"\x81{\x06\xaf\x91'Y@"
p1144
tp1145
Rp1146
ag5
(g9
S'9\x05\x8c\x8a\x9ev\xd5?'
p1147
tp1148
Rp1149
asg31
g32
(g33
(I0
tp1150
g35
tp1151
Rp1152
(I1
(I2
tp1153
g41
I00
S'\xcf\xe04\x8f\x16f\xf8?\xabE~%\xc1i\xb4?'
p1154
tp1155
bssS'SAMPL5_090'
p1156
(dp1157
g3
(lp1158
g5
(g9
S'\x8b\xc2#\x9d\xb8\xb7Q@'
p1159
tp1160
Rp1161
ag5
(g9
S"H+f3\x12'\xca?"
p1162
tp1163
Rp1164
asg18
S'Cc1cc2c(cc1C)nc(c(n2)c3ccccn3)c4ccccn4'
p1165
sg20
g176
sg22
I2
sg23
(lp1166
g5
(g9
S'{\xd8\xa5o\x1e\x1bG@'
p1167
tp1168
Rp1169
ag5
(g9
S'\xe4l|\x9fB\xf0\xc4?'
p1170
tp1171
Rp1172
asg31
g32
(g33
(I0
tp1173
g35
tp1174
Rp1175
(I1
(I2
tp1176
g41
I00
S"\xe9\x15\xd6\xdc\xb6G\x11@\xbb^\x07\xd5'z\xa7?"
p1177
tp1178
bssS'SAMPL5_005'
p1179
(dp1180
g3
(lp1181
g5
(g9
S'\xb5^-\x01\xa8>Q@'
p1182
tp1183
Rp1184
ag5
(g9
S'\n(\x15\xfd\xe3j\xc6?'
p1185
tp1186
Rp1187
asg18
S'Cn1ccnc1SCC(=O)Nc2ccc3c(c2)OCO3'
p1188
sg20
S'1363085'
p1189
sg22
I5
sg23
(lp1190
g5
(g9
S'\xd9z\x19u\x0f\x85O@'
p1191
tp1192
Rp1193
ag5
(g9
S'\xeby>\xdf\xf8\xb9\xc6?'
p1194
tp1195
Rp1196
asg31
g32
(g33
(I0
tp1197
g35
tp1198
Rp1199
(I1
(I2
tp1200
g41
I00
S'l\x0bC\x93\x18\xa6\xf0?\x84\x99\x9d_\xc8^\xa6?'
p1201
tp1202
bssS'SAMPL5_042'
p1203
(dp1204
g3
(lp1205
g5
(g9
S'\xf3\x1f(\xf1q:P@'
p1206
tp1207
Rp1208
ag5
(g9
S'}9\x97\xd1.\xd0\xc7?'
p1209
tp1210
Rp1211
asg18
S'c1ccc(cc1)c2ccccc2NC(=O)c3ccc(=O)[nH]n3'
p1212
sg20
S'1552842'
p1213
sg22
I4
sg23
(lp1214
g5
(g9
S'\x81\xdd\x87\xef\xf2*R@'
p1215
tp1216
Rp1217
ag5
(g9
S'N\xd0m\x1bE)\xc8?'
p1218
tp1219
Rp1220
asg31
g32
(g33
(I0
tp1221
g35
tp1222
Rp1223
(I1
(I2
tp1224
g41
I00
S'`k\xfe\x1e\xf6\xbe\xf5\xbf|\xb5\xb1l\xdb\xc5\xa7?'
p1225
tp1226
bssS'SAMPL5_033'
p1227
(dp1228
g3
(lp1229
g5
(g9
S'\x00u\x01\x14\x9f\xecQ@'
p1230
tp1231
Rp1232
ag5
(g9
S'\xb9;\xa0*0\xd8\xca?'
p1233
tp1234
Rp1235
asg18
S'Cc1ccc(cc1NC(=O)N2CCCCC[C@@H]2c3cccs3)Cl'
p1236
sg20
S'16363773'
p1237
sg22
I4
sg23
(lp1238
g5
(g9
S'\xc0<S\x92K\xf1H@'
p1239
tp1240
Rp1241
ag5
(g9
S'_\xe2\xbd\xcaV\xc1\xc1?'
p1242
tp1243
Rp1244
asg31
g32
(g33
(I0
tp1245
g35
tp1246
Rp1247
(I1
(I2
tp1248
g41
I00
S'q\xb8\xb2\xcb\r\x92\x0e@\r\x95\x0c\xfb\xe5\x8d\xa6?'
p1249
tp1250
bssS'SAMPL5_037'
p1251
(dp1252
g3
(lp1253
g5
(g9
S'B5\xe2\x06\x1f\x12G@'
p1254
tp1255
Rp1256
ag5
(g9
S'\x11\xab\xb9\xdbx\t\xc2?'
p1257
tp1258
Rp1259
asg18
S'CN(C)S(=O)(=O)N1CCNCC1'
p1260
sg20
S'833953'
p1261
sg22
I2
sg23
(lp1262
g5
(g9
S'\xa5*>V(5R@'
p1263
tp1264
Rp1265
ag5
(g9
S'M\xae\xa1\xe8\xaa\x13\xbb?'
p1266
tp1267
Rp1268
asg31
g32
(g33
(I0
tp1269
g35
tp1270
Rp1271
(I1
(I2
tp1272
g41
I00
S'<\xd5\xac\xed\xee\xb3\x12\xc0\xa8(\xc1)\xc3\x9b\x9f?'
p1273
tp1274
bss.