(dp0
I1
S'56af9c3040b02'
p1
sI2
S'56afa8a302587'
p2
sI3
S'56afcf89a44a5'
p3
sI4
S'56afdf9e560c8'
p4
sI5
S'56afa2f1a950c'
p5
sI6
S'56afd091437bb'
p6
sI7
S'56afa3242275f'
p7
sI8
S'56afe1fc24c1b'
p8
sI9
S'56afa2d5a16f4'
p9
sI10
S'56afe064c4137'
p10
sI11
S'56afd03d7fc70'
p11
sI12
S'56afd04fc2eb6'
p12
sI13
S'56afcf70a9095'
p13
sI14
S'56afe204b67fa'
p14
sI15
S'56afe16e17452'
p15
sI16
S'56ab0294f1b3d'
p16
sI17
S'56afa30674557'
p17
sI18
S'56afe1d2dbbbc'
p18
sI19
S'56afd0b42d6f6'
p19
sI20
S'56afe18db6da5'
p20
sI21
S'56b0e2e7aa8fd'
p21
sI22
S'56afd071da559'
p22
sI23
S'56b10fd282e15'
p23
sI24
S'56afdf7ae267f'
p24
sI25
S'56afe1a4aa4dd'
p25
sI26
S'56af9876b836a'
p26
sI27
S'56afe1f04388d'
p27
sI28
S'56afe069bc410'
p28
sI29
S'56afa305c91c4'
p29
sI30
S'56afd072a89e4'
p30
sI31
S'56afe197d798b'
p31
sI32
S'56afde3f27e14'
p32
sI33
S'56afe0d661bea'
p33
sI34
S'56afe1db0232e'
p34
sI35
S'56afa2d659fbe'
p35
sI36
S'56afd45354dd8'
p36
sI37
S'56afcf6fa2152'
p37
sI38
S'56b0e2b031207'
p38
sI39
S'56b0df2618c01'
p39
sI40
S'56b11f6bc0328'
p40
sI41
S'56afe17681464'
p41
sI42
S'56afd43983ee9'
p42
sI43
S'56b0e2d5d682e'
p43
sI44
S'56b0e2f59ba22'
p44
sI45
S'56afd08fe99b1'
p45
sI46
S'56afa323314ae'
p46
sI47
S'56afe1c89d243'
p47
sI48
S'56af0ae2c97b7'
p48
sI49
S'56b10fc6c2dda'
p49
sI50
S'56afcf7c921df'
p50
sI51
S'56afe0656b2e1'
p51
sI52
S'56afdf58dec77'
p52
sI53
S'56afbed29602e'
p53
sI54
S'56afe0c70d055'
p54
sI55
S'56afcf8ab6192'
p55
sI56
S'56afe2177632f'
p56
sI57
S'56afd050bc618'
p57
sI58
S'56afd0a344d8f'
p58
sI59
S'56afdf8b60560'
p59
sI60
S'56afc14acecf9'
p60
sI61
S'56afa89726aba'
p61
sI62
S'56b0f52800806'
p62
sI63
S'56afcf9630de0'
p63
sI64
S'56afe0e1f267e'
p64
sI65
S'56afd0a22a98b'
p65
sI66
S'56afe1b115410'
p66
sI67
S'56afcf636bc73'
p67
sI68
S'56afde2b026b4'
p68
sI69
S'56afcf6482b3e'
p69
sI70
S'56afcf7b94dfb'
p70
sI71
S'56afa2f10776e'
p71
sI72
S'56afe1bb74648'
p72
sI73
S'56a8be3aceb59'
p73
sI74
S'56afe157939b6'
p74
sI75
S'56b0f52723c20'
p75
sI76
S'56afe18040586'
p76
s.