(dp0
S'56afe1a4aa4dd'
p1
I25
sS'56afe0656b2e1'
p2
I51
sS'56afe1b115410'
p3
I66
sS'56afa8a302587'
p4
I2
sS'56af9876b836a'
p5
I26
sS'56afa30674557'
p6
I17
sS'56afe157939b6'
p7
I74
sS'56afdf9e560c8'
p8
I4
sS'56afdf58dec77'
p9
I52
sS'56afe069bc410'
p10
I28
sS'56afe1d2dbbbc'
p11
I18
sS'56b0e2f59ba22'
p12
I44
sS'56afcf6482b3e'
p13
I69
sS'56afa2f1a950c'
p14
I5
sS'56afe0e1f267e'
p15
I64
sS'56b0e2d5d682e'
p16
I43
sS'56afcf89a44a5'
p17
I3
sS'56ab0294f1b3d'
p18
I16
sS'56afe17681464'
p19
I41
sS'56afd071da559'
p20
I22
sS'56b0e2e7aa8fd'
p21
I21
sS'56afe18040586'
p22
I76
sS'56afe197d798b'
p23
I31
sS'56afa2d5a16f4'
p24
I9
sS'56b0f52723c20'
p25
I75
sS'56afe1f04388d'
p26
I27
sS'56afcf6fa2152'
p27
I37
sS'56afde2b026b4'
p28
I68
sS'56afcf7c921df'
p29
I50
sS'56afe1db0232e'
p30
I34
sS'56afd072a89e4'
p31
I30
sS'56afe16e17452'
p32
I15
sS'56afe2177632f'
p33
I56
sS'56afd43983ee9'
p34
I42
sS'56afcf636bc73'
p35
I67
sS'56afd091437bb'
p36
I6
sS'56afa2d659fbe'
p37
I35
sS'56afd03d7fc70'
p38
I11
sS'56afa89726aba'
p39
I61
sS'56afa3242275f'
p40
I7
sS'56af0ae2c97b7'
p41
I48
sS'56afd0a344d8f'
p42
I58
sS'56afde3f27e14'
p43
I32
sS'56afc14acecf9'
p44
I60
sS'56afd08fe99b1'
p45
I45
sS'56afd45354dd8'
p46
I36
sS'56af9c3040b02'
p47
I1
sS'56afcf70a9095'
p48
I13
sS'56afe1fc24c1b'
p49
I8
sS'56b0e2b031207'
p50
I38
sS'56afcf7b94dfb'
p51
I70
sS'56afcf9630de0'
p52
I63
sS'56afe0d661bea'
p53
I33
sS'56afbed29602e'
p54
I53
sS'56afe204b67fa'
p55
I14
sS'56afa323314ae'
p56
I46
sS'56afe064c4137'
p57
I10
sS'56b11f6bc0328'
p58
I40
sS'56a8be3aceb59'
p59
I73
sS'56afdf8b60560'
p60
I59
sS'56b0df2618c01'
p61
I39
sS'56b10fd282e15'
p62
I23
sS'56afdf7ae267f'
p63
I24
sS'56b10fc6c2dda'
p64
I49
sS'56afa305c91c4'
p65
I29
sS'56afd04fc2eb6'
p66
I12
sS'56afe1bb74648'
p67
I72
sS'56afa2f10776e'
p68
I71
sS'56afd0a22a98b'
p69
I65
sS'56b0f52800806'
p70
I62
sS'56afe0c70d055'
p71
I54
sS'56afd0b42d6f6'
p72
I19
sS'56afe1c89d243'
p73
I47
sS'56afe18db6da5'
p74
I20
sS'56afd050bc618'
p75
I57
sS'56afcf8ab6192'
p76
I55
s.