(dp0
S'SAMPL5_017'
p1
(dp2
S'cyclohexane'
p3
(lp4
cnumpy.core.multiarray
scalar
p5
(cnumpy
dtype
p6
(S'f8'
p7
I0
I1
tp8
Rp9
(I3
S'<'
p10
NNNI-1
I-1
I0
tp11
bS'\xeaz\xaa44\x04R@'
p12
tp13
Rp14
ag5
(g9
S'\xec\xc6Vu\xc8\x08\xc8?'
p15
tp16
Rp17
asS'Smiles'
p18
S'c1ccc2c(c1)c(nc(n2)c3ccccc3O)NC4CCCC4'
p19
sS'pKa_acidic'
p20
F8.93
sS'Conj_Acid'
p21
(lp22
F8.93
aF14.36
asS'EmolID'
p23
S'2425478'
p24
sS'pKa_basic'
p25
F5.76
sS'Conj_Base'
p26
(lp27
F0.78
aF3.94
aF5.76
asS'water'
p28
(lp29
g5
(g9
S'~\x0e<\xc6!2B@'
p30
tp31
Rp32
ag5
(g9
S'Rs}1#\xd2\xbe?'
p33
tp34
Rp35
asS'LogD_calc'
p36
cnumpy.core.multiarray
_reconstruct
p37
(cnumpy
ndarray
p38
(I0
tp39
S'b'
p40
tp41
Rp42
(I1
(I2
tp43
g6
(S'f8'
p44
I0
I1
tp45
Rp46
(I3
S'<'
p47
NNNI-1
I-1
I0
tp48
bI00
S'\xf0;F\xcc\xd1\xff\x18@\x82\x10\xb9_\xdf\x01\xa4?'
p49
tp50
bssS'SAMPL5_058'
p51
(dp52
g3
(lp53
g5
(g9
S'\xfb\xf4\xd7\xa7\xfd\xb6I@'
p54
tp55
Rp56
ag5
(g9
S'\x1f\xdf\x17\xf3(N\xc4?'
p57
tp58
Rp59
asg18
S'c1ccc(cc1)n2c(=O)c3ccccc3cn2'
p60
sg20
Nsg21
(lp61
sg23
S'3730323'
p62
sg25
F-1.41
sg26
(lp63
F-1.41
asg28
(lp64
g5
(g9
S'\x9c\xbd\x19\x84\x04\x05G@'
p65
tp66
Rp67
ag5
(g9
S'G\xefP\x9e\x80t\xba?'
p68
tp69
Rp70
asg36
g37
(g38
(I0
tp71
g40
tp72
Rp73
(I1
(I2
tp74
g46
I00
S'\xd0\x00\xbe\xa438\xee?\xdfk\xd5Dv\xfb\xa0?'
p75
tp76
bssS'SAMPL5_059'
p77
(dp78
g3
(lp79
g5
(g9
S'6\x02\xa7\xa2\x1e\tE@'
p80
tp81
Rp82
ag5
(g9
S'w\xd4D~\x10\x03\xc0?'
p83
tp84
Rp85
asg18
S'c1ccc(cc1)c2nc(sn2)N'
p86
sg20
F13.54
sg21
(lp87
F13.54
aF13.54
asg23
S'711981'
p88
sg25
F3.11
sg26
(lp89
F-0.4
aF3.11
aF-0.16
asg28
(lp90
g5
(g9
S'\xb2\x05\x15\xe1\xae\xebF@'
p91
tp92
Rp93
ag5
(g9
S'\xb3\xf7\x92%\xd6\xdc\xb6?'
p94
tp95
Rp96
asg36
g37
(g38
(I0
tp97
g40
tp98
Rp99
(I1
(I2
tp100
g46
I00
S'\xb5$5&\xa8"\xe5\xbf\x14;\xb8\xb1\xd8\x92\x9b?'
p101
tp102
bssS'SAMPL5_013'
p103
(dp104
g3
(lp105
g5
(g9
S'\x13\xa8NJu\xe1T@'
p106
tp107
Rp108
ag5
(g9
S'v\xd9\x00\x03d\x0e\xca?'
p109
tp110
Rp111
asg18
S'Cc1ccc(cc1)c2nc(c3c(n2)n(c(=O)[nH]3)c4ccccc4)C(=O)N'
p112
sg20
F7.37
sg21
(lp113
F10.75
aF10.75
aF7.37
asg23
S'16095985'
p114
sg25
F0.52
sg26
(lp115
F0.52
aF0.12
aF-2.93
asg28
(lp116
g5
(g9
S'nD\x9b\xf1\xa4NS@'
p117
tp118
Rp119
ag5
(g9
S'\xdd(w\xa1\xbf\x1a\xc0?'
p120
tp121
Rp122
asg36
g37
(g38
(I0
tp123
g40
tp124
Rp125
(I1
(I2
tp126
g46
I00
S'a\xac\x7f\x88z\xa4\xf1?sUi*.w\xa5?'
p127
tp128
bssS'SAMPL5_010'
p129
(dp130
g3
(lp131
g5
(g9
S'\xa1\xbf\x08\xe2P\x81K@'
p132
tp133
Rp134
ag5
(g9
S'\x80\xed\x92\xcd%d\xc3?'
p135
tp136
Rp137
asg18
S'c1cc(cc(c1)NCc2ccncc2)C(=O)O'
p138
sg20
F4.33
sg21
(lp139
F4.33
aF14.68
asg23
S'1491855'
p140
sg25
F6.62
sg26
(lp141
F2.63
aF6.62
asg28
(lp142
g5
(g9
S'<\xf1\xc0+YxO@'
p143
tp144
Rp145
ag5
(g9
S'\x86\x82\xd7L|\x95\xbb?'
p146
tp147
Rp148
asg36
g37
(g38
(I0
tp149
g40
tp150
Rp151
(I1
(I2
tp152
g46
I00
S'\x86\x88\xadWo:\xf6\xbf\xc0%\xb6\x12\xe3\xac\xa0?'
p153
tp154
bssS'SAMPL5_011'
p155
(dp156
g3
(lp157
g5
(g9
S'\xb2\xb4\xd9\x81\xc3`M@'
p158
tp159
Rp160
ag5
(g9
S')\xeb\xa2\xfc\xf7\xde\xc4?'
p161
tp162
Rp163
asg18
S'Cc1cc(nc(n1)Nc2ccccc2C(=O)O)C'
p164
sg20
F4.57
sg21
(lp165
F4.57
aF12.85
asg23
S'542592'
p166
sg25
F4.58
sg26
(lp167
F4.58
aF4.58
asg28
(lp168
g5
(g9
S'(tg\xfccyH@'
p169
tp170
Rp171
ag5
(g9
S'Bx\x11\xa2\xba\xf0\xba?'
p172
tp173
Rp174
asg36
g37
(g38
(I0
tp175
g40
tp176
Rp177
(I1
(I2
tp178
g46
I00
S'M\xae\\\xeb\xd2}\xfb?\xa2\x85a\xc9Ih\xa1?'
p179
tp180
bssS'SAMPL5_074'
p181
(dp182
g3
(lp183
g5
(g9
S'\t\x18l\x00\xb2\x8aQ@'
p184
tp185
Rp186
ag5
(g9
S'\xe6\xbb\xab\xf8X(\xc4?'
p187
tp188
Rp189
asg18
S'c1nc(c2c(n1)n(cn2)[C@H]3[C@@H]([C@@H]([C@H](O3)CO)O)O)N'
p190
sg20
F12.0
sg21
(lp191
F14.06
aF12.6
aF12.0
aF13.04
aF13.04
asg23
S''
p192
sg25
F3.97
sg26
(lp193
F2.92
aF3.97
aF-0.4
aF-0.69
aF-1.84
aF-2.3
asg28
(lp194
g5
(g9
S'\x141Bl\x17\xe8V@'
p195
tp196
Rp197
ag5
(g9
S'\xb0\x0c\xc5\xfei\x92\xc5?'
p198
tp199
Rp200
asg36
g37
(g38
(I0
tp201
g40
tp202
Rp203
(I1
(I2
tp204
g46
I00
S'\x9c+T\xe8z\x13\x0e\xc0N\xcb\xba\xda\x8d\xb0\xa4?'
p205
tp206
bssS'SAMPL5_075'
p207
(dp208
g3
(lp209
g5
(g9
S'=/\xd8\xeb\xc5\xfaL@'
p210
tp211
Rp212
ag5
(g9
S'\xd7\xaf\x8f\x01C\x0e\xc9?'
p213
tp214
Rp215
asg18
S'CC(C)NC[C@@H](COc1ccc(cc1)CCOC)O'
p216
sg20
F13.32
sg21
(lp217
F13.32
asg23
g192
sg25
F9.25
sg26
(lp218
F9.25
aF-1.29
asg28
(lp219
g5
(g9
S'\x92w\x99,\xd8\x8aE@'
p220
tp221
Rp222
ag5
(g9
S'\xc5j5\xedx~\xc4?'
p223
tp224
Rp225
asg36
g37
(g38
(I0
tp226
g40
tp227
Rp228
(I1
(I2
tp229
g46
I00
S'\x05\xe5\xa7\x8c\xdd\xd8\x04@\xd3D\xcf\xb5\x05\xaf\xa6?'
p230
tp231
bssS'SAMPL5_050'
p232
(dp233
g3
(lp234
g5
(g9
S'6D\xa0\xa4\x90bK@'
p235
tp236
Rp237
ag5
(g9
S'\x8a\xe0\xa3\x82%\xea\xc2?'
p238
tp239
Rp240
asg18
S'Cc1ccc2c(n1)nn3c2nc(cc3O)C'
p241
sg20
F-3.58
sg21
(lp242
F-3.58
asg23
S'5663556'
p243
sg25
F2.83
sg26
(lp244
F0.35
aF2.83
asg28
(lp245
g5
(g9
S'r\xe4r\xfe\x17\xf6G@'
p246
tp247
Rp248
ag5
(g9
S'\x0e\x16\xfd\x0b)6\xc5?'
p249
tp250
Rp251
asg36
g37
(g38
(I0
tp252
g40
tp253
Rp254
(I1
(I2
tp255
g46
I00
S'\x10\x1d\xa5\x9f\xa31\xf3?\xac\x927\x83u\xea\xa3?'
p256
tp257
bssS'SAMPL5_056'
p258
(dp259
g3
(lp260
g5
(g9
S'\xad\x11%\x9e\xbe\xefK@'
p261
tp262
Rp263
ag5
(g9
S'7P\xb5l"\xd8\xc4?'
p264
tp265
Rp266
asg18
S'CC(C)[C@@H]1Cc2c(cc(c(n2)O)C#N)CO1'
p267
sg20
F3.26
sg21
(lp268
F3.26
asg23
g192
sg25
F0.28
sg26
(lp269
F0.28
asg28
(lp270
g5
(g9
S'C\xe74\x01\xc7@D@'
p271
tp272
Rp273
ag5
(g9
S'Sh\x10\x0e4\x9c\xb9?'
p274
tp275
Rp276
asg36
g37
(g38
(I0
tp277
g40
tp278
Rp279
(I1
(I2
tp280
g46
I00
S'\xa6\xb7{I\x91\x89\x05@\x15\xbf)^\xa6$\xa1?'
p281
tp282
bssS'SAMPL5_071'
p283
(dp284
g3
(lp285
g5
(g9
S'\x87?,\xcb\xdd\x96M@'
p286
tp287
Rp288
ag5
(g9
S'\x0b?\x82\x89=\x98\xc7?'
p289
tp290
Rp291
asg18
S'CCOc1cc(c(cc1N2CCOCC2)OCC)N'
p292
sg20
F15.55
sg21
(lp293
F15.55
aF15.55
asg23
g192
sg25
F4.02
sg26
(lp294
F4.02
aF3.98
asg28
(lp295
g5
(g9
S'\xed\xed_\xd5\xb5XK@'
p296
tp297
Rp298
ag5
(g9
S'\xfbf\xb9X]6\xbf?'
p299
tp300
Rp301
asg36
g37
(g38
(I0
tp302
g40
tp303
Rp304
(I1
(I2
tp305
g46
I00
S'\x00z\xc5~\x9f%\xe9?\xbf\xbd\xc6\x03\xf3\xd2\xa3?'
p306
tp307
bssS'SAMPL5_072'
p308
(dp309
g3
(lp310
g5
(g9
S'\x1c\xb4\xd4(\xfbJJ@'
p311
tp312
Rp313
ag5
(g9
S'H]H\x9e\xbe\x97\xc8?'
p314
tp315
Rp316
asg18
S'CN(C)CCOC(c1ccccc1)c2ccccc2'
p317
sg20
Nsg21
(lp318
sg23
g192
sg25
F8.53
sg26
(lp319
F8.53
asg28
(lp320
g5
(g9
S'\xb9\x9e\xb1\x87:0@@'
p321
tp322
Rp323
ag5
(g9
S'\x01}o\x8bh\xbe\xc1?'
p324
tp325
Rp326
asg36
g37
(g38
(I0
tp327
g40
tp328
Rp329
(I1
(I2
tp330
g46
I00
S'7Z\x19\x1a\xe0R\x0c@:\x96:\x03V@\xa5?'
p331
tp332
bssS'SAMPL5_019'
p333
(dp334
g3
(lp335
g5
(g9
S'\xa3}2\x82V\xcfQ@'
p336
tp337
Rp338
ag5
(g9
S'\xb9&\xc5M\xab\x07\xc8?'
p339
tp340
Rp341
asg18
S'Cc1ccc(cc1)Nc2ccnc(n2)Nc3ccc(cc3)C'
p342
sg20
F13.18
sg21
(lp343
F13.24
aF13.18
asg23
S'43423819'
p344
sg25
F5.44
sg26
(lp345
F-2.3
aF-1.51
aF5.44
aF3.76
asg28
(lp346
g5
(g9
S'p#y\x1f\xcdcK@'
p347
tp348
Rp349
ag5
(g9
S']\x86A1#\x98\xbe?'
p350
tp351
Rp352
asg36
g37
(g38
(I0
tp353
g40
tp354
Rp355
(I1
(I2
tp356
g46
I00
S'\x9c.\xec4\xbd\x11\x07@\xd7"\x90\x03F\xf6\xa3?'
p357
tp358
bssS'SAMPL5_061'
p359
(dp360
g3
(lp361
g5
(g9
S'V\xb33\x96xgG@'
p362
tp363
Rp364
ag5
(g9
S'$\xd8\xce\xf0!\xe4\xc3?'
p365
tp366
Rp367
asg18
S'Cc1nccc(n1)[C@@]2(CNCCO2)C'
p368
sg20
Nsg21
(lp369
sg23
S'43241882'
p370
sg25
F7.72
sg26
(lp371
F7.72
aF2.55
aF2.72
asg28
(lp372
g5
(g9
S'[\xd7\xb4\xfd\x1a\xffA@'
p373
tp374
Rp375
ag5
(g9
S"'\xce\x05\x11\xbc\xdc\xc1?"
p376
tp377
Rp378
asg36
g37
(g38
(I0
tp379
g40
tp380
Rp381
(I1
(I2
tp382
g46
I00
S"\xf0\xadT\xfc\xf9P\xfe?'|\\\xfd\t\xbc\xa2?"
p383
tp384
bssS'SAMPL5_015'
p385
(dp386
g3
(lp387
g5
(g9
S'9\xa7\x84\xb1\x98\xa8K@'
p388
tp389
Rp390
ag5
(g9
S'L5z;\x90\xd1\xc2?'
p391
tp392
Rp393
asg18
S'Cc1ccc2c(c1)c(ncn2)NCC(=O)O'
p394
sg20
F4.44
sg21
(lp395
F4.44
aF12.6
asg23
S'1355949'
p396
sg25
F5.81
sg26
(lp397
F-1.33
aF3.87
aF5.81
asg28
(lp398
g5
(g9
S'w\xcd\x90\xee\xf1\rN@'
p399
tp400
Rp401
ag5
(g9
S'v\xb9\x16l^\xa1\xba?'
p402
tp403
Rp404
asg36
g37
(g38
(I0
tp405
g40
tp406
Rp407
(I1
(I2
tp408
g46
I00
S"\xcb\xa5\xbf\xd7\x0f\xdd\xea\xbf\xf8+\xcd\x87\x9d'\xa0?"
p409
tp410
bssS'SAMPL5_003'
p411
(dp412
g3
(lp413
g5
(g9
S'\xabR^G\xd1\x04J@'
p414
tp415
Rp416
ag5
(g9
S'\x9b<&\xbc\xd0\x11\xc4?'
p417
tp418
Rp419
asg18
S'c1ccc2c(c1)c(=O)oc(n2)c3ccccc3F'
p420
sg20
Nsg21
(lp421
sg23
S'1231787'
p422
sg25
F2.96
sg26
(lp423
F2.96
aF-1.86
asg28
(lp424
g5
(g9
S'\xf4\xda}\xe1JaD@'
p425
tp426
Rp427
ag5
(g9
S'\xe3\xb7\xce\xf3#i\xb9?'
p428
tp429
Rp430
asg36
g37
(g38
(I0
tp431
g40
tp432
Rp433
(I1
(I2
tp434
g46
I00
S'\xfc\x05\x8f/\xa2\x9c\xff?\xb7\x96\x8d\x9dA\xa5\xa0?'
p435
tp436
bssS'SAMPL5_085'
p437
(dp438
g3
(lp439
g5
(g9
S'\xb3,\xa9={\xc1L@'
p440
tp441
Rp442
ag5
(g9
S'F\xa7\xda\xda\x01I\xc5?'
p443
tp444
Rp445
asg18
S'c1ccc(cc1)C2(C(=O)NC(=O)N2)c3ccccc3'
p446
sg20
F7.8
sg21
(lp447
F7.8
aF9.9
asg23
g192
sg25
F2.33
sg26
(lp448
F2.33
asg28
(lp449
g5
(g9
S'\xcf\xa3\x93\xddcGQ@'
p450
tp451
Rp452
ag5
(g9
S'\xe0\x1bF\x95Sh\xbc?'
p453
tp454
Rp455
asg36
g37
(g38
(I0
tp456
g40
tp457
Rp458
(I1
(I2
tp459
g46
I00
S'\xa9\x05\x93~iC\x00\xc0\xc6\xe6\xb7\x1a\xa0\xee\xa1?'
p460
tp461
bssS'SAMPL5_084'
p462
(dp463
g3
(lp464
g5
(g9
S'\xaf=i\x8c{YR@'
p465
tp466
Rp467
ag5
(g9
S'\x80R\x16\xd5x\xdb\xce?'
p468
tp469
Rp470
asg18
S'c1cc(ccc1C(=O)CCCN2CCC(CC2)(c3ccc(cc3)Cl)O)F'
p471
sg20
F15.03
sg21
(lp472
F15.03
asg23
g192
sg25
F8.72
sg26
(lp473
F8.72
aF-0.08
asg28
(lp474
g5
(g9
S'\xd2$r\xb4LwK@'
p475
tp476
Rp477
ag5
(g9
S'|RH|x]\xd8?'
p478
tp479
Rp480
asg36
g37
(g38
(I0
tp481
g40
tp482
Rp483
(I1
(I2
tp484
g46
I00
S'\x99\x0f@\x82\x8b\xe1\t@"\x92\xa6\x07\xae5\xb4?'
p485
tp486
bssS'SAMPL5_086'
p487
(dp488
g3
(lp489
g5
(g9
S'\x8c\xd6\xe5\xa6\x04\x01S@'
p490
tp491
Rp492
ag5
(g9
S'\xc6t\xbe\xb5\xdc\xf5\xcd?'
p493
tp494
Rp495
asg18
S'CCCCOc1cc(c2ccccc2n1)C(=O)NCCN(CC)CC'
p496
sg20
F11.73
sg21
(lp497
F11.73
asg23
g192
sg25
F8.87
sg26
(lp498
F8.87
aF1.48
aF-1.45
asg28
(lp499
g5
(g9
S'1\xda\x91\xf5\xe2TM@'
p500
tp501
Rp502
ag5
(g9
S'\x1e\xef\xbb2\x16\x7f\xcb?'
p503
tp504
Rp505
asg36
g37
(g38
(I0
tp506
g40
tp507
Rp508
(I1
(I2
tp509
g46
I00
S'\x8b\xc6U\xc9\x0fR\x08@\x15\xc6sZD\x7f\xac?'
p510
tp511
bssS'SAMPL5_081'
p512
(dp513
g3
(lp514
g5
(g9
S'cb\xd4\x18-RM@'
p515
tp516
Rp517
ag5
(g9
S'\xfe#\xae\xc1Y\xb3\xc7?'
p518
tp519
Rp520
asg18
S'CC(C)NC[C@H](COc1ccc(cc1)CC(=O)N)O'
p521
sg20
F12.67
sg21
(lp522
F13.32
aF12.67
aF12.67
asg23
g192
sg25
F9.25
sg26
(lp523
F9.25
aF-1.29
aF-1.04
asg28
(lp524
g5
(g9
S'\xb2O\x98\x8e\xe1\xb0Q@'
p525
tp526
Rp527
ag5
(g9
S'\x18#\x01o\xaf\xc1\xca?'
p528
tp529
Rp530
asg36
g37
(g38
(I0
tp531
g40
tp532
Rp533
(I1
(I2
tp534
g46
I00
S'\x98*\xbfq8\xfd\x00\xc0A\xba\x87\x9a^\x0c\xa9?'
p535
tp536
bssS'SAMPL5_080'
p537
(dp538
g3
(lp539
g5
(g9
S'T\xc3\x0e\x88\xae J@'
p540
tp541
Rp542
ag5
(g9
S'\x10q\x17\xbe\xd3\xfd\xc0?'
p543
tp544
Rp545
asg18
S'Cn1cnc2c1c(=O)n(c(=O)n2C)C'
p546
sg20
Nsg21
(lp547
sg23
g192
sg25
F1.37
sg26
(lp548
F-0.58
aF1.37
aF-1.89
aF-2.49
asg28
(lp549
g5
(g9
S'\xaae\xf9\xba\xb1lR@'
p550
tp551
Rp552
ag5
(g9
S'\x84v\tf\x11R\xba?'
p553
tp554
Rp555
asg36
g37
(g38
(I0
tp556
g40
tp557
Rp558
(I1
(I2
tp559
g46
I00
S'^AJN\xa2\r\x0e\xc0\xc1\x9d@\x1d2\x1f\x9e?'
p560
tp561
bssS'SAMPL5_083'
p562
(dp563
g3
(lp564
g5
(g9
S'\xdfZ\xa7B\xc4\xa2b@'
p565
tp566
Rp567
ag5
(g9
S't\xa1\xc7\xe2\xc2L\xdc?'
p568
tp569
Rp570
asg18
S'C[C@H]1/C=C/C=C(\\C(=O)NC\\2=C(C3=C(C(=C4C(=C3C(=O)/C2=C/NN5CCN(CC5)C)C(=O)[C@](O4)(O/C=C/[C@@H]([C@H]([C@H]([C@@H]([C@@H]([C@@H]([C@H]1O)C)O)C)OC(=O)C)C)OC)C)C)O)O)/C'
p571
sg20
F7.41
sg21
(lp572
F14.92
aF15.38
aF8.92
aF7.41
aF8.11
asg23
g192
sg25
F6.92
sg26
(lp573
F-2.66
aF0.65
aF6.92
aF-0.08
aF0.28
aF-1.3
aF-0.76
asg28
(lp574
g5
(g9
S'\x1ae5\xca&\xc6a@'
p575
tp576
Rp577
ag5
(g9
S'7\xa2\xb0\xe4\xda\xbd\xd1?'
p578
tp579
Rp580
asg36
g37
(g38
(I0
tp581
g40
tp582
Rp583
(I1
(I2
tp584
g46
I00
S'j]x,7S\xf3?R\x19\xfb\xec\x18h\xb7?'
p585
tp586
bssS'SAMPL5_082'
p587
(dp588
g3
(lp589
g5
(g9
S'oJ\xfeNc\xeeQ@'
p590
tp591
Rp592
ag5
(g9
S'.T\x1c\xae\xd7\xf7\xcf?'
p593
tp594
Rp595
asg18
S'CC/C(=C(\\c1ccccc1)/c2ccc(cc2)OCCN(C)C)/c3ccccc3'
p596
sg20
Nsg21
(lp597
sg23
g192
sg25
F8.37
sg26
(lp598
F8.37
asg28
(lp599
g5
(g9
S'\xa2\xa6\xbd@[$A@'
p600
tp601
Rp602
ag5
(g9
S'\xff\xa83\xb26\xa9\xc4?'
p603
tp604
Rp605
asg36
g37
(g38
(I0
tp606
g40
tp607
Rp608
(I1
(I2
tp609
g46
I00
S'\xd2\xd8\x14\xc9\xc4<\x1a@\xf9;\x93\xb2\x80\xac\xaa?'
p610
tp611
bssS'SAMPL5_027'
p612
(dp613
g3
(lp614
g5
(g9
S'\x7f\xac\x1b\xc6q\xb2J@'
p615
tp616
Rp617
ag5
(g9
S'[8\xd3\xd5\xf7\xf4\xc1?'
p618
tp619
Rp620
asg18
S'c1ccc(cc1)CNc2ncnc(n2)N'
p621
sg20
F12.98
sg21
(lp622
F12.98
aF13.39
aF13.39
asg23
S'2483781'
p623
sg25
F4.24
sg26
(lp624
F4.24
aF4.05
aF1.14
aF-2.02
aF-0.84
asg28
(lp625
g5
(g9
S'\x8b/\x8f\xfe\x02\x82P@'
p626
tp627
Rp628
ag5
(g9
S'&\x90\xf6\x02\xfb\xab\xba?'
p629
tp630
Rp631
asg36
g37
(g38
(I0
tp632
g40
tp633
Rp634
(I1
(I2
tp635
g46
I00
S'\x07~\xb4=4\xb6\x01\xc0\xec\x15}\xc2CY\x9f?'
p636
tp637
bssS'SAMPL5_026'
p638
(dp639
g3
(lp640
g5
(g9
S'\xc3\xd8vx0TH@'
p641
tp642
Rp643
ag5
(g9
S'\x05|\xe8*Cw\xc5?'
p644
tp645
Rp646
asg18
S'Cc1cc(c2c(c1)c(c([nH]2)C)CC(=O)O)C'
p647
sg20
F4.23
sg21
(lp648
F4.23
aF16.57
asg23
S'703690'
p649
sg25
F-2.04
sg26
(lp650
F-2.04
asg28
(lp651
g5
(g9
S'#9MG\xb68M@'
p652
tp653
Rp654
ag5
(g9
S'\x8fp7|\n\x1f\xc4?'
p655
tp656
Rp657
asg36
g37
(g38
(I0
tp658
g40
tp659
Rp660
(I1
(I2
tp661
g46
I00
S'y\xf6n\x07\xd8m\xfb\xbf\x0f\x18$\xa24\x9e\xa4?'
p662
tp663
bssS'SAMPL5_024'
p664
(dp665
g3
(lp666
g5
(g9
S'\xcd\x1cQ\xd2\x10\xfeS@'
p667
tp668
Rp669
ag5
(g9
S'm\xad\x14\xa6\xc4Q\xca?'
p670
tp671
Rp672
asg18
S'Cc1ccc2c(c1)cc3cc(sc3n2)C(=O)Nc4ccc(c(c4)C)C'
p673
sg20
F11.15
sg21
(lp674
F11.15
asg23
S'16329490'
p675
sg25
F5.86
sg26
(lp676
F5.86
aF-0.3
asg28
(lp677
g5
(g9
S'\x97\xd4]i\x84IS@'
p678
tp679
Rp680
ag5
(g9
S'\xcd\xde\xfc\xcf:\x89\xc1?'
p681
tp682
Rp683
asg36
g37
(g38
(I0
tp684
g40
tp685
Rp686
(I1
(I2
tp687
g46
I00
S'\x10\x85\x00|x\xa1\xdf?\xa9\xd3\x88$\xac)\xa6?'
p688
tp689
bssS'SAMPL5_021'
p690
(dp691
g3
(lp692
g5
(g9
S"\x7f\x10Yfb'M@"
p693
tp694
Rp695
ag5
(g9
S'C\x9eG\xa6\xf2\xed\xc4?'
p696
tp697
Rp698
asg18
S'Cc1nn2cc(nc2s1)c3cccc(c3)OC'
p699
sg20
Nsg21
(lp700
sg23
S'31467689'
p701
sg25
F4.92
sg26
(lp702
F-1.08
aF4.92
asg28
(lp703
g5
(g9
S'\x10C,\x1d\x03\xbaC@'
p704
tp705
Rp706
ag5
(g9
S'{\xac\xbft\xff\xd8\xba?'
p707
tp708
Rp709
asg36
g37
(g38
(I0
tp710
g40
tp711
Rp712
(I1
(I2
tp713
g46
I00
S'\x01y\x11i\xe0l\n@>>I\xe8\x9dl\xa1?'
p714
tp715
bssS'SAMPL5_020'
p716
(dp717
g3
(lp718
g5
(g9
S'\x9d\xd6\xc3H\xcf\xa4M@'
p719
tp720
Rp721
ag5
(g9
S'?\x8d\xa5\xd9\x03\x94\xc7?'
p722
tp723
Rp724
asg18
S'CCCC(=O)Nc1nc2ccc(cc2s1)C(C)C'
p725
sg20
F9.74
sg21
(lp726
F9.74
asg23
S'5522978'
p727
sg25
F2.65
sg26
(lp728
F2.65
aF-0.36
asg28
(lp729
g5
(g9
S'sG\xc4o\x08QT@'
p730
tp731
Rp732
ag5
(g9
S'\x11\x94\r\x14\xc4\x17\xc1?'
p733
tp734
Rp735
asg36
g37
(g38
(I0
tp736
g40
tp737
Rp738
(I1
(I2
tp739
g46
I00
S'\xe5\xbd\x99\x9c\xc8\xcd\x0e\xc0H\x80\xc9@kh\xa4?'
p740
tp741
bssS'SAMPL5_049'
p742
(dp743
g3
(lp744
g5
(g9
S'ml\xb9\xa5\xd0\x8dJ@'
p745
tp746
Rp747
ag5
(g9
S'%\xf8V?iV\xc4?'
p748
tp749
Rp750
asg18
S'c1cc(c(c(c1)Cl)Cl)NC(=O)c2ccno2'
p751
sg20
F10.75
sg21
(lp752
F10.75
asg23
S'5627856'
p753
sg25
F-0.31
sg26
(lp754
F-0.31
asg28
(lp755
g5
(g9
S'\xfd\x96\x0c\xa6iDD@'
p756
tp757
Rp758
ag5
(g9
S'\x17\x15\xd5ub\xdf\xba?'
p759
tp760
Rp761
asg36
g37
(g38
(I0
tp762
g40
tp763
Rp764
(I1
(I2
tp765
g46
I00
S'?Z\xa2\xc9H\x9f\x01@zv\x1a\xdb\xd6\x14\xa1?'
p766
tp767
bssS'SAMPL5_004'
p768
(dp769
g3
(lp770
g5
(g9
S'@\x87Z7\xa8wP@'
p771
tp772
Rp773
ag5
(g9
S'\xff\x8e\xca\xf3p\x94\xc7?'
p774
tp775
Rp776
asg18
S'CCOc1ccc(cc1)Nc2cc(c3ccccc3n2)C'
p777
sg20
F13.92
sg21
(lp778
F13.92
asg23
S'1221528'
p779
sg25
F6.43
sg26
(lp780
F-0.09
aF6.43
asg28
(lp781
g5
(g9
S'\xeaA0EX\x18D@'
p782
tp783
Rp784
ag5
(g9
S'+\xea\xe1V\xc3\x14\xbe?'
p785
tp786
Rp787
asg36
g37
(g38
(I0
tp788
g40
tp789
Rp790
(I1
(I2
tp791
g46
I00
S'\xe5\x06\\\xe5\xd1\xfe\x11@\xc3\x91KSp\x99\xa3?'
p792
tp793
bssS'SAMPL5_007'
p794
(dp795
g3
(lp796
g5
(g9
S'\x030\x82\x7fy\xb6P@'
p797
tp798
Rp799
ag5
(g9
S'\xa3}\x99\x16>\x0c\xc7?'
p800
tp801
Rp802
asg18
S'c1ccc(cc1)CCNc2c3cc(ccc3ncn2)Br'
p803
sg20
F13.97
sg21
(lp804
F13.97
asg23
S'1373587'
p805
sg25
F4.57
sg26
(lp806
F-0.04
aF4.57
aF3.47
asg28
(lp807
g5
(g9
S'{\x95\xbcN\\-D@'
p808
tp809
Rp810
ag5
(g9
S'\xdf\x18\x91V\xccB\xbe?'
p811
tp812
Rp813
asg36
g37
(g38
(I0
tp814
g40
tp815
Rp816
(I1
(I2
tp817
g46
I00
S'\x9f5P\xafr\x91\x12@\x05\x0f\xf3;\x12R\xa3?'
p818
tp819
bssS'SAMPL5_060'
p820
(dp821
g3
(lp822
g5
(g9
S'\x91\xaa\x95v\x90\x88J@'
p823
tp824
Rp825
ag5
(g9
S'\x8d\x83\n\x7f\xecY\xc2?'
p826
tp827
Rp828
asg18
S'c1ccc2c(c1)c3cc(ncc3[nH]2)C(=O)O'
p829
sg20
F3.75
sg21
(lp830
F3.75
aF15.88
asg23
S'42618372'
p831
sg25
F5.93
sg26
(lp832
F5.93
asg28
(lp833
g5
(g9
S'#tOR*\x8bR@'
p834
tp835
Rp836
ag5
(g9
S'\xdd21\x17\xfeW\xba?'
p837
tp838
Rp839
asg36
g37
(g38
(I0
tp840
g40
tp841
Rp842
(I1
(I2
tp843
g46
I00
S'\x1e\x8b\x80\xbeD\x95\r\xc0_\xfc[\xea\xd5\xa8\x9f?'
p844
tp845
bssS'SAMPL5_067'
p846
(dp847
g3
(lp848
g5
(g9
S'\xc2\xbbU\xcbK\xfbJ@'
p849
tp850
Rp851
ag5
(g9
S'\x94\x0f\xab\xc9a\x8b\xc8?'
p852
tp853
Rp854
asg18
S'CC(C)NC[C@@H](COc1cccc2c1cccc2)O'
p855
sg20
F13.32
sg21
(lp856
F13.32
asg23
g192
sg25
F9.25
sg26
(lp857
F9.25
aF-1.29
asg28
(lp858
g5
(g9
S'\xd8\xa96^\t\xfdB@'
p859
tp860
Rp861
ag5
(g9
S'>q\xc2T&g\xca?'
p862
tp863
Rp864
asg36
g37
(g38
(I0
tp865
g40
tp866
Rp867
(I1
(I2
tp868
g46
I00
S'\xeb\x05\xa6~\xd4g\x06@\xf06X\xf1\x1fC\xa9?'
p869
tp870
bssS'SAMPL5_065'
p871
(dp872
g3
(lp873
g5
(g9
S'C\xb4\x15\x0c<\xa3`@'
p874
tp875
Rp876
ag5
(g9
S'\xbf0zB\xf5\xe2\xd3?'
p877
tp878
Rp879
asg18
S'COc1ccc2c(c1)[nH]c3c2CC[N@]4[C@@H]3C[C@H]5[C@@H](C4)C[C@H]([C@@H]([C@H]5C(=O)OC)OC)OC(=O)c6cc(c(c(c6)OC)OC)OC'
p880
sg20
Nsg21
(lp881
sg23
g192
sg25
F8.15
sg26
(lp882
F-1.05
aF8.15
asg28
(lp883
g5
(g9
S'\xc2K\x83h\x9ec]@'
p884
tp885
Rp886
ag5
(g9
S']H\xc6\xd9gb\xc7?'
p887
tp888
Rp889
asg36
g37
(g38
(I0
tp890
g40
tp891
Rp892
(I1
(I2
tp893
g46
I00
S'\x90\xact\x8aJ\xc9\x05@t\xbeL\x19\x87*\xb0?'
p894
tp895
bssS'SAMPL5_002'
p896
(dp897
g3
(lp898
g5
(g9
S'\xa8\xc5\x06\x07?\x9aM@'
p899
tp900
Rp901
ag5
(g9
S']\xdeU\xd0#\x12\xc6?'
p902
tp903
Rp904
asg18
S'CCOC(=O)c1c(c2c(c(c(nc2s1)C)C)C)N'
p905
sg20
F11.05
sg21
(lp906
F11.05
aF11.05
asg23
S'1254130'
p907
sg25
F4.46
sg26
(lp908
F2.92
aF4.46
asg28
(lp909
g5
(g9
S'U\x1d\x9b\xa6InG@'
p910
tp911
Rp912
ag5
(g9
S'8\xf0\x0f\x02\xf8\xc0\xbb?'
p913
tp914
Rp915
asg36
g37
(g38
(I0
tp916
g40
tp917
Rp918
(I1
(I2
tp919
g46
I00
S'\xd5\x10\xe09\xc0L\x01@\x95\x08\x87\xce\nE\xa2?'
p920
tp921
bssS'SAMPL5_070'
p922
(dp923
g3
(lp924
g5
(g9
S'Cq}\x7fR\xe1L@'
p925
tp926
Rp927
ag5
(g9
S'\xc4f\xa55\xb8h\xca?'
p928
tp929
Rp930
asg18
S'CN(C)CCC=C1c2ccccc2CCc3c1cccc3'
p931
sg20
Nsg21
(lp932
sg23
g192
sg25
F9.1
sg26
(lp933
F9.1
asg28
(lp934
g5
(g9
S'v\xda\r\xc2\xee\xb9>@'
p935
tp936
Rp937
ag5
(g9
S'\x04\xeb\xad7\n\x1b\xc0?'
p938
tp939
Rp940
asg36
g37
(g38
(I0
tp941
g40
tp942
Rp943
(I1
(I2
tp944
g46
I00
S'\x14\x9e\xaf\x00\xd4\xf1\x12@\x85d\xfeM;\xad\xa5?'
p945
tp946
bssS'SAMPL5_069'
p947
(dp948
g3
(lp949
g5
(g9
S'D_mHP\xd4R@'
p950
tp951
Rp952
ag5
(g9
S'Z\xd3q\xc4\xcam\xca?'
p953
tp954
Rp955
asg18
S'C[N@]1CCc2cc(c(c-3c2[C@@H]1Cc4c3cc(c(c4)O)OC)OC)O'
p956
sg20
F10.1
sg21
(lp957
F10.1
aF10.22
asg23
g192
sg25
F8.1
sg26
(lp958
F8.1
asg28
(lp959
g5
(g9
S'\xbe\xad\xe5zQdM@'
p960
tp961
Rp962
ag5
(g9
S'\xedb+l\xc1\x84\xc2?'
p963
tp964
Rp965
asg36
g37
(g38
(I0
tp966
g40
tp967
Rp968
(I1
(I2
tp969
g46
I00
S'QG\xde./,\x07@u\xbc\xbb^W\x9d\xa6?'
p970
tp971
bssS'SAMPL5_068'
p972
(dp973
g3
(lp974
g5
(g9
S'\x80\x900\xb5\xf4\x8bQ@'
p975
tp976
Rp977
ag5
(g9
S'\xf8\xce\x1a\xcd<\xfd\xc9?'
p978
tp979
Rp980
asg18
S'c1ccc(cc1)c2c(nnc(n2)c3ccccn3)c4ccccc4'
p981
sg20
Nsg21
(lp982
sg23
g192
sg25
F0.83
sg26
(lp983
F-2.69
aF0.83
asg28
(lp984
g5
(g9
S'\xf7~G\xf7R\xd6F@'
p985
tp986
Rp987
ag5
(g9
S'\xf1\x9b)l\xc9e\xbe?'
p988
tp989
Rp990
asg36
g37
(g38
(I0
tp991
g40
tp992
Rp993
(I1
(I2
tp994
g46
I00
S'\xd0\x8a\xab\x98t-\x11@\xf1\x9a\x97\xaa$\x19\xa5?'
p995
tp996
bssS'SAMPL5_045'
p997
(dp998
g3
(lp999
g5
(g9
S'\xf0\xabB\xde\xcf\xc7G@'
p1000
tp1001
Rp1002
ag5
(g9
S'\xa6\xfa\xf7\x8b"\x8d\xc2?'
p1003
tp1004
Rp1005
asg18
S'CCC(=O)Nc1ccc2c(c1)ncs2'
p1006
sg20
F11.72
sg21
(lp1007
F11.72
asg23
S'12474692'
p1008
sg25
F1.7
sg26
(lp1009
F1.11
aF1.7
asg28
(lp1010
g5
(g9
S'\xa6\x08\x9b\xcddqM@'
p1011
tp1012
Rp1013
ag5
(g9
S'"\x1f\xd24*\xc0\xbd?'
p1014
tp1015
Rp1016
asg36
g37
(g38
(I0
tp1017
g40
tp1018
Rp1019
(I1
(I2
tp1020
g46
I00
S'E\x8c\xeb\xbe\x96\xbe\xff\xbfh\xa5\x92p\xd4\xa9\xa0?'
p1021
tp1022
bssS'SAMPL5_044'
p1023
(dp1024
g3
(lp1025
g5
(g9
S'\xfdi\x89\xc4\x98\x19S@'
p1026
tp1027
Rp1028
ag5
(g9
S'\x8e\xdbAW\x85Z\xc7?'
p1029
tp1030
Rp1031
asg18
S'c1ccc2c(c1)cc(c(=O)o2)C(=O)Nc3ccc4c(c3)scn4'
p1032
sg20
F11.71
sg21
(lp1033
F11.71
asg23
S'4987019'
p1034
sg25
F0.78
sg26
(lp1035
F0.78
aF0.5
aF-1.29
asg28
(lp1036
g5
(g9
S'w\xbe\xc2\x03\xcf\xeeN@'
p1037
tp1038
Rp1039
ag5
(g9
S'\x94\xefI!\xb4\xb8\xbd?'
p1040
tp1041
Rp1042
asg36
g37
(g38
(I0
tp1043
g40
tp1044
Rp1045
(I1
(I2
tp1046
g46
I00
S'%a\x07\xfa\xce^\x04@\xc0\xbc\xc6\x06\xe0e\xa3?'
p1047
tp1048
bssS'SAMPL5_048'
p1049
(dp1050
g3
(lp1051
g5
(g9
S'\xdb|\x96w\xfe\x1fS@'
p1052
tp1053
Rp1054
ag5
(g9
S'\xc6\xb0\xd1\xa5\xee\xd8\xc8?'
p1055
tp1056
Rp1057
asg18
S'c1ccc2c(c1)nc(s2)c3cccc(c3)NC(=O)c4ccno4'
p1058
sg20
F11.23
sg21
(lp1059
F11.23
asg23
S'5627798'
p1060
sg25
F1.43
sg26
(lp1061
F1.43
aF0.29
asg28
(lp1062
g5
(g9
S'\xb0\xa3_N\xbb\x83Q@'
p1063
tp1064
Rp1065
ag5
(g9
S'\xa8\x9d\xf3U\xddV\xc0?'
p1066
tp1067
Rp1068
asg36
g37
(g38
(I0
tp1069
g40
tp1070
Rp1071
(I1
(I2
tp1072
g46
I00
S'\xb3.u\x0fk\x0e\xf2?-\xdd"\x10\xf7\xd6\xa4?'
p1073
tp1074
bssS'SAMPL5_046'
p1075
(dp1076
g3
(lp1077
g5
(g9
S'6\x11\xf2[SeQ@'
p1078
tp1079
Rp1080
ag5
(g9
S'\xaa\x19\xb6C{\xf2\xc7?'
p1081
tp1082
Rp1083
asg18
S'CSc1ccc(cc1)CC(=O)Nc2c3ccsc3ncn2'
p1084
sg20
F10.04
sg21
(lp1085
F10.04
asg23
S'12046880'
p1086
sg25
F1.7
sg26
(lp1087
F1.7
aF0.84
aF-0.88
asg28
(lp1088
g5
(g9
S'\x19a\xb7\x93\x9f*M@'
p1089
tp1090
Rp1091
ag5
(g9
S'\xffk\xfe\x08\x95\x80\xc0?'
p1092
tp1093
Rp1094
asg36
g37
(g38
(I0
tp1095
g40
tp1096
Rp1097
(I1
(I2
tp1098
g46
I00
S'\x8e>\x9c;\x07\x89\xff?L\xe5\xbd]Ra\xa4?'
p1099
tp1100
bssS'SAMPL5_006'
p1101
(dp1102
g3
(lp1103
g5
(g9
S'\xbeB\x9e\xb7\xa2\x99H@'
p1104
tp1105
Rp1106
ag5
(g9
S'j\x11\xbd|\xd9v\xc4?'
p1107
tp1108
Rp1109
asg18
S'C=C(Cn1c2ccccc2nc1CO)Br'
p1110
sg20
F10.9
sg21
(lp1111
F10.9
asg23
S'2118862'
p1112
sg25
F5.91
sg26
(lp1113
F5.91
aF-1.98
asg28
(lp1114
g5
(g9
S'\x93nKK\xd9\xc4D@'
p1115
tp1116
Rp1117
ag5
(g9
S'k\xd3#\xc5Oa\xbc?'
p1118
tp1119
Rp1120
asg36
g37
(g38
(I0
tp1121
g40
tp1122
Rp1123
(I1
(I2
tp1124
g46
I00
S'^D\xfb\xe2rz\xf5?\x12\xa2\x8aoxs\xa1?'
p1125
tp1126
bssS'SAMPL5_063'
p1127
(dp1128
g3
(lp1129
g5
(g9
S'M\xef\x9bhT\xa7J@'
p1130
tp1131
Rp1132
ag5
(g9
S'l\xc0l@\xa4\x14\xc5?'
p1133
tp1134
Rp1135
asg18
S'C1C[C@H](CNC1)N2CCC(CC2)C(=O)N'
p1136
sg20
F13.25
sg21
(lp1137
F13.25
aF13.25
asg23
S'38498425'
p1138
sg25
F9.69
sg26
(lp1139
F9.69
aF8.66
aF-0.31
asg28
(lp1140
g5
(g9
S'\x86\x96\x04\xb1\x81\xa0R@'
p1141
tp1142
Rp1143
ag5
(g9
S'\x98\xd1\xc5;kP\xbc?'
p1144
tp1145
Rp1146
asg36
g37
(g38
(I0
tp1147
g40
tp1148
Rp1149
(I1
(I2
tp1150
g46
I00
S'\xd69\xe2]\xac\xb6\r\xc0\xc8\x08\x8a\xa4x\xcb\xa1?'
p1151
tp1152
bssS'SAMPL5_047'
p1153
(dp1154
g3
(lp1155
g5
(g9
S'\xa6\xc1\xd1\x11c\xd6P@'
p1156
tp1157
Rp1158
ag5
(g9
S'YL^\x85Z\x8f\xc6?'
p1159
tp1160
Rp1161
asg18
S'c1cnoc1C(=O)Nc2c(c3c(s2)CCCC3)C#N'
p1162
sg20
F11.35
sg21
(lp1163
F11.35
asg23
S'5627778'
p1164
sg25
F-0.83
sg26
(lp1165
F-0.83
asg28
(lp1166
g5
(g9
S'\xd1\xe5\xe0\x17\xbdqH@'
p1167
tp1168
Rp1169
ag5
(g9
S'\xa4mn\x85z:\xbb?'
p1170
tp1171
Rp1172
asg36
g37
(g38
(I0
tp1173
g40
tp1174
Rp1175
(I1
(I2
tp1176
g46
I00
S'4\xfe\x15>\xc7\xdf\t@\xc5\xf4\xddA\tw\xa2?'
p1177
tp1178
bssS'SAMPL5_055'
p1179
(dp1180
g3
(lp1181
g5
(g9
S'\xf6|]\x1a\xa0\x87E@'
p1182
tp1183
Rp1184
ag5
(g9
S':h*&\xeb\xe4\xbf?'
p1185
tp1186
Rp1187
asg18
S'c1ccc2c(c1)ncc(n2)C(=O)N'
p1188
sg20
F10.75
sg21
(lp1189
F10.75
aF10.75
asg23
S'3800934'
p1190
sg25
F-0.75
sg26
(lp1191
F-0.75
aF-2.22
aF-1.9
asg28
(lp1192
g5
(g9
S'4\xf0\xeaH\xb2\x0cG@'
p1193
tp1194
Rp1195
ag5
(g9
S'\xfd\x13\xf6)\x92^\xb6?'
p1196
tp1197
Rp1198
asg36
g37
(g38
(I0
tp1199
g40
tp1200
Rp1201
(I1
(I2
tp1202
g46
I00
S'\xf1\xfc\xfe\xbcc\n\xe1\xbf\xf4\xeeG\xd6\xbcL\x9b?'
p1203
tp1204
bssS'SAMPL5_088'
p1205
(dp1206
g3
(lp1207
g5
(g9
S'|\x88\x9fojXM@'
p1208
tp1209
Rp1210
ag5
(g9
S'\xaf\\\x8b\xbf\xd1\xe6\xc9?'
p1211
tp1212
Rp1213
asg18
S'CCN(Cc1ccncc1)C(=O)[C@H](CO)c2ccccc2'
p1214
sg20
F14.6
sg21
(lp1215
F14.6
asg23
g192
sg25
F5.96
sg26
(lp1216
F5.96
aF-0.13
aF-2.19
asg28
(lp1217
g5
(g9
S'\x9cN\xb6\xb6\xbfvM@'
p1218
tp1219
Rp1220
ag5
(g9
S'/\x169t\x84\x88\xc0?'
p1221
tp1222
Rp1223
asg36
g37
(g38
(I0
tp1224
g40
tp1225
Rp1226
(I1
(I2
tp1227
g46
I00
S'\xf2\xa8\xe8\xb4\xacA\xa5\xbf\xe5!H^\x9d\x88\xa5?'
p1228
tp1229
bssS'SAMPL5_092'
p1230
(dp1231
g3
(lp1232
g5
(g9
S'I\x8d\xae\x83\xa4T[@'
p1233
tp1234
Rp1235
ag5
(g9
S'\xe1\xd4\xb9.\xaa\xb1\xd3?'
p1236
tp1237
Rp1238
asg18
S'CC(=O)N1CCN(CC1)c2ccc(cc2)OC[C@H]3CO[C@](O3)(Cn4ccnc4)c5ccc(cc5Cl)Cl'
p1239
sg20
Nsg21
(lp1240
sg23
g192
sg25
F7.15
sg26
(lp1241
F5.52
aF7.15
aF0.27
asg28
(lp1242
g5
(g9
S"\x81{\x06\xaf\x91'Y@"
p1243
tp1244
Rp1245
ag5
(g9
S'9\x05\x8c\x8a\x9ev\xd5?'
p1246
tp1247
Rp1248
asg36
g37
(g38
(I0
tp1249
g40
tp1250
Rp1251
(I1
(I2
tp1252
g46
I00
S'\xcf\xe04\x8f\x16f\xf8?\xabE~%\xc1i\xb4?'
p1253
tp1254
bssS'SAMPL5_090'
p1255
(dp1256
g3
(lp1257
g5
(g9
S'\x8b\xc2#\x9d\xb8\xb7Q@'
p1258
tp1259
Rp1260
ag5
(g9
S"H+f3\x12'\xca?"
p1261
tp1262
Rp1263
asg18
S'Cc1cc2c(cc1C)nc(c(n2)c3ccccn3)c4ccccn4'
p1264
sg20
Nsg21
(lp1265
sg23
g192
sg25
F4.44
sg26
(lp1266
F-1.32
aF-1.32
aF4.44
aF4.44
asg28
(lp1267
g5
(g9
S'{\xd8\xa5o\x1e\x1bG@'
p1268
tp1269
Rp1270
ag5
(g9
S'\xe4l|\x9fB\xf0\xc4?'
p1271
tp1272
Rp1273
asg36
g37
(g38
(I0
tp1274
g40
tp1275
Rp1276
(I1
(I2
tp1277
g46
I00
S"\xe9\x15\xd6\xdc\xb6G\x11@\xbb^\x07\xd5'z\xa7?"
p1278
tp1279
bssS'SAMPL5_005'
p1280
(dp1281
g3
(lp1282
g5
(g9
S'\xb5^-\x01\xa8>Q@'
p1283
tp1284
Rp1285
ag5
(g9
S'\n(\x15\xfd\xe3j\xc6?'
p1286
tp1287
Rp1288
asg18
S'Cn1ccnc1SCC(=O)Nc2ccc3c(c2)OCO3'
p1289
sg20
F11.49
sg21
(lp1290
F11.49
asg23
S'1363085'
p1291
sg25
F6.37
sg26
(lp1292
F6.37
aF0.04
asg28
(lp1293
g5
(g9
S'\xd9z\x19u\x0f\x85O@'
p1294
tp1295
Rp1296
ag5
(g9
S'\xeby>\xdf\xf8\xb9\xc6?'
p1297
tp1298
Rp1299
asg36
g37
(g38
(I0
tp1300
g40
tp1301
Rp1302
(I1
(I2
tp1303
g46
I00
S'l\x0bC\x93\x18\xa6\xf0?\x84\x99\x9d_\xc8^\xa6?'
p1304
tp1305
bssS'SAMPL5_042'
p1306
(dp1307
g3
(lp1308
g5
(g9
S'\xf3\x1f(\xf1q:P@'
p1309
tp1310
Rp1311
ag5
(g9
S'}9\x97\xd1.\xd0\xc7?'
p1312
tp1313
Rp1314
asg18
S'c1ccc(cc1)c2ccccc2NC(=O)c3ccc(=O)[nH]n3'
p1315
sg20
F8.57
sg21
(lp1316
F11.33
aF8.57
asg23
S'1552842'
p1317
sg25
F0.5
sg26
(lp1318
F-1.73
aF0.5
asg28
(lp1319
g5
(g9
S'\x81\xdd\x87\xef\xf2*R@'
p1320
tp1321
Rp1322
ag5
(g9
S'N\xd0m\x1bE)\xc8?'
p1323
tp1324
Rp1325
asg36
g37
(g38
(I0
tp1326
g40
tp1327
Rp1328
(I1
(I2
tp1329
g46
I00
S'`k\xfe\x1e\xf6\xbe\xf5\xbf|\xb5\xb1l\xdb\xc5\xa7?'
p1330
tp1331
bssS'SAMPL5_033'
p1332
(dp1333
g3
(lp1334
g5
(g9
S'\x00u\x01\x14\x9f\xecQ@'
p1335
tp1336
Rp1337
ag5
(g9
S'\xb9;\xa0*0\xd8\xca?'
p1338
tp1339
Rp1340
asg18
S'Cc1ccc(cc1NC(=O)N2CCCCC[C@@H]2c3cccs3)Cl'
p1341
sg20
F12.17
sg21
(lp1342
F12.17
asg23
S'16363773'
p1343
sg25
F2.72
sg26
(lp1344
F2.72
asg28
(lp1345
g5
(g9
S'\xc0<S\x92K\xf1H@'
p1346
tp1347
Rp1348
ag5
(g9
S'_\xe2\xbd\xcaV\xc1\xc1?'
p1349
tp1350
Rp1351
asg36
g37
(g38
(I0
tp1352
g40
tp1353
Rp1354
(I1
(I2
tp1355
g46
I00
S'q\xb8\xb2\xcb\r\x92\x0e@\r\x95\x0c\xfb\xe5\x8d\xa6?'
p1356
tp1357
bssS'SAMPL5_037'
p1358
(dp1359
g3
(lp1360
g5
(g9
S'B5\xe2\x06\x1f\x12G@'
p1361
tp1362
Rp1363
ag5
(g9
S'\x11\xab\xb9\xdbx\t\xc2?'
p1364
tp1365
Rp1366
asg18
S'CN(C)S(=O)(=O)N1CCNCC1'
p1367
sg20
Nsg21
(lp1368
sg23
S'833953'
p1369
sg25
F7.81
sg26
(lp1370
F-1.5
aF-0.07
aF7.81
asg28
(lp1371
g5
(g9
S'\xa5*>V(5R@'
p1372
tp1373
Rp1374
ag5
(g9
S'M\xae\xa1\xe8\xaa\x13\xbb?'
p1375
tp1376
Rp1377
asg36
g37
(g38
(I0
tp1378
g40
tp1379
Rp1380
(I1
(I2
tp1381
g46
I00
S'<\xd5\xac\xed\xee\xb3\x12\xc0\xa8(\xc1)\xc3\x9b\x9f?'
p1382
tp1383
bss.