(dp0
S'SAMPL5_017'
p1
(dp2
S'cyclohexane'
p3
(lp4
cnumpy.core.multiarray
scalar
p5
(cnumpy
dtype
p6
(S'f8'
p7
I0
I1
tp8
Rp9
(I3
S'<'
p10
NNNI-1
I-1
I0
tp11
bS'\xeaz\xaa44\x04R@'
p12
tp13
Rp14
ag5
(g9
S'\xec\xc6Vu\xc8\x08\xc8?'
p15
tp16
Rp17
asS'Smiles'
p18
S'c1ccc2c(c1)c(nc(n2)c3ccccc3O)NC4CCCC4'
p19
sS'pKa_acidic'
p20
F8.93
sS'LogD_calc'
p21
cnumpy.core.multiarray
_reconstruct
p22
(cnumpy
ndarray
p23
(I0
tp24
S'b'
p25
tp26
Rp27
(I1
(I2
tp28
g6
(S'f8'
p29
I0
I1
tp30
Rp31
(I3
S'<'
p32
NNNI-1
I-1
I0
tp33
bI00
S'\xf0;F\xcc\xd1\xff\x18@\x82\x10\xb9_\xdf\x01\xa4?'
p34
tp35
bsS'EmolID'
p36
S'2425478'
p37
sS'LogD_baseCorrected'
p38
(lp39
g5
(g9
S't\xfd\x9c\x1f\xbf\xf5\x18@'
p40
tp41
Rp42
ag5
(g9
S'\x82\x10\xb9_\xdf\x01\xa4?'
p43
tp44
Rp45
asS'LogD_bothCorrected'
p46
(lp47
g5
(g9
S'U/-\xfa\x18\xe9\x18@'
p48
tp49
Rp50
ag45
asS'pKa_basic'
p51
F5.76
sS'Conj_Base'
p52
(lp53
F0.78
aF3.94
aF5.76
asS'water'
p54
(lp55
g5
(g9
S'~\x0e<\xc6!2B@'
p56
tp57
Rp58
ag5
(g9
S'Rs}1#\xd2\xbe?'
p59
tp60
Rp61
asS'LogD_oneCorrected'
p62
(lp63
g5
(g9
S'6|\xe0\x89\xe2\xf2\x18@'
p64
tp65
Rp66
ag45
asS'Conj_Acid'
p67
(lp68
F8.93
aF14.36
asS'LogD_acidCorrected'
p69
(lp70
g66
ag45
assS'SAMPL5_058'
p71
(dp72
g3
(lp73
g5
(g9
S'\xfb\xf4\xd7\xa7\xfd\xb6I@'
p74
tp75
Rp76
ag5
(g9
S'\x1f\xdf\x17\xf3(N\xc4?'
p77
tp78
Rp79
asg18
S'c1ccc(cc1)n2c(=O)c3ccccc3cn2'
p80
sg20
Nsg21
g22
(g23
(I0
tp81
g25
tp82
Rp83
(I1
(I2
tp84
g31
I00
S'\xd0\x00\xbe\xa438\xee?\xdfk\xd5Dv\xfb\xa0?'
p85
tp86
bsg36
S'3730323'
p87
sg38
(lp88
g5
(g9
S'O\x8ea\xa438\xee?'
p89
tp90
Rp91
ag5
(g9
S'\xdfk\xd5Dv\xfb\xa0?'
p92
tp93
Rp94
asg46
(lp95
g5
(g9
S'O\x8ea\xa438\xee?'
p96
tp97
Rp98
ag94
asg51
F-1.41
sg52
(lp99
F-1.41
asg54
(lp100
g5
(g9
S'\x9c\xbd\x19\x84\x04\x05G@'
p101
tp102
Rp103
ag5
(g9
S'G\xefP\x9e\x80t\xba?'
p104
tp105
Rp106
asg62
(lp107
g91
ag94
asg67
(lp108
sg69
(lp109
g5
(g9
S'\xd0\x00\xbe\xa438\xee?'
p110
tp111
Rp112
ag94
assS'SAMPL5_059'
p113
(dp114
g3
(lp115
g5
(g9
S'6\x02\xa7\xa2\x1e\tE@'
p116
tp117
Rp118
ag5
(g9
S'w\xd4D~\x10\x03\xc0?'
p119
tp120
Rp121
asg18
S'c1ccc(cc1)c2nc(sn2)N'
p122
sg20
F13.54
sg21
g22
(g23
(I0
tp123
g25
tp124
Rp125
(I1
(I2
tp126
g31
I00
S'\xb5$5&\xa8"\xe5\xbf\x14;\xb8\xb1\xd8\x92\x9b?'
p127
tp128
bsg36
S'711981'
p129
sg38
(lp130
g5
(g9
S'\xc0\xe3\xc7\xdb\xd6"\xe5\xbf'
p131
tp132
Rp133
ag5
(g9
S'\x14;\xb8\xb1\xd8\x92\x9b?'
p134
tp135
Rp136
asg46
(lp137
g5
(g9
S'\xd3\x7f\xae\x84\xd7"\xe5\xbf'
p138
tp139
Rp140
ag136
asg51
F3.11
sg52
(lp141
F-0.4
aF3.11
aF-0.16
asg54
(lp142
g5
(g9
S'\xb2\x05\x15\xe1\xae\xebF@'
p143
tp144
Rp145
ag5
(g9
S'\xb3\xf7\x92%\xd6\xdc\xb6?'
p146
tp147
Rp148
asg62
(lp149
g133
ag136
asg67
(lp150
F13.54
aF13.54
asg69
(lp151
g5
(g9
S'y\xf8\x1d\xcf\xa8"\xe5\xbf'
p152
tp153
Rp154
ag136
assS'SAMPL5_013'
p155
(dp156
g3
(lp157
g5
(g9
S'\x13\xa8NJu\xe1T@'
p158
tp159
Rp160
ag5
(g9
S'v\xd9\x00\x03d\x0e\xca?'
p161
tp162
Rp163
asg18
S'Cc1ccc(cc1)c2nc(c3c(n2)n(c(=O)[nH]3)c4ccccc4)C(=O)N'
p164
sg20
F7.37
sg21
g22
(g23
(I0
tp165
g25
tp166
Rp167
(I1
(I2
tp168
g31
I00
S'a\xac\x7f\x88z\xa4\xf1?sUi*.w\xa5?'
p169
tp170
bsg36
S'16095985'
p171
sg38
(lp172
g5
(g9
S'Wg!yz\xa4\xf1?'
p173
tp174
Rp175
ag5
(g9
S'sUi*.w\xa5?'
p176
tp177
Rp178
asg46
(lp179
g5
(g9
S'\x1d\xb7S\xee\xea)\xe9?'
p180
tp181
Rp182
ag178
asg51
F0.52
sg52
(lp183
F0.52
aF0.12
aF-2.93
asg54
(lp184
g5
(g9
S'nD\x9b\xf1\xa4NS@'
p185
tp186
Rp187
ag5
(g9
S'\xdd(w\xa1\xbf\x1a\xc0?'
p188
tp189
Rp190
asg62
(lp191
g5
(g9
S"}'*\xfd\xea)\xe9?"
p192
tp193
Rp194
ag178
asg67
(lp195
F10.75
aF10.75
aF7.37
asg69
(lp196
g194
ag178
assS'SAMPL5_010'
p197
(dp198
g3
(lp199
g5
(g9
S'\xa1\xbf\x08\xe2P\x81K@'
p200
tp201
Rp202
ag5
(g9
S'\x80\xed\x92\xcd%d\xc3?'
p203
tp204
Rp205
asg18
S'c1cc(cc(c1)NCc2ccncc2)C(=O)O'
p206
sg20
F4.33
sg21
g22
(g23
(I0
tp207
g25
tp208
Rp209
(I1
(I2
tp210
g31
I00
S'\x86\x88\xadWo:\xf6\xbf\xc0%\xb6\x12\xe3\xac\xa0?'
p211
tp212
bsg36
S'1491855'
p213
sg38
(lp214
g5
(g9
S'\xea\x03/\xb5\x91K\xf7\xbf'
p215
tp216
Rp217
ag5
(g9
S'\xc0%\xb6\x12\xe3\xac\xa0?'
p218
tp219
Rp220
asg46
(lp221
g5
(g9
S'\x1cMS\xd7\xba\xd6\x11\xc0'
p222
tp223
Rp224
ag220
asg51
F6.62
sg52
(lp225
F2.63
aF6.62
asg54
(lp226
g5
(g9
S'<\xf1\xc0+YxO@'
p227
tp228
Rp229
ag5
(g9
S'\x86\x82\xd7L|\x95\xbb?'
p230
tp231
Rp232
asg62
(lp233
g5
(g9
S'^PF\xc6\xaa\xd6\x11\xc0'
p234
tp235
Rp236
ag220
asg67
(lp237
F4.33
aF14.68
asg69
(lp238
g236
ag220
assS'SAMPL5_011'
p239
(dp240
g3
(lp241
g5
(g9
S'\xb2\xb4\xd9\x81\xc3`M@'
p242
tp243
Rp244
ag5
(g9
S')\xeb\xa2\xfc\xf7\xde\xc4?'
p245
tp246
Rp247
asg18
S'Cc1cc(nc(n1)Nc2ccccc2C(=O)O)C'
p248
sg20
F4.57
sg21
g22
(g23
(I0
tp249
g25
tp250
Rp251
(I1
(I2
tp252
g31
I00
S'M\xae\\\xeb\xd2}\xfb?\xa2\x85a\xc9Ih\xa1?'
p253
tp254
bsg36
S'542592'
p255
sg38
(lp256
g5
(g9
S'\x14B\xbc-"{\xfb?'
p257
tp258
Rp259
ag5
(g9
S'\xa2\x85a\xc9Ih\xa1?'
p260
tp261
Rp262
asg46
(lp263
g5
(g9
S'\xdd\x9a\xd5@}\xcc\xf1\xbf'
p264
tp265
Rp266
ag262
asg51
F4.58
sg52
(lp267
F4.58
aF4.58
asg54
(lp268
g5
(g9
S'(tg\xfccyH@'
p269
tp270
Rp271
ag5
(g9
S'Bx\x11\xa2\xba\xf0\xba?'
p272
tp273
Rp274
asg62
(lp275
g5
(g9
S'J\xde:<|\xcc\xf1\xbf'
p276
tp277
Rp278
ag262
asg67
(lp279
F4.57
aF12.85
asg69
(lp280
g278
ag262
assS'SAMPL5_074'
p281
(dp282
g3
(lp283
g5
(g9
S'\t\x18l\x00\xb2\x8aQ@'
p284
tp285
Rp286
ag5
(g9
S'\xe6\xbb\xab\xf8X(\xc4?'
p287
tp288
Rp289
asg18
S'c1nc(c2c(n1)n(cn2)[C@H]3[C@@H]([C@@H]([C@H](O3)CO)O)O)N'
p290
sg20
F12.0
sg21
g22
(g23
(I0
tp291
g25
tp292
Rp293
(I1
(I2
tp294
g31
I00
S'\x9c+T\xe8z\x13\x0e\xc0N\xcb\xba\xda\x8d\xb0\xa4?'
p295
tp296
bsg36
S''
p297
sg38
(lp298
g5
(g9
S'U"\x1a}\xcf\x13\x0e\xc0'
p299
tp300
Rp301
ag5
(g9
S'N\xcb\xba\xda\x8d\xb0\xa4?'
p302
tp303
Rp304
asg46
(lp305
g5
(g9
S'\x9d\x0f\xb84\xd5\x13\x0e\xc0'
p306
tp307
Rp308
ag304
asg51
F3.97
sg52
(lp309
F2.92
aF3.97
aF-0.4
aF-0.69
aF-1.84
aF-2.3
asg54
(lp310
g5
(g9
S'\x141Bl\x17\xe8V@'
p311
tp312
Rp313
ag5
(g9
S'\xb0\x0c\xc5\xfei\x92\xc5?'
p314
tp315
Rp316
asg62
(lp317
g301
ag304
asg67
(lp318
F14.06
aF12.6
aF12.0
aF13.04
aF13.04
asg69
(lp319
g5
(g9
S'\xf4M}\xa0\x80\x13\x0e\xc0'
p320
tp321
Rp322
ag304
assS'SAMPL5_075'
p323
(dp324
g3
(lp325
g5
(g9
S'=/\xd8\xeb\xc5\xfaL@'
p326
tp327
Rp328
ag5
(g9
S'\xd7\xaf\x8f\x01C\x0e\xc9?'
p329
tp330
Rp331
asg18
S'CC(C)NC[C@@H](COc1ccc(cc1)CCOC)O'
p332
sg20
F13.32
sg21
g22
(g23
(I0
tp333
g25
tp334
Rp335
(I1
(I2
tp336
g31
I00
S'\x05\xe5\xa7\x8c\xdd\xd8\x04@\xd3D\xcf\xb5\x05\xaf\xa6?'
p337
tp338
bsg36
g297
sg38
(lp339
g5
(g9
S'\x104\xdb\xe1[\xfe\xe7?'
p340
tp341
Rp342
ag5
(g9
S'\xd3D\xcf\xb5\x05\xaf\xa6?'
p343
tp344
Rp345
asg46
(lp346
g5
(g9
S'u\xa8\xf3\xdd[\xfe\xe7?'
p347
tp348
Rp349
ag345
asg51
F9.25
sg52
(lp350
F9.25
aF-1.29
asg54
(lp351
g5
(g9
S'\x92w\x99,\xd8\x8aE@'
p352
tp353
Rp354
ag5
(g9
S'\xc5j5\xedx~\xc4?'
p355
tp356
Rp357
asg62
(lp358
g342
ag345
asg67
(lp359
F13.32
asg69
(lp360
g5
(g9
S'\xd5k\x93F\xdd\xd8\x04@'
p361
tp362
Rp363
ag345
assS'SAMPL5_050'
p364
(dp365
g3
(lp366
g5
(g9
S'6D\xa0\xa4\x90bK@'
p367
tp368
Rp369
ag5
(g9
S'\x8a\xe0\xa3\x82%\xea\xc2?'
p370
tp371
Rp372
asg18
S'Cc1ccc2c(n1)nn3c2nc(cc3O)C'
p373
sg20
F-3.58
sg21
g22
(g23
(I0
tp374
g25
tp375
Rp376
(I1
(I2
tp377
g31
I00
S'\x10\x1d\xa5\x9f\xa31\xf3?\xac\x927\x83u\xea\xa3?'
p378
tp379
bsg36
S'5663556'
p380
sg38
(lp381
g5
(g9
S'\xb1\x19\xe5]\x971\xf3?'
p382
tp383
Rp384
ag5
(g9
S'\xac\x927\x83u\xea\xa3?'
p385
tp386
Rp387
asg46
(lp388
g5
(g9
S'T\x8fg\x1b\x8e\x8f#\xc0'
p389
tp390
Rp391
ag387
asg51
F2.83
sg52
(lp392
F0.35
aF2.83
asg54
(lp393
g5
(g9
S'r\xe4r\xfe\x17\xf6G@'
p394
tp395
Rp396
ag5
(g9
S'\x0e\x16\xfd\x0b)6\xc5?'
p397
tp398
Rp399
asg62
(lp400
g5
(g9
S'T\x8fg\x1b\x8e\x8f#\xc0'
p401
tp402
Rp403
ag387
asg67
(lp404
F-3.58
asg69
(lp405
g403
ag387
assS'SAMPL5_056'
p406
(dp407
g3
(lp408
g5
(g9
S'\xad\x11%\x9e\xbe\xefK@'
p409
tp410
Rp411
ag5
(g9
S'7P\xb5l"\xd8\xc4?'
p412
tp413
Rp414
asg18
S'CC(C)[C@@H]1Cc2c(cc(c(n2)O)C#N)CO1'
p415
sg20
F3.26
sg21
g22
(g23
(I0
tp416
g25
tp417
Rp418
(I1
(I2
tp419
g31
I00
S'\xa6\xb7{I\x91\x89\x05@\x15\xbf)^\xa6$\xa1?'
p420
tp421
bsg36
g297
sg38
(lp422
g5
(g9
S'\xd8\xbf\x0fE\x91\x89\x05@'
p423
tp424
Rp425
ag5
(g9
S'\x15\xbf)^\xa6$\xa1?'
p426
tp427
Rp428
asg46
(lp429
g5
(g9
S'\x8d\x9a\x0b\x0eo*\xf7\xbf'
p430
tp431
Rp432
ag428
asg51
F0.28
sg52
(lp433
F0.28
asg54
(lp434
g5
(g9
S'C\xe74\x01\xc7@D@'
p435
tp436
Rp437
ag5
(g9
S'Sh\x10\x0e4\x9c\xb9?'
p438
tp439
Rp440
asg62
(lp441
g5
(g9
S'\x91p\x0b\x0eo*\xf7\xbf'
p442
tp443
Rp444
ag428
asg67
(lp445
F3.26
asg69
(lp446
g444
ag428
assS'SAMPL5_071'
p447
(dp448
g3
(lp449
g5
(g9
S'\x87?,\xcb\xdd\x96M@'
p450
tp451
Rp452
ag5
(g9
S'\x0b?\x82\x89=\x98\xc7?'
p453
tp454
Rp455
asg18
S'CCOc1cc(c(cc1N2CCOCC2)OCC)N'
p456
sg20
F15.55
sg21
g22
(g23
(I0
tp457
g25
tp458
Rp459
(I1
(I2
tp460
g31
I00
S'\x00z\xc5~\x9f%\xe9?\xbf\xbd\xc6\x03\xf3\xd2\xa3?'
p461
tp462
bsg36
g297
sg38
(lp463
g5
(g9
S'\xec\x7f\xba\xe5#$\xe9?'
p464
tp465
Rp466
ag5
(g9
S'\xbf\xbd\xc6\x03\xf3\xd2\xa3?'
p467
tp468
Rp469
asg46
(lp470
g5
(g9
S'4\x1c\x14\xe4#$\xe9?'
p471
tp472
Rp473
ag469
asg51
F4.02
sg52
(lp474
F4.02
aF3.98
asg54
(lp475
g5
(g9
S'\xed\xed_\xd5\xb5XK@'
p476
tp477
Rp478
ag5
(g9
S'\xfbf\xb9X]6\xbf?'
p479
tp480
Rp481
asg62
(lp482
g466
ag469
asg67
(lp483
F15.55
aF15.55
asg69
(lp484
g5
(g9
S'4\xe9\x1e}\x9f%\xe9?'
p485
tp486
Rp487
ag469
assS'SAMPL5_072'
p488
(dp489
g3
(lp490
g5
(g9
S'\x1c\xb4\xd4(\xfbJJ@'
p491
tp492
Rp493
ag5
(g9
S'H]H\x9e\xbe\x97\xc8?'
p494
tp495
Rp496
asg18
S'CN(C)CCOC(c1ccccc1)c2ccccc2'
p497
sg20
Nsg21
g22
(g23
(I0
tp498
g25
tp499
Rp500
(I1
(I2
tp501
g31
I00
S'7Z\x19\x1a\xe0R\x0c@:\x96:\x03V@\xa5?'
p502
tp503
bsg36
g297
sg38
(lp504
g5
(g9
S'\x08\x84\x84\xb6\x07\t\x03@'
p505
tp506
Rp507
ag5
(g9
S':\x96:\x03V@\xa5?'
p508
tp509
Rp510
asg46
(lp511
g5
(g9
S'\x08\x84\x84\xb6\x07\t\x03@'
p512
tp513
Rp514
ag510
asg51
F8.53
sg52
(lp515
F8.53
asg54
(lp516
g5
(g9
S'\xb9\x9e\xb1\x87:0@@'
p517
tp518
Rp519
ag5
(g9
S'\x01}o\x8bh\xbe\xc1?'
p520
tp521
Rp522
asg62
(lp523
g507
ag510
asg67
(lp524
sg69
(lp525
g5
(g9
S'7Z\x19\x1a\xe0R\x0c@'
p526
tp527
Rp528
ag510
assS'SAMPL5_019'
p529
(dp530
g3
(lp531
g5
(g9
S'\xa3}2\x82V\xcfQ@'
p532
tp533
Rp534
ag5
(g9
S'\xb9&\xc5M\xab\x07\xc8?'
p535
tp536
Rp537
asg18
S'Cc1ccc(cc1)Nc2ccnc(n2)Nc3ccc(cc3)C'
p538
sg20
F13.18
sg21
g22
(g23
(I0
tp539
g25
tp540
Rp541
(I1
(I2
tp542
g31
I00
S'\x9c.\xec4\xbd\x11\x07@\xd7"\x90\x03F\xf6\xa3?'
p543
tp544
bsg36
S'43423819'
p545
sg38
(lp546
g5
(g9
S'Ck,*\n\x08\x07@'
p547
tp548
Rp549
ag5
(g9
S'\xd7"\x90\x03F\xf6\xa3?'
p550
tp551
Rp552
asg46
(lp553
g5
(g9
S'\xadE|\xca\t\x08\x07@'
p554
tp555
Rp556
ag552
asg51
F5.44
sg52
(lp557
F-2.3
aF-1.51
aF5.44
aF3.76
asg54
(lp558
g5
(g9
S'p#y\x1f\xcdcK@'
p559
tp560
Rp561
ag5
(g9
S']\x86A1#\x98\xbe?'
p562
tp563
Rp564
asg62
(lp565
g549
ag552
asg67
(lp566
F13.24
aF13.18
asg69
(lp567
g5
(g9
S'\xc9p/\xd4\xbc\x11\x07@'
p568
tp569
Rp570
ag552
assS'SAMPL5_015'
p571
(dp572
g3
(lp573
g5
(g9
S'9\xa7\x84\xb1\x98\xa8K@'
p574
tp575
Rp576
ag5
(g9
S'L5z;\x90\xd1\xc2?'
p577
tp578
Rp579
asg18
S'Cc1ccc2c(c1)c(ncn2)NCC(=O)O'
p580
sg20
F4.44
sg21
g22
(g23
(I0
tp581
g25
tp582
Rp583
(I1
(I2
tp584
g31
I00
S"\xcb\xa5\xbf\xd7\x0f\xdd\xea\xbf\xf8+\xcd\x87\x9d'\xa0?"
p585
tp586
bsg36
S'1355949'
p587
sg38
(lp588
g5
(g9
S'\xff\xba\xbf\xb7Z7\xeb\xbf'
p589
tp590
Rp591
ag5
(g9
S"\xf8+\xcd\x87\x9d'\xa0?"
p592
tp593
Rp594
asg46
(lp595
g5
(g9
S'v\xfb\x8c`Xf\x0e\xc0'
p596
tp597
Rp598
ag594
asg51
F5.81
sg52
(lp599
F-1.33
aF3.87
aF5.81
asg54
(lp600
g5
(g9
S'w\xcd\x90\xee\xf1\rN@'
p601
tp602
Rp603
ag5
(g9
S'v\xb9\x16l^\xa1\xba?'
p604
tp605
Rp606
asg62
(lp607
g5
(g9
S'R\x88\x89\xf7Qf\x0e\xc0'
p608
tp609
Rp610
ag594
asg67
(lp611
F4.44
aF12.6
asg69
(lp612
g610
ag594
assS'SAMPL5_065'
p613
(dp614
g3
(lp615
g5
(g9
S'C\xb4\x15\x0c<\xa3`@'
p616
tp617
Rp618
ag5
(g9
S'\xbf0zB\xf5\xe2\xd3?'
p619
tp620
Rp621
asg18
S'COc1ccc2c(c1)[nH]c3c2CC[N@]4[C@@H]3C[C@H]5[C@@H](C4)C[C@H]([C@@H]([C@H]5C(=O)OC)OC)OC(=O)c6cc(c(c(c6)OC)OC)OC'
p622
sg20
Nsg21
g22
(g23
(I0
tp623
g25
tp624
Rp625
(I1
(I2
tp626
g31
I00
S'\x90\xact\x8aJ\xc9\x05@t\xbeL\x19\x87*\xb0?'
p627
tp628
bsg36
g297
sg38
(lp629
g5
(g9
S'\xca\xd8a[no\xfe?'
p630
tp631
Rp632
ag5
(g9
S't\xbeL\x19\x87*\xb0?'
p633
tp634
Rp635
asg46
(lp636
g5
(g9
S'\xca\xd8a[no\xfe?'
p637
tp638
Rp639
ag635
asg51
F8.15
sg52
(lp640
F-1.05
aF8.15
asg54
(lp641
g5
(g9
S'\xc2K\x83h\x9ec]@'
p642
tp643
Rp644
ag5
(g9
S']H\xc6\xd9gb\xc7?'
p645
tp646
Rp647
asg62
(lp648
g632
ag635
asg67
(lp649
sg69
(lp650
g5
(g9
S'\x90\xact\x8aJ\xc9\x05@'
p651
tp652
Rp653
ag635
assS'SAMPL5_085'
p654
(dp655
g3
(lp656
g5
(g9
S'\xb3,\xa9={\xc1L@'
p657
tp658
Rp659
ag5
(g9
S'F\xa7\xda\xda\x01I\xc5?'
p660
tp661
Rp662
asg18
S'c1ccc(cc1)C2(C(=O)NC(=O)N2)c3ccccc3'
p663
sg20
F7.8
sg21
g22
(g23
(I0
tp664
g25
tp665
Rp666
(I1
(I2
tp667
g31
I00
S'\xa9\x05\x93~iC\x00\xc0\xc6\xe6\xb7\x1a\xa0\xee\xa1?'
p668
tp669
bsg36
g297
sg38
(lp670
g5
(g9
S'\rb\xb3nkC\x00\xc0'
p671
tp672
Rp673
ag5
(g9
S'\xc6\xe6\xb7\x1a\xa0\xee\xa1?'
p674
tp675
Rp676
asg46
(lp677
g5
(g9
S'\xc9\x9a\xb8\xff{m\x01\xc0'
p678
tp679
Rp680
ag676
asg51
F2.33
sg52
(lp681
F2.33
asg54
(lp682
g5
(g9
S'\xcf\xa3\x93\xddcGQ@'
p683
tp684
Rp685
ag5
(g9
S'\xe0\x1bF\x95Sh\xbc?'
p686
tp687
Rp688
asg62
(lp689
g5
(g9
S'=j\xdd\x9czm\x01\xc0'
p690
tp691
Rp692
ag676
asg67
(lp693
F7.8
aF9.9
asg69
(lp694
g692
ag676
assS'SAMPL5_084'
p695
(dp696
g3
(lp697
g5
(g9
S'\xaf=i\x8c{YR@'
p698
tp699
Rp700
ag5
(g9
S'\x80R\x16\xd5x\xdb\xce?'
p701
tp702
Rp703
asg18
S'c1cc(ccc1C(=O)CCCN2CCC(CC2)(c3ccc(cc3)Cl)O)F'
p704
sg20
F15.03
sg21
g22
(g23
(I0
tp705
g25
tp706
Rp707
(I1
(I2
tp708
g31
I00
S'\x99\x0f@\x82\x8b\xe1\t@"\x92\xa6\x07\xae5\xb4?'
p709
tp710
bsg36
g297
sg38
(lp711
g5
(g9
S'@\rN\xe03Q\xfe?'
p712
tp713
Rp714
ag5
(g9
S'"\x92\xa6\x07\xae5\xb4?'
p715
tp716
Rp717
asg46
(lp718
g5
(g9
S'`\x18.\xe03Q\xfe?'
p719
tp720
Rp721
ag717
asg51
F8.72
sg52
(lp722
F8.72
aF-0.08
asg54
(lp723
g5
(g9
S'\xd2$r\xb4LwK@'
p724
tp725
Rp726
ag5
(g9
S'|RH|x]\xd8?'
p727
tp728
Rp729
asg62
(lp730
g714
ag717
asg67
(lp731
F15.03
asg69
(lp732
g5
(g9
S'\xd7?\xe2\x80\x8b\xe1\t@'
p733
tp734
Rp735
ag717
assS'SAMPL5_086'
p736
(dp737
g3
(lp738
g5
(g9
S'\x8c\xd6\xe5\xa6\x04\x01S@'
p739
tp740
Rp741
ag5
(g9
S'\xc6t\xbe\xb5\xdc\xf5\xcd?'
p742
tp743
Rp744
asg18
S'CCCCOc1cc(c2ccccc2n1)C(=O)NCCN(CC)CC'
p745
sg20
F11.73
sg21
g22
(g23
(I0
tp746
g25
tp747
Rp748
(I1
(I2
tp749
g31
I00
S'\x8b\xc6U\xc9\x0fR\x08@\x15\xc6sZD\x7f\xac?'
p750
tp751
bsg36
g297
sg38
(lp752
g5
(g9
S'\xeb]c\xdf\xb9\xe3\xf8?'
p753
tp754
Rp755
ag5
(g9
S'\x15\xc6sZD\x7f\xac?'
p756
tp757
Rp758
asg46
(lp759
g5
(g9
S'\x19J\xad,\xb9\xe3\xf8?'
p760
tp761
Rp762
ag758
asg51
F8.87
sg52
(lp763
F8.87
aF1.48
aF-1.45
asg54
(lp764
g5
(g9
S'1\xda\x91\xf5\xe2TM@'
p765
tp766
Rp767
ag5
(g9
S'\x1e\xef\xbb2\x16\x7f\xcb?'
p768
tp769
Rp770
asg62
(lp771
g755
ag758
asg67
(lp772
F11.73
asg69
(lp773
g5
(g9
S'\x80E\xf8"\x05R\x08@'
p774
tp775
Rp776
ag758
assS'SAMPL5_081'
p777
(dp778
g3
(lp779
g5
(g9
S'cb\xd4\x18-RM@'
p780
tp781
Rp782
ag5
(g9
S'\xfe#\xae\xc1Y\xb3\xc7?'
p783
tp784
Rp785
asg18
S'CC(C)NC[C@H](COc1ccc(cc1)CC(=O)N)O'
p786
sg20
F12.67
sg21
g22
(g23
(I0
tp787
g25
tp788
Rp789
(I1
(I2
tp790
g31
I00
S'\x98*\xbfq8\xfd\x00\xc0A\xba\x87\x9a^\x0c\xa9?'
p791
tp792
bsg36
g297
sg38
(lp793
g5
(g9
S'\x99B\xf0\x05\x7f\xd6\x0f\xc0'
p794
tp795
Rp796
ag5
(g9
S'A\xba\x87\x9a^\x0c\xa9?'
p797
tp798
Rp799
asg46
(lp800
g5
(g9
S'\x1cvL\n\x7f\xd6\x0f\xc0'
p801
tp802
Rp803
ag799
asg51
F9.25
sg52
(lp804
F9.25
aF-1.29
aF-1.04
asg54
(lp805
g5
(g9
S'\xb2O\x98\x8e\xe1\xb0Q@'
p806
tp807
Rp808
ag5
(g9
S'\x18#\x01o\xaf\xc1\xca?'
p809
tp810
Rp811
asg62
(lp812
g796
ag799
asg67
(lp813
F13.32
aF12.67
aF12.67
asg69
(lp814
g5
(g9
S'~&\xc8\xaa9\xfd\x00\xc0'
p815
tp816
Rp817
ag799
assS'SAMPL5_080'
p818
(dp819
g3
(lp820
g5
(g9
S'T\xc3\x0e\x88\xae J@'
p821
tp822
Rp823
ag5
(g9
S'\x10q\x17\xbe\xd3\xfd\xc0?'
p824
tp825
Rp826
asg18
S'Cn1cnc2c1c(=O)n(c(=O)n2C)C'
p827
sg20
Nsg21
g22
(g23
(I0
tp828
g25
tp829
Rp830
(I1
(I2
tp831
g31
I00
S'^AJN\xa2\r\x0e\xc0\xc1\x9d@\x1d2\x1f\x9e?'
p832
tp833
bsg36
g297
sg38
(lp834
g5
(g9
S'z\x7f\xb0\x84\xa2\r\x0e\xc0'
p835
tp836
Rp837
ag5
(g9
S'\xc1\x9d@\x1d2\x1f\x9e?'
p838
tp839
Rp840
asg46
(lp841
g5
(g9
S'z\x7f\xb0\x84\xa2\r\x0e\xc0'
p842
tp843
Rp844
ag840
asg51
F1.37
sg52
(lp845
F-0.58
aF1.37
aF-1.89
aF-2.49
asg54
(lp846
g5
(g9
S'\xaae\xf9\xba\xb1lR@'
p847
tp848
Rp849
ag5
(g9
S'\x84v\tf\x11R\xba?'
p850
tp851
Rp852
asg62
(lp853
g837
ag840
asg67
(lp854
sg69
(lp855
g5
(g9
S'^AJN\xa2\r\x0e\xc0'
p856
tp857
Rp858
ag840
assS'SAMPL5_083'
p859
(dp860
g3
(lp861
g5
(g9
S'\xdfZ\xa7B\xc4\xa2b@'
p862
tp863
Rp864
ag5
(g9
S't\xa1\xc7\xe2\xc2L\xdc?'
p865
tp866
Rp867
asg18
S'C[C@H]1/C=C/C=C(\\C(=O)NC\\2=C(C3=C(C(=C4C(=C3C(=O)/C2=C/NN5CCN(CC5)C)C(=O)[C@](O4)(O/C=C/[C@@H]([C@H]([C@H]([C@@H]([C@@H]([C@@H]([C@H]1O)C)O)C)OC(=O)C)C)OC)C)C)O)O)/C'
p868
sg20
F7.41
sg21
g22
(g23
(I0
tp869
g25
tp870
Rp871
(I1
(I2
tp872
g31
I00
S'j]x,7S\xf3?R\x19\xfb\xec\x18h\xb7?'
p873
tp874
bsg36
g297
sg38
(lp875
g5
(g9
S'\x8ala/hV\xf1?'
p876
tp877
Rp878
ag5
(g9
S'R\x19\xfb\xec\x18h\xb7?'
p879
tp880
Rp881
asg46
(lp882
g5
(g9
S'\x0bYcO<\x06\xeb?'
p883
tp884
Rp885
ag881
asg51
F6.92
sg52
(lp886
F-2.66
aF0.65
aF6.92
aF-0.08
aF0.28
aF-1.3
aF-0.76
asg54
(lp887
g5
(g9
S'\x1ae5\xca&\xc6a@'
p888
tp889
Rp890
ag5
(g9
S'7\xa2\xb0\xe4\xda\xbd\xd1?'
p891
tp892
Rp893
asg62
(lp894
g5
(g9
S'?\xab$\x17\x1e-\xed?'
p895
tp896
Rp897
ag881
asg67
(lp898
F14.92
aF15.38
aF8.92
aF7.41
aF8.11
asg69
(lp899
g897
ag881
assS'SAMPL5_082'
p900
(dp901
g3
(lp902
g5
(g9
S'oJ\xfeNc\xeeQ@'
p903
tp904
Rp905
ag5
(g9
S'.T\x1c\xae\xd7\xf7\xcf?'
p906
tp907
Rp908
asg18
S'CC/C(=C(\\c1ccccc1)/c2ccc(cc2)OCCN(C)C)/c3ccccc3'
p909
sg20
Nsg21
g22
(g23
(I0
tp910
g25
tp911
Rp912
(I1
(I2
tp913
g31
I00
S'\xd2\xd8\x14\xc9\xc4<\x1a@\xf9;\x93\xb2\x80\xac\xaa?'
p914
tp915
bsg36
g297
sg38
(lp916
g5
(g9
S'~S\x93r8.\x16@'
p917
tp918
Rp919
ag5
(g9
S'\xf9;\x93\xb2\x80\xac\xaa?'
p920
tp921
Rp922
asg46
(lp923
g5
(g9
S'~S\x93r8.\x16@'
p924
tp925
Rp926
ag922
asg51
F8.37
sg52
(lp927
F8.37
asg54
(lp928
g5
(g9
S'\xa2\xa6\xbd@[$A@'
p929
tp930
Rp931
ag5
(g9
S'\xff\xa83\xb26\xa9\xc4?'
p932
tp933
Rp934
asg62
(lp935
g919
ag922
asg67
(lp936
sg69
(lp937
g5
(g9
S'\xd2\xd8\x14\xc9\xc4<\x1a@'
p938
tp939
Rp940
ag922
assS'SAMPL5_007'
p941
(dp942
g3
(lp943
g5
(g9
S'\x030\x82\x7fy\xb6P@'
p944
tp945
Rp946
ag5
(g9
S'\xa3}\x99\x16>\x0c\xc7?'
p947
tp948
Rp949
asg18
S'c1ccc(cc1)CCNc2c3cc(ccc3ncn2)Br'
p950
sg20
F13.97
sg21
g22
(g23
(I0
tp951
g25
tp952
Rp953
(I1
(I2
tp954
g31
I00
S'\x9f5P\xafr\x91\x12@\x05\x0f\xf3;\x12R\xa3?'
p955
tp956
bsg36
S'1373587'
p957
sg38
(lp958
g5
(g9
S'\xcb\n\x89j\xca\x90\x12@'
p959
tp960
Rp961
ag5
(g9
S'\x05\x0f\xf3;\x12R\xa3?'
p962
tp963
Rp964
asg46
(lp965
g5
(g9
S'B\xd2\xb3b\xca\x90\x12@'
p966
tp967
Rp968
ag964
asg51
F4.57
sg52
(lp969
F-0.04
aF4.57
aF3.47
asg54
(lp970
g5
(g9
S'{\x95\xbcN\\-D@'
p971
tp972
Rp973
ag5
(g9
S'\xdf\x18\x91V\xccB\xbe?'
p974
tp975
Rp976
asg62
(lp977
g961
ag964
asg67
(lp978
F13.97
asg69
(lp979
g5
(g9
S'\xce\x05x\xa7r\x91\x12@'
p980
tp981
Rp982
ag964
assS'SAMPL5_027'
p983
(dp984
g3
(lp985
g5
(g9
S'\x7f\xac\x1b\xc6q\xb2J@'
p986
tp987
Rp988
ag5
(g9
S'[8\xd3\xd5\xf7\xf4\xc1?'
p989
tp990
Rp991
asg18
S'c1ccc(cc1)CNc2ncnc(n2)N'
p992
sg20
F12.98
sg21
g22
(g23
(I0
tp993
g25
tp994
Rp995
(I1
(I2
tp996
g31
I00
S'\x07~\xb4=4\xb6\x01\xc0\xec\x15}\xc2CY\x9f?'
p997
tp998
bsg36
S'2483781'
p999
sg38
(lp1000
g5
(g9
S'>\x1c\x9a\xb6\xd1\xb6\x01\xc0'
p1001
tp1002
Rp1003
ag5
(g9
S'\xec\x15}\xc2CY\x9f?'
p1004
tp1005
Rp1006
asg46
(lp1007
g5
(g9
S'#m\xd0O\xd2\xb6\x01\xc0'
p1008
tp1009
Rp1010
ag1006
asg51
F4.24
sg52
(lp1011
F4.24
aF4.05
aF1.14
aF-2.02
aF-0.84
asg54
(lp1012
g5
(g9
S'\x8b/\x8f\xfe\x02\x82P@'
p1013
tp1014
Rp1015
ag5
(g9
S'&\x90\xf6\x02\xfb\xab\xba?'
p1016
tp1017
Rp1018
asg62
(lp1019
g1003
ag1006
asg67
(lp1020
F12.98
aF13.39
aF13.39
asg69
(lp1021
g5
(g9
S'\x87\xf1\x05\xd74\xb6\x01\xc0'
p1022
tp1023
Rp1024
ag1006
assS'SAMPL5_026'
p1025
(dp1026
g3
(lp1027
g5
(g9
S'\xc3\xd8vx0TH@'
p1028
tp1029
Rp1030
ag5
(g9
S'\x05|\xe8*Cw\xc5?'
p1031
tp1032
Rp1033
asg18
S'Cc1cc(c2c(c1)c(c([nH]2)C)CC(=O)O)C'
p1034
sg20
F4.23
sg21
g22
(g23
(I0
tp1035
g25
tp1036
Rp1037
(I1
(I2
tp1038
g31
I00
S'y\xf6n\x07\xd8m\xfb\xbf\x0f\x18$\xa24\x9e\xa4?'
p1039
tp1040
bsg36
S'703690'
p1041
sg38
(lp1042
g5
(g9
S'u\xccy\x07\xd8m\xfb\xbf'
p1043
tp1044
Rp1045
ag5
(g9
S'\x0f\x18$\xa24\x9e\xa4?'
p1046
tp1047
Rp1048
asg46
(lp1049
g5
(g9
S'\x04k\x86n\xd7\x89\x13\xc0'
p1050
tp1051
Rp1052
ag1048
asg51
F-2.04
sg52
(lp1053
F-2.04
asg54
(lp1054
g5
(g9
S'#9MG\xb68M@'
p1055
tp1056
Rp1057
ag5
(g9
S'\x8fp7|\n\x1f\xc4?'
p1058
tp1059
Rp1060
asg62
(lp1061
g5
(g9
S'\x8cj\x86n\xd7\x89\x13\xc0'
p1062
tp1063
Rp1064
ag1048
asg67
(lp1065
F4.23
aF16.57
asg69
(lp1066
g1064
ag1048
assS'SAMPL5_024'
p1067
(dp1068
g3
(lp1069
g5
(g9
S'\xcd\x1cQ\xd2\x10\xfeS@'
p1070
tp1071
Rp1072
ag5
(g9
S'm\xad\x14\xa6\xc4Q\xca?'
p1073
tp1074
Rp1075
asg18
S'Cc1ccc2c(c1)cc3cc(sc3n2)C(=O)Nc4ccc(c(c4)C)C'
p1076
sg20
F11.15
sg21
g22
(g23
(I0
tp1077
g25
tp1078
Rp1079
(I1
(I2
tp1080
g31
I00
S'\x10\x85\x00|x\xa1\xdf?\xa9\xd3\x88$\xac)\xa6?'
p1081
tp1082
bsg36
S'16329490'
p1083
sg38
(lp1084
g5
(g9
S'\xb2\xf5/T)\xd7\xde?'
p1085
tp1086
Rp1087
ag5
(g9
S'\xa9\xd3\x88$\xac)\xa6?'
p1088
tp1089
Rp1090
asg46
(lp1091
g5
(g9
S'3\x90\xef\x82\xee\xd5\xde?'
p1092
tp1093
Rp1094
ag1090
asg51
F5.86
sg52
(lp1095
F5.86
aF-0.3
asg54
(lp1096
g5
(g9
S'\x97\xd4]i\x84IS@'
p1097
tp1098
Rp1099
ag5
(g9
S'\xcd\xde\xfc\xcf:\x89\xc1?'
p1100
tp1101
Rp1102
asg62
(lp1103
g1087
ag1090
asg67
(lp1104
F11.15
asg69
(lp1105
g5
(g9
S'\x88R\x9f\x964\xa0\xdf?'
p1106
tp1107
Rp1108
ag1090
assS'SAMPL5_021'
p1109
(dp1110
g3
(lp1111
g5
(g9
S"\x7f\x10Yfb'M@"
p1112
tp1113
Rp1114
ag5
(g9
S'C\x9eG\xa6\xf2\xed\xc4?'
p1115
tp1116
Rp1117
asg18
S'Cc1nn2cc(nc2s1)c3cccc(c3)OC'
p1118
sg20
Nsg21
g22
(g23
(I0
tp1119
g25
tp1120
Rp1121
(I1
(I2
tp1122
g31
I00
S'\x01y\x11i\xe0l\n@>>I\xe8\x9dl\xa1?'
p1123
tp1124
bsg36
S'31467689'
p1125
sg38
(lp1126
g5
(g9
S'wo\x8a\xaf\xefi\n@'
p1127
tp1128
Rp1129
ag5
(g9
S'>>I\xe8\x9dl\xa1?'
p1130
tp1131
Rp1132
asg46
(lp1133
g5
(g9
S'wo\x8a\xaf\xefi\n@'
p1134
tp1135
Rp1136
ag1132
asg51
F4.92
sg52
(lp1137
F-1.08
aF4.92
asg54
(lp1138
g5
(g9
S'\x10C,\x1d\x03\xbaC@'
p1139
tp1140
Rp1141
ag5
(g9
S'{\xac\xbft\xff\xd8\xba?'
p1142
tp1143
Rp1144
asg62
(lp1145
g1129
ag1132
asg67
(lp1146
sg69
(lp1147
g5
(g9
S'\x01y\x11i\xe0l\n@'
p1148
tp1149
Rp1150
ag1132
assS'SAMPL5_020'
p1151
(dp1152
g3
(lp1153
g5
(g9
S'\x9d\xd6\xc3H\xcf\xa4M@'
p1154
tp1155
Rp1156
ag5
(g9
S'?\x8d\xa5\xd9\x03\x94\xc7?'
p1157
tp1158
Rp1159
asg18
S'CCCC(=O)Nc1nc2ccc(cc2s1)C(C)C'
p1160
sg20
F9.74
sg21
g22
(g23
(I0
tp1161
g25
tp1162
Rp1163
(I1
(I2
tp1164
g31
I00
S'\xe5\xbd\x99\x9c\xc8\xcd\x0e\xc0H\x80\xc9@kh\xa4?'
p1165
tp1166
bsg36
S'5522978'
p1167
sg38
(lp1168
g5
(g9
S'\xb5\x96&\xa9\xcc\xcd\x0e\xc0'
p1169
tp1170
Rp1171
ag5
(g9
S'H\x80\xc9@kh\xa4?'
p1172
tp1173
Rp1174
asg46
(lp1175
g5
(g9
S'\x93$&\n\xdb\xd1\x0e\xc0'
p1176
tp1177
Rp1178
ag1174
asg51
F2.65
sg52
(lp1179
F2.65
aF-0.36
asg54
(lp1180
g5
(g9
S'sG\xc4o\x08QT@'
p1181
tp1182
Rp1183
ag5
(g9
S'\x11\x94\r\x14\xc4\x17\xc1?'
p1184
tp1185
Rp1186
asg62
(lp1187
g5
(g9
S'c\xaeP\x02\xd7\xd1\x0e\xc0'
p1188
tp1189
Rp1190
ag1174
asg67
(lp1191
F9.74
asg69
(lp1192
g1190
ag1174
assS'SAMPL5_049'
p1193
(dp1194
g3
(lp1195
g5
(g9
S'ml\xb9\xa5\xd0\x8dJ@'
p1196
tp1197
Rp1198
ag5
(g9
S'%\xf8V?iV\xc4?'
p1199
tp1200
Rp1201
asg18
S'c1cc(c(c(c1)Cl)Cl)NC(=O)c2ccno2'
p1202
sg20
F10.75
sg21
g22
(g23
(I0
tp1203
g25
tp1204
Rp1205
(I1
(I2
tp1206
g31
I00
S'?Z\xa2\xc9H\x9f\x01@zv\x1a\xdb\xd6\x14\xa1?'
p1207
tp1208
bsg36
S'5627856'
p1209
sg38
(lp1210
g5
(g9
S'Vd\x7f\xc8H\x9f\x01@'
p1211
tp1212
Rp1213
ag5
(g9
S'zv\x1a\xdb\xd6\x14\xa1?'
p1214
tp1215
Rp1216
asg46
(lp1217
g5
(g9
S'\xc7\xde\x1d\x19\xe3\x9e\x01@'
p1218
tp1219
Rp1220
ag1216
asg51
F-0.31
sg52
(lp1221
F-0.31
asg54
(lp1222
g5
(g9
S'\xfd\x96\x0c\xa6iDD@'
p1223
tp1224
Rp1225
ag5
(g9
S'\x17\x15\xd5ub\xdf\xba?'
p1226
tp1227
Rp1228
asg62
(lp1229
g5
(g9
S'n\xb3@\x1a\xe3\x9e\x01@'
p1230
tp1231
Rp1232
ag1216
asg67
(lp1233
F10.75
asg69
(lp1234
g1232
ag1216
assS'SAMPL5_004'
p1235
(dp1236
g3
(lp1237
g5
(g9
S'@\x87Z7\xa8wP@'
p1238
tp1239
Rp1240
ag5
(g9
S'\xff\x8e\xca\xf3p\x94\xc7?'
p1241
tp1242
Rp1243
asg18
S'CCOc1ccc(cc1)Nc2cc(c3ccccc3n2)C'
p1244
sg20
F13.92
sg21
g22
(g23
(I0
tp1245
g25
tp1246
Rp1247
(I1
(I2
tp1248
g31
I00
S'\xe5\x06\\\xe5\xd1\xfe\x11@\xc3\x91KSp\x99\xa3?'
p1249
tp1250
bsg36
S'1221528'
p1251
sg38
(lp1252
g5
(g9
S'r\xfc\xee<\x8d\xd1\x11@'
p1253
tp1254
Rp1255
ag5
(g9
S'\xc3\x91KSp\x99\xa3?'
p1256
tp1257
Rp1258
asg46
(lp1259
g5
(g9
S'~\xd5\xfb4\x8d\xd1\x11@'
p1260
tp1261
Rp1262
ag1258
asg51
F6.43
sg52
(lp1263
F-0.09
aF6.43
asg54
(lp1264
g5
(g9
S'\xeaA0EX\x18D@'
p1265
tp1266
Rp1267
ag5
(g9
S'+\xea\xe1V\xc3\x14\xbe?'
p1268
tp1269
Rp1270
asg62
(lp1271
g1255
ag1258
asg67
(lp1272
F13.92
asg69
(lp1273
g5
(g9
S'\xe9\xcd\x8e\xdc\xd1\xfe\x11@'
p1274
tp1275
Rp1276
ag1258
assS'SAMPL5_061'
p1277
(dp1278
g3
(lp1279
g5
(g9
S'V\xb33\x96xgG@'
p1280
tp1281
Rp1282
ag5
(g9
S'$\xd8\xce\xf0!\xe4\xc3?'
p1283
tp1284
Rp1285
asg18
S'Cc1nccc(n1)[C@@]2(CNCCO2)C'
p1286
sg20
Nsg21
g22
(g23
(I0
tp1287
g25
tp1288
Rp1289
(I1
(I2
tp1290
g31
I00
S"\xf0\xadT\xfc\xf9P\xfe?'|\\\xfd\t\xbc\xa2?"
p1291
tp1292
bsg36
S'43241882'
p1293
sg38
(lp1294
g5
(g9
S'\xd4\n4\x07\x83z\xf6?'
p1295
tp1296
Rp1297
ag5
(g9
S"'|\\\xfd\t\xbc\xa2?"
p1298
tp1299
Rp1300
asg46
(lp1301
g5
(g9
S'\xd4\n4\x07\x83z\xf6?'
p1302
tp1303
Rp1304
ag1300
asg51
F7.72
sg52
(lp1305
F7.72
aF2.55
aF2.72
asg54
(lp1306
g5
(g9
S'[\xd7\xb4\xfd\x1a\xffA@'
p1307
tp1308
Rp1309
ag5
(g9
S"'\xce\x05\x11\xbc\xdc\xc1?"
p1310
tp1311
Rp1312
asg62
(lp1313
g1297
ag1300
asg67
(lp1314
sg69
(lp1315
g5
(g9
S'\xf0\xadT\xfc\xf9P\xfe?'
p1316
tp1317
Rp1318
ag1300
assS'SAMPL5_060'
p1319
(dp1320
g3
(lp1321
g5
(g9
S'\x91\xaa\x95v\x90\x88J@'
p1322
tp1323
Rp1324
ag5
(g9
S'\x8d\x83\n\x7f\xecY\xc2?'
p1325
tp1326
Rp1327
asg18
S'c1ccc2c(c1)c3cc(ncc3[nH]2)C(=O)O'
p1328
sg20
F3.75
sg21
g22
(g23
(I0
tp1329
g25
tp1330
Rp1331
(I1
(I2
tp1332
g31
I00
S'\x1e\x8b\x80\xbeD\x95\r\xc0_\xfc[\xea\xd5\xa8\x9f?'
p1333
tp1334
bsg36
S'42618372'
p1335
sg38
(lp1336
g5
(g9
S'\xf3\xac\xfb;\xe8\xb2\r\xc0'
p1337
tp1338
Rp1339
ag5
(g9
S'_\xfc[\xea\xd5\xa8\x9f?'
p1340
tp1341
Rp1342
asg46
(lp1343
g5
(g9
S'\x12\xb0\xe9QVd\x1d\xc0'
p1344
tp1345
Rp1346
ag1342
asg51
F5.93
sg52
(lp1347
F5.93
asg54
(lp1348
g5
(g9
S'#tOR*\x8bR@'
p1349
tp1350
Rp1351
ag5
(g9
S'\xdd21\x17\xfeW\xba?'
p1352
tp1353
Rp1354
asg62
(lp1355
g5
(g9
S'G+\xe0tUd\x1d\xc0'
p1356
tp1357
Rp1358
ag1342
asg67
(lp1359
F3.75
aF15.88
asg69
(lp1360
g1358
ag1342
assS'SAMPL5_067'
p1361
(dp1362
g3
(lp1363
g5
(g9
S'\xc2\xbbU\xcbK\xfbJ@'
p1364
tp1365
Rp1366
ag5
(g9
S'\x94\x0f\xab\xc9a\x8b\xc8?'
p1367
tp1368
Rp1369
asg18
S'CC(C)NC[C@@H](COc1cccc2c1cccc2)O'
p1370
sg20
F13.32
sg21
g22
(g23
(I0
tp1371
g25
tp1372
Rp1373
(I1
(I2
tp1374
g31
I00
S'\xeb\x05\xa6~\xd4g\x06@\xf06X\xf1\x1fC\xa9?'
p1375
tp1376
bsg36
g297
sg38
(lp1377
g5
(g9
S'\xa8\xb7\xd3\xa97:\xee?'
p1378
tp1379
Rp1380
ag5
(g9
S'\xf06X\xf1\x1fC\xa9?'
p1381
tp1382
Rp1383
asg46
(lp1384
g5
(g9
S'\r,\xec\xa57:\xee?'
p1385
tp1386
Rp1387
ag1383
asg51
F9.25
sg52
(lp1388
F9.25
aF-1.29
asg54
(lp1389
g5
(g9
S'\xd8\xa96^\t\xfdB@'
p1390
tp1391
Rp1392
ag5
(g9
S'>q\xc2T&g\xca?'
p1393
tp1394
Rp1395
asg62
(lp1396
g1380
ag1383
asg67
(lp1397
F13.32
asg69
(lp1398
g5
(g9
S'\xbb\x8c\x918\xd4g\x06@'
p1399
tp1400
Rp1401
ag1383
assS'SAMPL5_003'
p1402
(dp1403
g3
(lp1404
g5
(g9
S'\xabR^G\xd1\x04J@'
p1405
tp1406
Rp1407
ag5
(g9
S'\x9b<&\xbc\xd0\x11\xc4?'
p1408
tp1409
Rp1410
asg18
S'c1ccc2c(c1)c(=O)oc(n2)c3ccccc3F'
p1411
sg20
Nsg21
g22
(g23
(I0
tp1412
g25
tp1413
Rp1414
(I1
(I2
tp1415
g31
I00
S'\xfc\x05\x8f/\xa2\x9c\xff?\xb7\x96\x8d\x9dA\xa5\xa0?'
p1416
tp1417
bsg36
S'1231787'
p1418
sg38
(lp1419
g5
(g9
S'\xf4\xc5\xde\xa6\x91\x9c\xff?'
p1420
tp1421
Rp1422
ag5
(g9
S'\xb7\x96\x8d\x9dA\xa5\xa0?'
p1423
tp1424
Rp1425
asg46
(lp1426
g5
(g9
S'\xf4\xc5\xde\xa6\x91\x9c\xff?'
p1427
tp1428
Rp1429
ag1425
asg51
F2.96
sg52
(lp1430
F2.96
aF-1.86
asg54
(lp1431
g5
(g9
S'\xf4\xda}\xe1JaD@'
p1432
tp1433
Rp1434
ag5
(g9
S'\xe3\xb7\xce\xf3#i\xb9?'
p1435
tp1436
Rp1437
asg62
(lp1438
g1422
ag1425
asg67
(lp1439
sg69
(lp1440
g5
(g9
S'\xfc\x05\x8f/\xa2\x9c\xff?'
p1441
tp1442
Rp1443
ag1425
assS'SAMPL5_002'
p1444
(dp1445
g3
(lp1446
g5
(g9
S'\xa8\xc5\x06\x07?\x9aM@'
p1447
tp1448
Rp1449
ag5
(g9
S']\xdeU\xd0#\x12\xc6?'
p1450
tp1451
Rp1452
asg18
S'CCOC(=O)c1c(c2c(c(c(nc2s1)C)C)C)N'
p1453
sg20
F11.05
sg21
g22
(g23
(I0
tp1454
g25
tp1455
Rp1456
(I1
(I2
tp1457
g31
I00
S'\xd5\x10\xe09\xc0L\x01@\x95\x08\x87\xce\nE\xa2?'
p1458
tp1459
bsg36
S'1254130'
p1460
sg38
(lp1461
g5
(g9
S'y\xd7^\xf2\xbaK\x01@'
p1462
tp1463
Rp1464
ag5
(g9
S'\x95\x08\x87\xce\nE\xa2?'
p1465
tp1466
Rp1467
asg46
(lp1468
g5
(g9
S'D\x99H\t\x88K\x01@'
p1469
tp1470
Rp1471
ag1467
asg51
F4.46
sg52
(lp1472
F2.92
aF4.46
asg54
(lp1473
g5
(g9
S'U\x1d\x9b\xa6InG@'
p1474
tp1475
Rp1476
ag5
(g9
S'8\xf0\x0f\x02\xf8\xc0\xbb?'
p1477
tp1478
Rp1479
asg62
(lp1480
g1464
ag1467
asg67
(lp1481
F11.05
aF11.05
asg69
(lp1482
g5
(g9
S'\x99x\xd3A\x8dL\x01@'
p1483
tp1484
Rp1485
ag1467
assS'SAMPL5_070'
p1486
(dp1487
g3
(lp1488
g5
(g9
S'Cq}\x7fR\xe1L@'
p1489
tp1490
Rp1491
ag5
(g9
S'\xc4f\xa55\xb8h\xca?'
p1492
tp1493
Rp1494
asg18
S'CN(C)CCC=C1c2ccccc2CCc3c1cccc3'
p1495
sg20
Nsg21
g22
(g23
(I0
tp1496
g25
tp1497
Rp1498
(I1
(I2
tp1499
g31
I00
S'\x14\x9e\xaf\x00\xd4\xf1\x12@\x85d\xfeM;\xad\xa5?'
p1500
tp1501
bsg36
g297
sg38
(lp1502
g5
(g9
S'\xb2\xe4\xc4\x03|8\x08@'
p1503
tp1504
Rp1505
ag5
(g9
S'\x85d\xfeM;\xad\xa5?'
p1506
tp1507
Rp1508
asg46
(lp1509
g5
(g9
S'\xb2\xe4\xc4\x03|8\x08@'
p1510
tp1511
Rp1512
ag1508
asg51
F9.1
sg52
(lp1513
F9.1
asg54
(lp1514
g5
(g9
S'v\xda\r\xc2\xee\xb9>@'
p1515
tp1516
Rp1517
ag5
(g9
S'\x04\xeb\xad7\n\x1b\xc0?'
p1518
tp1519
Rp1520
asg62
(lp1521
g1505
ag1508
asg67
(lp1522
sg69
(lp1523
g5
(g9
S'\x14\x9e\xaf\x00\xd4\xf1\x12@'
p1524
tp1525
Rp1526
ag1508
assS'SAMPL5_069'
p1527
(dp1528
g3
(lp1529
g5
(g9
S'D_mHP\xd4R@'
p1530
tp1531
Rp1532
ag5
(g9
S'Z\xd3q\xc4\xcam\xca?'
p1533
tp1534
Rp1535
asg18
S'C[N@]1CCc2cc(c(c-3c2[C@@H]1Cc4c3cc(c(c4)O)OC)OC)O'
p1536
sg20
F10.1
sg21
g22
(g23
(I0
tp1537
g25
tp1538
Rp1539
(I1
(I2
tp1540
g31
I00
S'QG\xde./,\x07@u\xbc\xbb^W\x9d\xa6?'
p1541
tp1542
bsg36
g297
sg38
(lp1543
g5
(g9
S'a\x18.\xb8\xc5\xf0\x00@'
p1544
tp1545
Rp1546
ag5
(g9
S'u\xbc\xbb^W\x9d\xa6?'
p1547
tp1548
Rp1549
asg46
(lp1550
g5
(g9
S'\x97\x98\xb0)z\xf0\x00@'
p1551
tp1552
Rp1553
ag1549
asg51
F8.1
sg52
(lp1554
F8.1
asg54
(lp1555
g5
(g9
S'\xbe\xad\xe5zQdM@'
p1556
tp1557
Rp1558
ag5
(g9
S'\xedb+l\xc1\x84\xc2?'
p1559
tp1560
Rp1561
asg62
(lp1562
g1546
ag1549
asg67
(lp1563
F10.1
aF10.22
asg69
(lp1564
g5
(g9
S'\xb5p\xddRi*\x07@'
p1565
tp1566
Rp1567
ag1549
assS'SAMPL5_068'
p1568
(dp1569
g3
(lp1570
g5
(g9
S'\x80\x900\xb5\xf4\x8bQ@'
p1571
tp1572
Rp1573
ag5
(g9
S'\xf8\xce\x1a\xcd<\xfd\xc9?'
p1574
tp1575
Rp1576
asg18
S'c1ccc(cc1)c2c(nnc(n2)c3ccccn3)c4ccccc4'
p1577
sg20
Nsg21
g22
(g23
(I0
tp1578
g25
tp1579
Rp1580
(I1
(I2
tp1581
g31
I00
S'\xd0\x8a\xab\x98t-\x11@\xf1\x9a\x97\xaa$\x19\xa5?'
p1582
tp1583
bsg36
g297
sg38
(lp1584
g5
(g9
S'\xffZ\xd3\x90t-\x11@'
p1585
tp1586
Rp1587
ag5
(g9
S'\xf1\x9a\x97\xaa$\x19\xa5?'
p1588
tp1589
Rp1590
asg46
(lp1591
g5
(g9
S'\xffZ\xd3\x90t-\x11@'
p1592
tp1593
Rp1594
ag1590
asg51
F0.83
sg52
(lp1595
F-2.69
aF0.83
asg54
(lp1596
g5
(g9
S'\xf7~G\xf7R\xd6F@'
p1597
tp1598
Rp1599
ag5
(g9
S'\xf1\x9b)l\xc9e\xbe?'
p1600
tp1601
Rp1602
asg62
(lp1603
g1587
ag1590
asg67
(lp1604
sg69
(lp1605
g5
(g9
S'\xd0\x8a\xab\x98t-\x11@'
p1606
tp1607
Rp1608
ag1590
assS'SAMPL5_045'
p1609
(dp1610
g3
(lp1611
g5
(g9
S'\xf0\xabB\xde\xcf\xc7G@'
p1612
tp1613
Rp1614
ag5
(g9
S'\xa6\xfa\xf7\x8b"\x8d\xc2?'
p1615
tp1616
Rp1617
asg18
S'CCC(=O)Nc1ccc2c(c1)ncs2'
p1618
sg20
F11.72
sg21
g22
(g23
(I0
tp1619
g25
tp1620
Rp1621
(I1
(I2
tp1622
g31
I00
S'E\x8c\xeb\xbe\x96\xbe\xff\xbfh\xa5\x92p\xd4\xa9\xa0?'
p1623
tp1624
bsg36
S'12474692'
p1625
sg38
(lp1626
g5
(g9
S'\xe6\x12\x87\xa7\x97\xbe\xff\xbf'
p1627
tp1628
Rp1629
ag5
(g9
S'h\xa5\x92p\xd4\xa9\xa0?'
p1630
tp1631
Rp1632
asg46
(lp1633
g5
(g9
S'c\x1eAs\xad\xbe\xff\xbf'
p1634
tp1635
Rp1636
ag1632
asg51
F1.7
sg52
(lp1637
F1.11
aF1.7
asg54
(lp1638
g5
(g9
S'\xa6\x08\x9b\xcddqM@'
p1639
tp1640
Rp1641
ag5
(g9
S'"\x1f\xd24*\xc0\xbd?'
p1642
tp1643
Rp1644
asg62
(lp1645
g5
(g9
S'[q\xa8\x8a\xac\xbe\xff\xbf'
p1646
tp1647
Rp1648
ag1632
asg67
(lp1649
F11.72
asg69
(lp1650
g1648
ag1632
assS'SAMPL5_044'
p1651
(dp1652
g3
(lp1653
g5
(g9
S'\xfdi\x89\xc4\x98\x19S@'
p1654
tp1655
Rp1656
ag5
(g9
S'\x8e\xdbAW\x85Z\xc7?'
p1657
tp1658
Rp1659
asg18
S'c1ccc2c(c1)cc(c(=O)o2)C(=O)Nc3ccc4c(c3)scn4'
p1660
sg20
F11.71
sg21
g22
(g23
(I0
tp1661
g25
tp1662
Rp1663
(I1
(I2
tp1664
g31
I00
S'%a\x07\xfa\xce^\x04@\xc0\xbc\xc6\x06\xe0e\xa3?'
p1665
tp1666
bsg36
S'4987019'
p1667
sg38
(lp1668
g5
(g9
S'_\xc8\x0b\xec\xce^\x04@'
p1669
tp1670
Rp1671
ag5
(g9
S'\xc0\xbc\xc6\x06\xe0e\xa3?'
p1672
tp1673
Rp1674
asg46
(lp1675
g5
(g9
S'\xa7\xe91\xc5\xc3^\x04@'
p1676
tp1677
Rp1678
ag1674
asg51
F0.78
sg52
(lp1679
F0.78
aF0.5
aF-1.29
asg54
(lp1680
g5
(g9
S'w\xbe\xc2\x03\xcf\xeeN@'
p1681
tp1682
Rp1683
ag5
(g9
S'\x94\xefI!\xb4\xb8\xbd?'
p1684
tp1685
Rp1686
asg62
(lp1687
g5
(g9
S'\x8bU-\xd3\xc3^\x04@'
p1688
tp1689
Rp1690
ag1674
asg67
(lp1691
F11.71
asg69
(lp1692
g1690
ag1674
assS'SAMPL5_048'
p1693
(dp1694
g3
(lp1695
g5
(g9
S'\xdb|\x96w\xfe\x1fS@'
p1696
tp1697
Rp1698
ag5
(g9
S'\xc6\xb0\xd1\xa5\xee\xd8\xc8?'
p1699
tp1700
Rp1701
asg18
S'c1ccc2c(c1)nc(s2)c3cccc(c3)NC(=O)c4ccno4'
p1702
sg20
F11.23
sg21
g22
(g23
(I0
tp1703
g25
tp1704
Rp1705
(I1
(I2
tp1706
g31
I00
S'\xb3.u\x0fk\x0e\xf2?-\xdd"\x10\xf7\xd6\xa4?'
p1707
tp1708
bsg36
S'5627798'
p1709
sg38
(lp1710
g5
(g9
S'\xbb@\x8a\x92j\x0e\xf2?'
p1711
tp1712
Rp1713
ag5
(g9
S'-\xdd"\x10\xf7\xd6\xa4?'
p1714
tp1715
Rp1716
asg46
(lp1717
g5
(g9
S",\xeea8'\x0e\xf2?"
p1718
tp1719
Rp1720
ag1716
asg51
F1.43
sg52
(lp1721
F1.43
aF0.29
asg54
(lp1722
g5
(g9
S'\xb0\xa3_N\xbb\x83Q@'
p1723
tp1724
Rp1725
ag5
(g9
S'\xa8\x9d\xf3U\xddV\xc0?'
p1726
tp1727
Rp1728
asg62
(lp1729
g5
(g9
S"p!H\xb5'\x0e\xf2?"
p1730
tp1731
Rp1732
ag1716
asg67
(lp1733
F11.23
asg69
(lp1734
g1732
ag1716
assS'SAMPL5_046'
p1735
(dp1736
g3
(lp1737
g5
(g9
S'6\x11\xf2[SeQ@'
p1738
tp1739
Rp1740
ag5
(g9
S'\xaa\x19\xb6C{\xf2\xc7?'
p1741
tp1742
Rp1743
asg18
S'CSc1ccc(cc1)CC(=O)Nc2c3ccsc3ncn2'
p1744
sg20
F10.04
sg21
g22
(g23
(I0
tp1745
g25
tp1746
Rp1747
(I1
(I2
tp1748
g31
I00
S'\x8e>\x9c;\x07\x89\xff?L\xe5\xbd]Ra\xa4?'
p1749
tp1750
bsg36
S'12046880'
p1751
sg38
(lp1752
g5
(g9
S'\xed\xb7\x00S\x06\x89\xff?'
p1753
tp1754
Rp1755
ag5
(g9
S'L\xe5\xbd]Ra\xa4?'
p1756
tp1757
Rp1758
asg46
(lp1759
g5
(g9
S'\x9a\xc3\x8aG\xf4\x84\xff?'
p1760
tp1761
Rp1762
ag1758
asg51
F1.7
sg52
(lp1763
F1.7
aF0.84
aF-0.88
asg54
(lp1764
g5
(g9
S'\x19a\xb7\x93\x9f*M@'
p1765
tp1766
Rp1767
ag5
(g9
S'\xffk\xfe\x08\x95\x80\xc0?'
p1768
tp1769
Rp1770
asg62
(lp1771
g5
(g9
S'\xb7/\x9e/\xf5\x84\xff?'
p1772
tp1773
Rp1774
ag1758
asg67
(lp1775
F10.04
asg69
(lp1776
g1774
ag1758
assS'SAMPL5_006'
p1777
(dp1778
g3
(lp1779
g5
(g9
S'\xbeB\x9e\xb7\xa2\x99H@'
p1780
tp1781
Rp1782
ag5
(g9
S'j\x11\xbd|\xd9v\xc4?'
p1783
tp1784
Rp1785
asg18
S'C=C(Cn1c2ccccc2nc1CO)Br'
p1786
sg20
F10.9
sg21
g22
(g23
(I0
tp1787
g25
tp1788
Rp1789
(I1
(I2
tp1790
g31
I00
S'^D\xfb\xe2rz\xf5?\x12\xa2\x8aoxs\xa1?'
p1791
tp1792
bsg36
S'2118862'
p1793
sg38
(lp1794
g5
(g9
S'\xab\xacw"\xccA\xf5?'
p1795
tp1796
Rp1797
ag5
(g9
S'\x12\xa2\x8aoxs\xa1?'
p1798
tp1799
Rp1800
asg46
(lp1801
g5
(g9
S'\xc7+\xa7\xa9@A\xf5?'
p1802
tp1803
Rp1804
ag1800
asg51
F5.91
sg52
(lp1805
F5.91
aF-1.98
asg54
(lp1806
g5
(g9
S'\x93nKK\xd9\xc4D@'
p1807
tp1808
Rp1809
ag5
(g9
S'k\xd3#\xc5Oa\xbc?'
p1810
tp1811
Rp1812
asg62
(lp1813
g1797
ag1800
asg67
(lp1814
F10.9
asg69
(lp1815
g5
(g9
S'\x89\xeb\xf6\xe6\xe2y\xf5?'
p1816
tp1817
Rp1818
ag1800
assS'SAMPL5_063'
p1819
(dp1820
g3
(lp1821
g5
(g9
S'M\xef\x9bhT\xa7J@'
p1822
tp1823
Rp1824
ag5
(g9
S'l\xc0l@\xa4\x14\xc5?'
p1825
tp1826
Rp1827
asg18
S'C1C[C@H](CNC1)N2CCC(CC2)C(=O)N'
p1828
sg20
F13.25
sg21
g22
(g23
(I0
tp1829
g25
tp1830
Rp1831
(I1
(I2
tp1832
g31
I00
S'\xd69\xe2]\xac\xb6\r\xc0\xc8\x08\x8a\xa4x\xcb\xa1?'
p1833
tp1834
bsg36
S'38498425'
p1835
sg38
(lp1836
g5
(g9
S'\xa8t\x02U\x92\x06\x18\xc0'
p1837
tp1838
Rp1839
ag5
(g9
S'\xc8\x08\x8a\xa4x\xcb\xa1?'
p1840
tp1841
Rp1842
asg46
(lp1843
g5
(g9
S' ;8U\x92\x06\x18\xc0'
p1844
tp1845
Rp1846
ag1842
asg51
F9.69
sg52
(lp1847
F9.69
aF8.66
aF-0.31
asg54
(lp1848
g5
(g9
S'\x86\x96\x04\xb1\x81\xa0R@'
p1849
tp1850
Rp1851
ag5
(g9
S'\x98\xd1\xc5;kP\xbc?'
p1852
tp1853
Rp1854
asg62
(lp1855
g1839
ag1842
asg67
(lp1856
F13.25
aF13.25
asg69
(lp1857
g5
(g9
S')q8\xb0\xac\xb6\r\xc0'
p1858
tp1859
Rp1860
ag1842
assS'SAMPL5_047'
p1861
(dp1862
g3
(lp1863
g5
(g9
S'\xa6\xc1\xd1\x11c\xd6P@'
p1864
tp1865
Rp1866
ag5
(g9
S'YL^\x85Z\x8f\xc6?'
p1867
tp1868
Rp1869
asg18
S'c1cnoc1C(=O)Nc2c(c3c(s2)CCCC3)C#N'
p1870
sg20
F11.35
sg21
g22
(g23
(I0
tp1871
g25
tp1872
Rp1873
(I1
(I2
tp1874
g31
I00
S'4\xfe\x15>\xc7\xdf\t@\xc5\xf4\xddA\tw\xa2?'
p1875
tp1876
bsg36
S'5627778'
p1877
sg38
(lp1878
g5
(g9
S'\xd1\x1f\xbe=\xc7\xdf\t@'
p1879
tp1880
Rp1881
ag5
(g9
S'\xc5\xf4\xddA\tw\xa2?'
p1882
tp1883
Rp1884
asg46
(lp1885
g5
(g9
S'\xd6\xa7\xdc\xb1\xad\xdf\t@'
p1886
tp1887
Rp1888
ag1884
asg51
F-0.83
sg52
(lp1889
F-0.83
asg54
(lp1890
g5
(g9
S'\xd1\xe5\xe0\x17\xbdqH@'
p1891
tp1892
Rp1893
ag5
(g9
S'\xa4mn\x85z:\xbb?'
p1894
tp1895
Rp1896
asg62
(lp1897
g5
(g9
S'\xb3\x834\xb2\xad\xdf\t@'
p1898
tp1899
Rp1900
ag1884
asg67
(lp1901
F11.35
asg69
(lp1902
g1900
ag1884
assS'SAMPL5_055'
p1903
(dp1904
g3
(lp1905
g5
(g9
S'\xf6|]\x1a\xa0\x87E@'
p1906
tp1907
Rp1908
ag5
(g9
S':h*&\xeb\xe4\xbf?'
p1909
tp1910
Rp1911
asg18
S'c1ccc2c(c1)ncc(n2)C(=O)N'
p1912
sg20
F10.75
sg21
g22
(g23
(I0
tp1913
g25
tp1914
Rp1915
(I1
(I2
tp1916
g31
I00
S'\xf1\xfc\xfe\xbcc\n\xe1\xbf\xf4\xeeG\xd6\xbcL\x9b?'
p1917
tp1918
bsg36
S'3800934'
p1919
sg38
(lp1920
g5
(g9
S'\xbe\x8d\xa5\xbec\n\xe1\xbf'
p1921
tp1922
Rp1923
ag5
(g9
S'\xf4\xeeG\xd6\xbcL\x9b?'
p1924
tp1925
Rp1926
asg46
(lp1927
g5
(g9
S'\xb6\xf8+|\xfa\x0b\xe1\xbf'
p1928
tp1929
Rp1930
ag1926
asg51
F-0.75
sg52
(lp1931
F-0.75
aF-2.22
aF-1.9
asg54
(lp1932
g5
(g9
S'4\xf0\xeaH\xb2\x0cG@'
p1933
tp1934
Rp1935
ag5
(g9
S'\xfd\x13\xf6)\x92^\xb6?'
p1936
tp1937
Rp1938
asg62
(lp1939
g5
(g9
S'7\x98\x85z\xfa\x0b\xe1\xbf'
p1940
tp1941
Rp1942
ag1926
asg67
(lp1943
F10.75
aF10.75
asg69
(lp1944
g1942
ag1926
assS'SAMPL5_088'
p1945
(dp1946
g3
(lp1947
g5
(g9
S'|\x88\x9fojXM@'
p1948
tp1949
Rp1950
ag5
(g9
S'\xaf\\\x8b\xbf\xd1\xe6\xc9?'
p1951
tp1952
Rp1953
asg18
S'CCN(Cc1ccncc1)C(=O)[C@H](CO)c2ccccc2'
p1954
sg20
F14.6
sg21
g22
(g23
(I0
tp1955
g25
tp1956
Rp1957
(I1
(I2
tp1958
g31
I00
S'\xf2\xa8\xe8\xb4\xacA\xa5\xbf\xe5!H^\x9d\x88\xa5?'
p1959
tp1960
bsg36
g297
sg38
(lp1961
g5
(g9
S'V\x8d\xe5\x8f\xd1/\xad\xbf'
p1962
tp1963
Rp1964
ag5
(g9
S'\xe5!H^\x9d\x88\xa5?'
p1965
tp1966
Rp1967
asg46
(lp1968
g5
(g9
S'\x0fJ\x08s\xd2/\xad\xbf'
p1969
tp1970
Rp1971
ag1967
asg51
F5.96
sg52
(lp1972
F5.96
aF-0.13
aF-2.19
asg54
(lp1973
g5
(g9
S'\x9cN\xb6\xb6\xbfvM@'
p1974
tp1975
Rp1976
ag5
(g9
S'/\x169t\x84\x88\xc0?'
p1977
tp1978
Rp1979
asg62
(lp1980
g1964
ag1967
asg67
(lp1981
F14.6
asg69
(lp1982
g5
(g9
S'\xdf\x93J\xa0\xadA\xa5\xbf'
p1983
tp1984
Rp1985
ag1967
assS'SAMPL5_092'
p1986
(dp1987
g3
(lp1988
g5
(g9
S'I\x8d\xae\x83\xa4T[@'
p1989
tp1990
Rp1991
ag5
(g9
S'\xe1\xd4\xb9.\xaa\xb1\xd3?'
p1992
tp1993
Rp1994
asg18
S'CC(=O)N1CCN(CC1)c2ccc(cc2)OC[C@H]3CO[C@](O3)(Cn4ccnc4)c5ccc(cc5Cl)Cl'
p1995
sg20
Nsg21
g22
(g23
(I0
tp1996
g25
tp1997
Rp1998
(I1
(I2
tp1999
g31
I00
S'\xcf\xe04\x8f\x16f\xf8?\xabE~%\xc1i\xb4?'
p2000
tp2001
bsg36
g297
sg38
(lp2002
g5
(g9
S'\xba\xf5\xa9\xc7aL\xf5?'
p2003
tp2004
Rp2005
ag5
(g9
S'\xabE~%\xc1i\xb4?'
p2006
tp2007
Rp2008
asg46
(lp2009
g5
(g9
S'\xba\xf5\xa9\xc7aL\xf5?'
p2010
tp2011
Rp2012
ag2008
asg51
F7.15
sg52
(lp2013
F5.52
aF7.15
aF0.27
asg54
(lp2014
g5
(g9
S"\x81{\x06\xaf\x91'Y@"
p2015
tp2016
Rp2017
ag5
(g9
S'9\x05\x8c\x8a\x9ev\xd5?'
p2018
tp2019
Rp2020
asg62
(lp2021
g2005
ag2008
asg67
(lp2022
sg69
(lp2023
g5
(g9
S'\xcf\xe04\x8f\x16f\xf8?'
p2024
tp2025
Rp2026
ag2008
assS'SAMPL5_090'
p2027
(dp2028
g3
(lp2029
g5
(g9
S'\x8b\xc2#\x9d\xb8\xb7Q@'
p2030
tp2031
Rp2032
ag5
(g9
S"H+f3\x12'\xca?"
p2033
tp2034
Rp2035
asg18
S'Cc1cc2c(cc1C)nc(c(n2)c3ccccn3)c4ccccn4'
p2036
sg20
Nsg21
g22
(g23
(I0
tp2037
g25
tp2038
Rp2039
(I1
(I2
tp2040
g31
I00
S"\xe9\x15\xd6\xdc\xb6G\x11@\xbb^\x07\xd5'z\xa7?"
p2041
tp2042
bsg36
g297
sg38
(lp2043
g5
(g9
S'P\xeay\x19:G\x11@'
p2044
tp2045
Rp2046
ag5
(g9
S"\xbb^\x07\xd5'z\xa7?"
p2047
tp2048
Rp2049
asg46
(lp2050
g5
(g9
S'P\xeay\x19:G\x11@'
p2051
tp2052
Rp2053
ag2049
asg51
F4.44
sg52
(lp2054
F-1.32
aF-1.32
aF4.44
aF4.44
asg54
(lp2055
g5
(g9
S'{\xd8\xa5o\x1e\x1bG@'
p2056
tp2057
Rp2058
ag5
(g9
S'\xe4l|\x9fB\xf0\xc4?'
p2059
tp2060
Rp2061
asg62
(lp2062
g2046
ag2049
asg67
(lp2063
sg69
(lp2064
g5
(g9
S'\xe9\x15\xd6\xdc\xb6G\x11@'
p2065
tp2066
Rp2067
ag2049
assS'SAMPL5_005'
p2068
(dp2069
g3
(lp2070
g5
(g9
S'\xb5^-\x01\xa8>Q@'
p2071
tp2072
Rp2073
ag5
(g9
S'\n(\x15\xfd\xe3j\xc6?'
p2074
tp2075
Rp2076
asg18
S'Cn1ccnc1SCC(=O)Nc2ccc3c(c2)OCO3'
p2077
sg20
F11.49
sg21
g22
(g23
(I0
tp2078
g25
tp2079
Rp2080
(I1
(I2
tp2081
g31
I00
S'l\x0bC\x93\x18\xa6\xf0?\x84\x99\x9d_\xc8^\xa6?'
p2082
tp2083
bsg36
S'1363085'
p2084
sg38
(lp2085
g5
(g9
S'\x88\x93\x13\xd5`\x07\xf0?'
p2086
tp2087
Rp2088
ag5
(g9
S'\x84\x99\x9d_\xc8^\xa6?'
p2089
tp2090
Rp2091
asg46
(lp2092
g5
(g9
S'\x19\xafG\xfa>\x07\xf0?'
p2093
tp2094
Rp2095
ag2091
asg51
F6.37
sg52
(lp2096
F6.37
aF0.04
asg54
(lp2097
g5
(g9
S'\xd9z\x19u\x0f\x85O@'
p2098
tp2099
Rp2100
ag5
(g9
S'\xeby>\xdf\xf8\xb9\xc6?'
p2101
tp2102
Rp2103
asg62
(lp2104
g2088
ag2091
asg67
(lp2105
F11.49
asg69
(lp2106
g5
(g9
S'\x03r\xaa\x8f\xf3\xa5\xf0?'
p2107
tp2108
Rp2109
ag2091
assS'SAMPL5_042'
p2110
(dp2111
g3
(lp2112
g5
(g9
S'\xf3\x1f(\xf1q:P@'
p2113
tp2114
Rp2115
ag5
(g9
S'}9\x97\xd1.\xd0\xc7?'
p2116
tp2117
Rp2118
asg18
S'c1ccc(cc1)c2ccccc2NC(=O)c3ccc(=O)[nH]n3'
p2119
sg20
F8.57
sg21
g22
(g23
(I0
tp2120
g25
tp2121
Rp2122
(I1
(I2
tp2123
g31
I00
S'`k\xfe\x1e\xf6\xbe\xf5\xbf|\xb5\xb1l\xdb\xc5\xa7?'
p2124
tp2125
bsg36
S'1552842'
p2126
sg38
(lp2127
g5
(g9
S'*\x9e\xab-\xf6\xbe\xf5\xbf'
p2128
tp2129
Rp2130
ag5
(g9
S'|\xb5\xb1l\xdb\xc5\xa7?'
p2131
tp2132
Rp2133
asg46
(lp2134
g5
(g9
S'[\xf6\xf1@V3\xf6\xbf'
p2135
tp2136
Rp2137
ag2133
asg51
F0.5
sg52
(lp2138
F-1.73
aF0.5
asg54
(lp2139
g5
(g9
S'\x81\xdd\x87\xef\xf2*R@'
p2140
tp2141
Rp2142
ag5
(g9
S'N\xd0m\x1bE)\xc8?'
p2143
tp2144
Rp2145
asg62
(lp2146
g5
(g9
S'\x10\xb223V3\xf6\xbf'
p2147
tp2148
Rp2149
ag2133
asg67
(lp2150
F11.33
aF8.57
asg69
(lp2151
g2149
ag2133
assS'SAMPL5_033'
p2152
(dp2153
g3
(lp2154
g5
(g9
S'\x00u\x01\x14\x9f\xecQ@'
p2155
tp2156
Rp2157
ag5
(g9
S'\xb9;\xa0*0\xd8\xca?'
p2158
tp2159
Rp2160
asg18
S'Cc1ccc(cc1NC(=O)N2CCCCC[C@@H]2c3cccs3)Cl'
p2161
sg20
F12.17
sg21
g22
(g23
(I0
tp2162
g25
tp2163
Rp2164
(I1
(I2
tp2165
g31
I00
S'q\xb8\xb2\xcb\r\x92\x0e@\r\x95\x0c\xfb\xe5\x8d\xa6?'
p2166
tp2167
bsg36
S'16363773'
p2168
sg38
(lp2169
g5
(g9
S';\x18\xdc\t\t\x92\x0e@'
p2170
tp2171
Rp2172
ag5
(g9
S'\r\x95\x0c\xfb\xe5\x8d\xa6?'
p2173
tp2174
Rp2175
asg46
(lp2176
g5
(g9
S'Xw\xfb+\x05\x92\x0e@'
p2177
tp2178
Rp2179
ag2175
asg51
F2.72
sg52
(lp2180
F2.72
asg54
(lp2181
g5
(g9
S'\xc0<S\x92K\xf1H@'
p2182
tp2183
Rp2184
ag5
(g9
S'_\xe2\xbd\xcaV\xc1\xc1?'
p2185
tp2186
Rp2187
asg62
(lp2188
g2172
ag2175
asg67
(lp2189
F12.17
asg69
(lp2190
g5
(g9
S'0\xcc\xcc\xed\t\x92\x0e@'
p2191
tp2192
Rp2193
ag2175
assS'SAMPL5_037'
p2194
(dp2195
g3
(lp2196
g5
(g9
S'B5\xe2\x06\x1f\x12G@'
p2197
tp2198
Rp2199
ag5
(g9
S'\x11\xab\xb9\xdbx\t\xc2?'
p2200
tp2201
Rp2202
asg18
S'CN(C)S(=O)(=O)N1CCNCC1'
p2203
sg20
Nsg21
g22
(g23
(I0
tp2204
g25
tp2205
Rp2206
(I1
(I2
tp2207
g31
I00
S'<\xd5\xac\xed\xee\xb3\x12\xc0\xa8(\xc1)\xc3\x9b\x9f?'
p2208
tp2209
bsg36
S'833953'
p2210
sg38
(lp2211
g5
(g9
S'D>\xc44\xea\xe9\x14\xc0'
p2212
tp2213
Rp2214
ag5
(g9
S'\xa8(\xc1)\xc3\x9b\x9f?'
p2215
tp2216
Rp2217
asg46
(lp2218
g5
(g9
S'D>\xc44\xea\xe9\x14\xc0'
p2219
tp2220
Rp2221
ag2217
asg51
F7.81
sg52
(lp2222
F-1.5
aF-0.07
aF7.81
asg54
(lp2223
g5
(g9
S'\xa5*>V(5R@'
p2224
tp2225
Rp2226
ag5
(g9
S'M\xae\xa1\xe8\xaa\x13\xbb?'
p2227
tp2228
Rp2229
asg62
(lp2230
g2214
ag2217
asg67
(lp2231
sg69
(lp2232
g5
(g9
S'<\xd5\xac\xed\xee\xb3\x12\xc0'
p2233
tp2234
Rp2235
ag2217
ass.