(dp0
S'SAMPL5_050'
p1
(dp2
S'Smiles'
p3
S'c1cc(C)nc(c12)nn3c2[nH]c(C)cc3=O'
p4
ssS'SAMPL5_083'
p5
(dp6
g3
S'O1/C=C/[C@H](OC)[C@@H](C)[C@@H](OC(=O)C)[C@H](C)[C@H](O)[C@H](C)[C@@H](O)[C@@H](C)/C=C/C=C(C)\\C(=O)Nc(c2O)c(CNN3CCN(C)CC3)c(O)c4c2c(O)c(C)c(O5)c4C(=O)[C@@]15C'
p7
ss.