(dp0
S'SAMPL5_017'
p1
(dp2
S'cyclohexane'
p3
(lp4
cnumpy.core.multiarray
scalar
p5
(cnumpy
dtype
p6
(S'f8'
p7
I0
I1
tp8
Rp9
(I3
S'<'
p10
NNNI-1
I-1
I0
tp11
bS'\xeaz\xaa44\x04R@'
p12
tp13
Rp14
ag5
(g9
S'\xec\xc6Vu\xc8\x08\xc8?'
p15
tp16
Rp17
asS'Smiles'
p18
S'c1ccc2c(c1)c(nc(n2)c3ccccc3O)NC4CCCC4'
p19
sS'pKa_acidic'
p20
F8.93
sS'Conj_Acid'
p21
(lp22
F8.93
aF14.36
asS'EmolID'
p23
S'2425478'
p24
sS'LogD_baseCorrected'
p25
(lp26
g5
(g9
S't\xfd\x9c\x1f\xbf\xf5\x18@'
p27
tp28
Rp29
ag5
(g9
S'\x82\x10\xb9_\xdf\x01\xa4?'
p30
tp31
Rp32
asS'LogD_bothCorrected'
p33
(lp34
g5
(g9
S'U/-\xfa\x18\xe9\x18@'
p35
tp36
Rp37
ag32
asS'Pickard'
p38
F-0.0006
sS'pKa_basic'
p39
F5.76
sS'Conj_Base'
p40
(lp41
F0.78
aF3.94
aF5.76
asS'water'
p42
(lp43
g5
(g9
S'~\x0e<\xc6!2B@'
p44
tp45
Rp46
ag5
(g9
S'Rs}1#\xd2\xbe?'
p47
tp48
Rp49
asS'logPickard'
p50
F-0.0004411764705882352
sS'logD_PickardCorrected'
p51
(lp52
g5
(g9
S'\xb0.l%^\xff\x18@'
p53
tp54
Rp55
ag5
(g9
S'\x82\x10\xb9_\xdf\x01\xa4?'
p56
tp57
Rp58
asS'StatePenaltyCorrection'
p59
g5
(g9
S'\xaelGu\xef^\xf2\xbf'
p60
tp61
Rp62
sS'LogD_oneCorrected'
p63
(lp64
g5
(g9
S'6|\xe0\x89\xe2\xf2\x18@'
p65
tp66
Rp67
ag32
asS'LogD_calc'
p68
cnumpy.core.multiarray
_reconstruct
p69
(cnumpy
ndarray
p70
(I0
tp71
S'b'
p72
tp73
Rp74
(I1
(I2
tp75
g6
(S'f8'
p76
I0
I1
tp77
Rp78
(I3
S'<'
p79
NNNI-1
I-1
I0
tp80
bI00
S'\xf0;F\xcc\xd1\xff\x18@\x82\x10\xb9_\xdf\x01\xa4?'
p81
tp82
bsS'LogD_acidCorrected'
p83
(lp84
g67
ag32
asS'logD_stateCorrected'
p85
(lp86
g5
(g9
S'\xc4`\xf4\xee\x15h\x14@'
p87
tp88
Rp89
ag5
(g9
S'\x82\x10\xb9_\xdf\x01\xa4?'
p90
tp91
Rp92
assS'SAMPL5_058'
p93
(dp94
g3
(lp95
g5
(g9
S'\xfb\xf4\xd7\xa7\xfd\xb6I@'
p96
tp97
Rp98
ag5
(g9
S'\x1f\xdf\x17\xf3(N\xc4?'
p99
tp100
Rp101
asg18
S'c1ccc(cc1)n2c(=O)c3ccccc3cn2'
p102
sg20
Nsg21
(lp103
sg23
S'3730323'
p104
sg25
(lp105
g5
(g9
S'O\x8ea\xa438\xee?'
p106
tp107
Rp108
ag5
(g9
S'\xdfk\xd5Dv\xfb\xa0?'
p109
tp110
Rp111
asg33
(lp112
g5
(g9
S'O\x8ea\xa438\xee?'
p113
tp114
Rp115
ag111
asg38
F0.0
sg39
F-1.41
sg40
(lp116
F-1.41
asg42
(lp117
g5
(g9
S'\x9c\xbd\x19\x84\x04\x05G@'
p118
tp119
Rp120
ag5
(g9
S'G\xefP\x9e\x80t\xba?'
p121
tp122
Rp123
asg50
F0.0
sg51
(lp124
g5
(g9
S'\xd0\x00\xbe\xa438\xee?'
p125
tp126
Rp127
ag5
(g9
S'\xdfk\xd5Dv\xfb\xa0?'
p128
tp129
Rp130
asg59
g5
(g9
S'\x00\x00\x00\x00\x00\x00\x00\x00'
p131
tp132
Rp133
sg63
(lp134
g108
ag111
asg68
g69
(g70
(I0
tp135
g72
tp136
Rp137
(I1
(I2
tp138
g78
I00
S'\xd0\x00\xbe\xa438\xee?\xdfk\xd5Dv\xfb\xa0?'
p139
tp140
bsg83
(lp141
g5
(g9
S'\xd0\x00\xbe\xa438\xee?'
p142
tp143
Rp144
ag111
asg85
(lp145
g5
(g9
S'\xd0\x00\xbe\xa438\xee?'
p146
tp147
Rp148
ag5
(g9
S'\xdfk\xd5Dv\xfb\xa0?'
p149
tp150
Rp151
assS'SAMPL5_059'
p152
(dp153
g3
(lp154
g5
(g9
S'6\x02\xa7\xa2\x1e\tE@'
p155
tp156
Rp157
ag5
(g9
S'w\xd4D~\x10\x03\xc0?'
p158
tp159
Rp160
asg18
S'c1ccc(cc1)c2nc(sn2)N'
p161
sg20
F13.54
sg21
(lp162
F13.54
aF13.54
asg23
S'711981'
p163
sg25
(lp164
g5
(g9
S'\xc0\xe3\xc7\xdb\xd6"\xe5\xbf'
p165
tp166
Rp167
ag5
(g9
S'\x14;\xb8\xb1\xd8\x92\x9b?'
p168
tp169
Rp170
asg33
(lp171
g5
(g9
S'\xd3\x7f\xae\x84\xd7"\xe5\xbf'
p172
tp173
Rp174
ag170
asg38
F0.0
sg39
F3.11
sg40
(lp175
F-0.4
aF3.11
aF-0.16
asg42
(lp176
g5
(g9
S'\xb2\x05\x15\xe1\xae\xebF@'
p177
tp178
Rp179
ag5
(g9
S'\xb3\xf7\x92%\xd6\xdc\xb6?'
p180
tp181
Rp182
asg50
F0.0
sg51
(lp183
g5
(g9
S'\xb5$5&\xa8"\xe5\xbf'
p184
tp185
Rp186
ag5
(g9
S'\x14;\xb8\xb1\xd8\x92\x9b?'
p187
tp188
Rp189
asg59
g5
(g9
S'\x00\x00\x00\x00\x00\x00\x00\x00'
p190
tp191
Rp192
sg63
(lp193
g167
ag170
asg68
g69
(g70
(I0
tp194
g72
tp195
Rp196
(I1
(I2
tp197
g78
I00
S'\xb5$5&\xa8"\xe5\xbf\x14;\xb8\xb1\xd8\x92\x9b?'
p198
tp199
bsg83
(lp200
g5
(g9
S'y\xf8\x1d\xcf\xa8"\xe5\xbf'
p201
tp202
Rp203
ag170
asg85
(lp204
g5
(g9
S'\xb5$5&\xa8"\xe5\xbf'
p205
tp206
Rp207
ag5
(g9
S'\x14;\xb8\xb1\xd8\x92\x9b?'
p208
tp209
Rp210
assS'SAMPL5_013'
p211
(dp212
g3
(lp213
g5
(g9
S'\x13\xa8NJu\xe1T@'
p214
tp215
Rp216
ag5
(g9
S'v\xd9\x00\x03d\x0e\xca?'
p217
tp218
Rp219
asg18
S'Cc1ccc(cc1)c2nc(c3c(n2)n(c(=O)[nH]3)c4ccccc4)C(=O)N'
p220
sg20
F7.37
sg21
(lp221
F10.75
aF10.75
aF7.37
asg23
S'16095985'
p222
sg25
(lp223
g5
(g9
S'Wg!yz\xa4\xf1?'
p224
tp225
Rp226
ag5
(g9
S'sUi*.w\xa5?'
p227
tp228
Rp229
asg33
(lp230
g5
(g9
S'\x1d\xb7S\xee\xea)\xe9?'
p231
tp232
Rp233
ag229
asg38
F0.0
sg39
F0.52
sg40
(lp234
F0.52
aF0.12
aF-2.93
asg42
(lp235
g5
(g9
S'nD\x9b\xf1\xa4NS@'
p236
tp237
Rp238
ag5
(g9
S'\xdd(w\xa1\xbf\x1a\xc0?'
p239
tp240
Rp241
asg50
F0.0
sg51
(lp242
g5
(g9
S'a\xac\x7f\x88z\xa4\xf1?'
p243
tp244
Rp245
ag5
(g9
S'sUi*.w\xa5?'
p246
tp247
Rp248
asg59
g5
(g9
S'\xa2]\x82\x1e\xa9\xd2,\xbf'
p249
tp250
Rp251
sg63
(lp252
g5
(g9
S"}'*\xfd\xea)\xe9?"
p253
tp254
Rp255
ag229
asg68
g69
(g70
(I0
tp256
g72
tp257
Rp258
(I1
(I2
tp259
g78
I00
S'a\xac\x7f\x88z\xa4\xf1?sUi*.w\xa5?'
p260
tp261
bsg83
(lp262
g255
ag229
asg85
(lp263
g5
(g9
S'N\xb86\xf3\x93\xa3\xf1?'
p264
tp265
Rp266
ag5
(g9
S'sUi*.w\xa5?'
p267
tp268
Rp269
assS'SAMPL5_010'
p270
(dp271
g3
(lp272
g5
(g9
S'\xa1\xbf\x08\xe2P\x81K@'
p273
tp274
Rp275
ag5
(g9
S'\x80\xed\x92\xcd%d\xc3?'
p276
tp277
Rp278
asg18
S'c1cc(cc(c1)NCc2ccncc2)C(=O)O'
p279
sg20
F4.33
sg21
(lp280
F4.33
aF14.68
asg23
S'1491855'
p281
sg25
(lp282
g5
(g9
S'\xea\x03/\xb5\x91K\xf7\xbf'
p283
tp284
Rp285
ag5
(g9
S'\xc0%\xb6\x12\xe3\xac\xa0?'
p286
tp287
Rp288
asg33
(lp289
g5
(g9
S'\x1cMS\xd7\xba\xd6\x11\xc0'
p290
tp291
Rp292
ag288
asg38
F-2.7875
sg39
F6.62
sg40
(lp293
F2.63
aF6.62
asg42
(lp294
g5
(g9
S'<\xf1\xc0+YxO@'
p295
tp296
Rp297
ag5
(g9
S'\x86\x82\xd7L|\x95\xbb?'
p298
tp299
Rp300
asg50
F-2.049632352941176
sg51
(lp301
g5
(g9
S'\xe8i|Q\xdd\x82\x0b\xc0'
p302
tp303
Rp304
ag5
(g9
S'\xc0%\xb6\x12\xe3\xac\xa0?'
p305
tp306
Rp307
asg59
g5
(g9
S'7\xe6\xabtm\xb1\n\xc0'
p308
tp309
Rp310
sg63
(lp311
g5
(g9
S'^PF\xc6\xaa\xd6\x11\xc0'
p312
tp313
Rp314
ag288
asg68
g69
(g70
(I0
tp315
g72
tp316
Rp317
(I1
(I2
tp318
g78
I00
S'\x86\x88\xadWo:\xf6\xbf\xc0%\xb6\x12\xe3\xac\xa0?'
p319
tp320
bsg83
(lp321
g314
ag288
asg85
(lp322
g5
(g9
S'=UA\x90R\xe7\x12\xc0'
p323
tp324
Rp325
ag5
(g9
S'\xc0%\xb6\x12\xe3\xac\xa0?'
p326
tp327
Rp328
assS'SAMPL5_011'
p329
(dp330
g3
(lp331
g5
(g9
S'\xb2\xb4\xd9\x81\xc3`M@'
p332
tp333
Rp334
ag5
(g9
S')\xeb\xa2\xfc\xf7\xde\xc4?'
p335
tp336
Rp337
asg18
S'Cc1cc(nc(n1)Nc2ccccc2C(=O)O)C'
p338
sg20
F4.57
sg21
(lp339
F4.57
aF12.85
asg23
S'542592'
p340
sg25
(lp341
g5
(g9
S'\x14B\xbc-"{\xfb?'
p342
tp343
Rp344
ag5
(g9
S'\xa2\x85a\xc9Ih\xa1?'
p345
tp346
Rp347
asg33
(lp348
g5
(g9
S'\xdd\x9a\xd5@}\xcc\xf1\xbf'
p349
tp350
Rp351
ag347
asg38
F-3.9355
sg39
F4.58
sg40
(lp352
F4.58
aF4.58
asg42
(lp353
g5
(g9
S'(tg\xfccyH@'
p354
tp355
Rp356
ag5
(g9
S'Bx\x11\xa2\xba\xf0\xba?'
p357
tp358
Rp359
asg50
F-2.89375
sg51
(lp360
g5
(g9
S'\x7f\x1ep\xe1\xf9\xce\xf2\xbf'
p361
tp362
Rp363
ag5
(g9
S'\xa2\x85a\xc9Ih\xa1?'
p364
tp365
Rp366
asg59
g5
(g9
S'\xda\xf0\xb2\x1a^/\x08\xc0'
p367
tp368
Rp369
sg63
(lp370
g5
(g9
S'J\xde:<|\xcc\xf1\xbf'
p371
tp372
Rp373
ag347
asg68
g69
(g70
(I0
tp374
g72
tp375
Rp376
(I1
(I2
tp377
g78
I00
S'M\xae\\\xeb\xd2}\xfb?\xa2\x85a\xc9Ih\xa1?'
p378
tp379
bsg83
(lp380
g373
ag347
asg85
(lp381
g5
(g9
S'g3\tJ\xe9\xe0\xf4\xbf'
p382
tp383
Rp384
ag5
(g9
S'\xa2\x85a\xc9Ih\xa1?'
p385
tp386
Rp387
assS'SAMPL5_074'
p388
(dp389
g3
(lp390
g5
(g9
S'\t\x18l\x00\xb2\x8aQ@'
p391
tp392
Rp393
ag5
(g9
S'\xe6\xbb\xab\xf8X(\xc4?'
p394
tp395
Rp396
asg18
S'c1nc(c2c(n1)n(cn2)[C@H]3[C@@H]([C@@H]([C@H](O3)CO)O)O)N'
p397
sg20
F12.0
sg21
(lp398
F14.06
aF12.6
aF12.0
aF13.04
aF13.04
asg23
S''
p399
sg25
(lp400
g5
(g9
S'U"\x1a}\xcf\x13\x0e\xc0'
p401
tp402
Rp403
ag5
(g9
S'N\xcb\xba\xda\x8d\xb0\xa4?'
p404
tp405
Rp406
asg33
(lp407
g5
(g9
S'\x9d\x0f\xb84\xd5\x13\x0e\xc0'
p408
tp409
Rp410
ag406
asg38
F0.0
sg39
F3.97
sg40
(lp411
F2.92
aF3.97
aF-0.4
aF-0.69
aF-1.84
aF-2.3
asg42
(lp412
g5
(g9
S'\x141Bl\x17\xe8V@'
p413
tp414
Rp415
ag5
(g9
S'\xb0\x0c\xc5\xfei\x92\xc5?'
p416
tp417
Rp418
asg50
F0.0
sg51
(lp419
g5
(g9
S'\x9c+T\xe8z\x13\x0e\xc0'
p420
tp421
Rp422
ag5
(g9
S'N\xcb\xba\xda\x8d\xb0\xa4?'
p423
tp424
Rp425
asg59
g5
(g9
S'\x00\x00\x00\x00\x00\x00\x00\x00'
p426
tp427
Rp428
sg63
(lp429
g403
ag406
asg68
g69
(g70
(I0
tp430
g72
tp431
Rp432
(I1
(I2
tp433
g78
I00
S'\x9c+T\xe8z\x13\x0e\xc0N\xcb\xba\xda\x8d\xb0\xa4?'
p434
tp435
bsg83
(lp436
g5
(g9
S'\xf4M}\xa0\x80\x13\x0e\xc0'
p437
tp438
Rp439
ag406
asg85
(lp440
g5
(g9
S'\x9c+T\xe8z\x13\x0e\xc0'
p441
tp442
Rp443
ag5
(g9
S'N\xcb\xba\xda\x8d\xb0\xa4?'
p444
tp445
Rp446
assS'SAMPL5_075'
p447
(dp448
g3
(lp449
g5
(g9
S'=/\xd8\xeb\xc5\xfaL@'
p450
tp451
Rp452
ag5
(g9
S'\xd7\xaf\x8f\x01C\x0e\xc9?'
p453
tp454
Rp455
asg18
S'CC(C)NC[C@@H](COc1ccc(cc1)CCOC)O'
p456
sg20
F13.32
sg21
(lp457
F13.32
asg23
g399
sg25
(lp458
g5
(g9
S'\x104\xdb\xe1[\xfe\xe7?'
p459
tp460
Rp461
ag5
(g9
S'\xd3D\xcf\xb5\x05\xaf\xa6?'
p462
tp463
Rp464
asg33
(lp465
g5
(g9
S'u\xa8\xf3\xdd[\xfe\xe7?'
p466
tp467
Rp468
ag464
asg38
F-0.4576
sg39
F9.25
sg40
(lp469
F9.25
aF-1.29
asg42
(lp470
g5
(g9
S'\x92w\x99,\xd8\x8aE@'
p471
tp472
Rp473
ag5
(g9
S'\xc5j5\xedx~\xc4?'
p474
tp475
Rp476
asg50
F-0.3364705882352941
sg51
(lp477
g5
(g9
S"T\x9a\xc3\x0e\xc6'\x02@"
p478
tp479
Rp480
ag5
(g9
S'\xd3D\xcf\xb5\x05\xaf\xa6?'
p481
tp482
Rp483
asg59
g5
(g9
S'F\xb3\x9e\x1aX\xb1\xff\xbf'
p484
tp485
Rp486
sg63
(lp487
g461
ag464
asg68
g69
(g70
(I0
tp488
g72
tp489
Rp490
(I1
(I2
tp491
g78
I00
S'\x05\xe5\xa7\x8c\xdd\xd8\x04@\xd3D\xcf\xb5\x05\xaf\xa6?'
p492
tp493
bsg83
(lp494
g5
(g9
S'\xd5k\x93F\xdd\xd8\x04@'
p495
tp496
Rp497
ag464
asg85
(lp498
g5
(g9
S'\x88-b\xfd\xc5\x00\xe4?'
p499
tp500
Rp501
ag5
(g9
S'\xd3D\xcf\xb5\x05\xaf\xa6?'
p502
tp503
Rp504
assS'SAMPL5_050'
p505
(dp506
g3
(lp507
g5
(g9
S'6D\xa0\xa4\x90bK@'
p508
tp509
Rp510
ag5
(g9
S'\x8a\xe0\xa3\x82%\xea\xc2?'
p511
tp512
Rp513
asg18
S'Cc1ccc2c(n1)nn3c2nc(cc3O)C'
p514
sg20
F-3.58
sg21
(lp515
F-3.58
asg23
S'5663556'
p516
sg25
(lp517
g5
(g9
S'\xb1\x19\xe5]\x971\xf3?'
p518
tp519
Rp520
ag5
(g9
S'\xac\x927\x83u\xea\xa3?'
p521
tp522
Rp523
asg33
(lp524
g5
(g9
S'T\x8fg\x1b\x8e\x8f#\xc0'
p525
tp526
Rp527
ag523
asg38
F-8.5884
sg39
F2.83
sg40
(lp528
F0.35
aF2.83
asg42
(lp529
g5
(g9
S'r\xe4r\xfe\x17\xf6G@'
p530
tp531
Rp532
ag5
(g9
S'\x0e\x16\xfd\x0b)6\xc5?'
p533
tp534
Rp535
asg50
F-6.3149999999999995
sg51
(lp536
g5
(g9
S'~\xae?t&v\x14\xc0'
p537
tp538
Rp539
ag5
(g9
S'\xac\x927\x83u\xea\xa3?'
p540
tp541
Rp542
asg59
g5
(g9
S"\xd4~G\xd5\xa3\xcd'\xc0"
p543
tp544
Rp545
sg63
(lp546
g5
(g9
S'T\x8fg\x1b\x8e\x8f#\xc0'
p547
tp548
Rp549
ag523
asg68
g69
(g70
(I0
tp550
g72
tp551
Rp552
(I1
(I2
tp553
g78
I00
S'\x10\x1d\xa5\x9f\xa31\xf3?\xac\x927\x83u\xea\xa3?'
p554
tp555
bsg83
(lp556
g549
ag523
asg85
(lp557
g5
(g9
S'2\xdbRaog%\xc0'
p558
tp559
Rp560
ag5
(g9
S'\xac\x927\x83u\xea\xa3?'
p561
tp562
Rp563
assS'SAMPL5_056'
p564
(dp565
g3
(lp566
g5
(g9
S'\xad\x11%\x9e\xbe\xefK@'
p567
tp568
Rp569
ag5
(g9
S'7P\xb5l"\xd8\xc4?'
p570
tp571
Rp572
asg18
S'CC(C)[C@@H]1Cc2c(cc(c(n2)O)C#N)CO1'
p573
sg20
F3.26
sg21
(lp574
F3.26
asg23
g399
sg25
(lp575
g5
(g9
S'\xd8\xbf\x0fE\x91\x89\x05@'
p576
tp577
Rp578
ag5
(g9
S'\x15\xbf)^\xa6$\xa1?'
p579
tp580
Rp581
asg33
(lp582
g5
(g9
S'\x8d\x9a\x0b\x0eo*\xf7\xbf'
p583
tp584
Rp585
ag581
asg38
F-3.961
sg39
F0.28
sg40
(lp586
F0.28
asg42
(lp587
g5
(g9
S'C\xe74\x01\xc7@D@'
p588
tp589
Rp590
ag5
(g9
S'Sh\x10\x0e4\x9c\xb9?'
p591
tp592
Rp593
asg50
F-2.9124999999999996
sg51
(lp594
g5
(g9
S'`R\x115\xb83\xcc\xbf'
p595
tp596
Rp597
ag5
(g9
S'\x15\xbf)^\xa6$\xa1?'
p598
tp599
Rp600
asg59
g5
(g9
S'\x19\x9b\x92\xff\x00\xb1\x13\xc0'
p601
tp602
Rp603
sg63
(lp604
g5
(g9
S'\x91p\x0b\x0eo*\xf7\xbf'
p605
tp606
Rp607
ag581
asg68
g69
(g70
(I0
tp608
g72
tp609
Rp610
(I1
(I2
tp611
g78
I00
S'\xa6\xb7{I\x91\x89\x05@\x15\xbf)^\xa6$\xa1?'
p612
tp613
bsg83
(lp614
g607
ag581
asg85
(lp615
g5
(g9
S'\x8c~\xa9\xb5p\xd8\x01\xc0'
p616
tp617
Rp618
ag5
(g9
S'\x15\xbf)^\xa6$\xa1?'
p619
tp620
Rp621
assS'SAMPL5_071'
p622
(dp623
g3
(lp624
g5
(g9
S'\x87?,\xcb\xdd\x96M@'
p625
tp626
Rp627
ag5
(g9
S'\x0b?\x82\x89=\x98\xc7?'
p628
tp629
Rp630
asg18
S'CCOc1cc(c(cc1N2CCOCC2)OCC)N'
p631
sg20
F15.55
sg21
(lp632
F15.55
aF15.55
asg23
g399
sg25
(lp633
g5
(g9
S'\xec\x7f\xba\xe5#$\xe9?'
p634
tp635
Rp636
ag5
(g9
S'\xbf\xbd\xc6\x03\xf3\xd2\xa3?'
p637
tp638
Rp639
asg33
(lp640
g5
(g9
S'4\x1c\x14\xe4#$\xe9?'
p641
tp642
Rp643
ag639
asg38
F0.0
sg39
F4.02
sg40
(lp644
F4.02
aF3.98
asg42
(lp645
g5
(g9
S'\xed\xed_\xd5\xb5XK@'
p646
tp647
Rp648
ag5
(g9
S'\xfbf\xb9X]6\xbf?'
p649
tp650
Rp651
asg50
F0.0
sg51
(lp652
g5
(g9
S'\x00z\xc5~\x9f%\xe9?'
p653
tp654
Rp655
ag5
(g9
S'\xbf\xbd\xc6\x03\xf3\xd2\xa3?'
p656
tp657
Rp658
asg59
g5
(g9
S'\x00\x00\x00\x00\x00\x00\x00\x00'
p659
tp660
Rp661
sg63
(lp662
g636
ag639
asg68
g69
(g70
(I0
tp663
g72
tp664
Rp665
(I1
(I2
tp666
g78
I00
S'\x00z\xc5~\x9f%\xe9?\xbf\xbd\xc6\x03\xf3\xd2\xa3?'
p667
tp668
bsg83
(lp669
g5
(g9
S'4\xe9\x1e}\x9f%\xe9?'
p670
tp671
Rp672
ag639
asg85
(lp673
g5
(g9
S'\x00z\xc5~\x9f%\xe9?'
p674
tp675
Rp676
ag5
(g9
S'\xbf\xbd\xc6\x03\xf3\xd2\xa3?'
p677
tp678
Rp679
assS'SAMPL5_072'
p680
(dp681
g3
(lp682
g5
(g9
S'\x1c\xb4\xd4(\xfbJJ@'
p683
tp684
Rp685
ag5
(g9
S'H]H\x9e\xbe\x97\xc8?'
p686
tp687
Rp688
asg18
S'CN(C)CCOC(c1ccccc1)c2ccccc2'
p689
sg20
Nsg21
(lp690
sg23
g399
sg25
(lp691
g5
(g9
S'\x08\x84\x84\xb6\x07\t\x03@'
p692
tp693
Rp694
ag5
(g9
S':\x96:\x03V@\xa5?'
p695
tp696
Rp697
asg33
(lp698
g5
(g9
S'\x08\x84\x84\xb6\x07\t\x03@'
p699
tp700
Rp701
ag697
asg38
F-0.6511
sg39
F8.53
sg40
(lp702
F8.53
asg42
(lp703
g5
(g9
S'\xb9\x9e\xb1\x87:0@@'
p704
tp705
Rp706
ag5
(g9
S'\x01}o\x8bh\xbe\xc1?'
p707
tp708
Rp709
asg50
F-0.47874999999999995
sg51
(lp710
g5
(g9
S'#\xac\xd18e~\x08@'
p711
tp712
Rp713
ag5
(g9
S':\x96:\x03V@\xa5?'
p714
tp715
Rp716
asg59
g5
(g9
S'\xf6;o\xa3L\xab\xf3\xbf'
p717
tp718
Rp719
sg63
(lp720
g694
ag697
asg68
g69
(g70
(I0
tp721
g72
tp722
Rp723
(I1
(I2
tp724
g78
I00
S'7Z\x19\x1a\xe0R\x0c@:\x96:\x03V@\xa5?'
p725
tp726
bsg83
(lp727
g5
(g9
S'7Z\x19\x1a\xe0R\x0c@'
p728
tp729
Rp730
ag697
asg85
(lp731
g5
(g9
S'<\xbca\xc89}\x02@'
p732
tp733
Rp734
ag5
(g9
S':\x96:\x03V@\xa5?'
p735
tp736
Rp737
assS'SAMPL5_019'
p738
(dp739
g3
(lp740
g5
(g9
S'\xa3}2\x82V\xcfQ@'
p741
tp742
Rp743
ag5
(g9
S'\xb9&\xc5M\xab\x07\xc8?'
p744
tp745
Rp746
asg18
S'Cc1ccc(cc1)Nc2ccnc(n2)Nc3ccc(cc3)C'
p747
sg20
F13.18
sg21
(lp748
F13.24
aF13.18
asg23
S'43423819'
p749
sg25
(lp750
g5
(g9
S'Ck,*\n\x08\x07@'
p751
tp752
Rp753
ag5
(g9
S'\xd7"\x90\x03F\xf6\xa3?'
p754
tp755
Rp756
asg33
(lp757
g5
(g9
S'\xadE|\xca\t\x08\x07@'
p758
tp759
Rp760
ag756
asg38
F0.0
sg39
F5.44
sg40
(lp761
F-2.3
aF-1.51
aF5.44
aF3.76
asg42
(lp762
g5
(g9
S'p#y\x1f\xcdcK@'
p763
tp764
Rp765
ag5
(g9
S']\x86A1#\x98\xbe?'
p766
tp767
Rp768
asg50
F0.0
sg51
(lp769
g5
(g9
S'\x9c.\xec4\xbd\x11\x07@'
p770
tp771
Rp772
ag5
(g9
S'\xd7"\x90\x03F\xf6\xa3?'
p773
tp774
Rp775
asg59
g5
(g9
S'\xa2]\x82\x1e\xa9\xd2l\xbf'
p776
tp777
Rp778
sg63
(lp779
g753
ag756
asg68
g69
(g70
(I0
tp780
g72
tp781
Rp782
(I1
(I2
tp783
g78
I00
S'\x9c.\xec4\xbd\x11\x07@\xd7"\x90\x03F\xf6\xa3?'
p784
tp785
bsg83
(lp786
g5
(g9
S'\xc9p/\xd4\xbc\x11\x07@'
p787
tp788
Rp789
ag756
asg85
(lp790
g5
(g9
S'\x05\x8e\xa4\x8a\x88\n\x07@'
p791
tp792
Rp793
ag5
(g9
S'\xd7"\x90\x03F\xf6\xa3?'
p794
tp795
Rp796
assS'SAMPL5_061'
p797
(dp798
g3
(lp799
g5
(g9
S'V\xb33\x96xgG@'
p800
tp801
Rp802
ag5
(g9
S'$\xd8\xce\xf0!\xe4\xc3?'
p803
tp804
Rp805
asg18
S'Cc1nccc(n1)[C@@]2(CNCCO2)C'
p806
sg20
Nsg21
(lp807
sg23
S'43241882'
p808
sg25
(lp809
g5
(g9
S'\xd4\n4\x07\x83z\xf6?'
p810
tp811
Rp812
ag5
(g9
S"'|\\\xfd\t\xbc\xa2?"
p813
tp814
Rp815
asg33
(lp816
g5
(g9
S'\xd4\n4\x07\x83z\xf6?'
p817
tp818
Rp819
ag815
asg38
F-0.0007
sg39
F7.72
sg40
(lp820
F7.72
aF2.55
aF2.72
asg42
(lp821
g5
(g9
S'[\xd7\xb4\xfd\x1a\xffA@'
p822
tp823
Rp824
ag5
(g9
S"'\xce\x05\x11\xbc\xdc\xc1?"
p825
tp826
Rp827
asg50
F-0.0005147058823529411
sg51
(lp828
g5
(g9
S'n\xc5\x05G\xdeN\xfe?'
p829
tp830
Rp831
ag5
(g9
S"'|\\\xfd\t\xbc\xa2?"
p832
tp833
Rp834
asg59
g5
(g9
S"\x07\x90'=\xe7>\xe0\xbf"
p835
tp836
Rp837
sg63
(lp838
g812
ag815
asg68
g69
(g70
(I0
tp839
g72
tp840
Rp841
(I1
(I2
tp842
g78
I00
S"\xf0\xadT\xfc\xf9P\xfe?'|\\\xfd\t\xbc\xa2?"
p843
tp844
bsg83
(lp845
g5
(g9
S'\xf0\xadT\xfc\xf9P\xfe?'
p846
tp847
Rp848
ag815
asg85
(lp849
g5
(g9
S'\xec\xe5\xc0]\x861\xf6?'
p850
tp851
Rp852
ag5
(g9
S"'|\\\xfd\t\xbc\xa2?"
p853
tp854
Rp855
assS'SAMPL5_015'
p856
(dp857
g3
(lp858
g5
(g9
S'9\xa7\x84\xb1\x98\xa8K@'
p859
tp860
Rp861
ag5
(g9
S'L5z;\x90\xd1\xc2?'
p862
tp863
Rp864
asg18
S'Cc1ccc2c(c1)c(ncn2)NCC(=O)O'
p865
sg20
F4.44
sg21
(lp866
F4.44
aF12.6
asg23
S'1355949'
p867
sg25
(lp868
g5
(g9
S'\xff\xba\xbf\xb7Z7\xeb\xbf'
p869
tp870
Rp871
ag5
(g9
S"\xf8+\xcd\x87\x9d'\xa0?"
p872
tp873
Rp874
asg33
(lp875
g5
(g9
S'v\xfb\x8c`Xf\x0e\xc0'
p876
tp877
Rp878
ag874
asg38
F-3.7814
sg39
F5.81
sg40
(lp879
F-1.33
aF3.87
aF5.81
asg42
(lp880
g5
(g9
S'w\xcd\x90\xee\xf1\rN@'
p881
tp882
Rp883
ag5
(g9
S'v\xb9\x16l^\xa1\xba?'
p884
tp885
Rp886
asg50
F-2.780441176470588
sg51
(lp887
g5
(g9
S'1\x0e{\xe7\x9b\xf5\x0c\xc0'
p888
tp889
Rp890
ag5
(g9
S"\xf8+\xcd\x87\x9d'\xa0?"
p891
tp892
Rp893
asg59
g5
(g9
S"6\x17\x19@'X\t\xc0"
p894
tp895
Rp896
sg63
(lp897
g5
(g9
S'R\x88\x89\xf7Qf\x0e\xc0'
p898
tp899
Rp900
ag874
asg68
g69
(g70
(I0
tp901
g72
tp902
Rp903
(I1
(I2
tp904
g78
I00
S"\xcb\xa5\xbf\xd7\x0f\xdd\xea\xbf\xf8+\xcd\x87\x9d'\xa0?"
p905
tp906
bsg83
(lp907
g900
ag874
asg85
(lp908
g5
(g9
S'T\x80\x04\x9b\xb5\x07\x10\xc0'
p909
tp910
Rp911
ag5
(g9
S"\xf8+\xcd\x87\x9d'\xa0?"
p912
tp913
Rp914
assS'SAMPL5_003'
p915
(dp916
g3
(lp917
g5
(g9
S'\xabR^G\xd1\x04J@'
p918
tp919
Rp920
ag5
(g9
S'\x9b<&\xbc\xd0\x11\xc4?'
p921
tp922
Rp923
asg18
S'c1ccc2c(c1)c(=O)oc(n2)c3ccccc3F'
p924
sg20
Nsg21
(lp925
sg23
S'1231787'
p926
sg25
(lp927
g5
(g9
S'\xf4\xc5\xde\xa6\x91\x9c\xff?'
p928
tp929
Rp930
ag5
(g9
S'\xb7\x96\x8d\x9dA\xa5\xa0?'
p931
tp932
Rp933
asg33
(lp934
g5
(g9
S'\xf4\xc5\xde\xa6\x91\x9c\xff?'
p935
tp936
Rp937
ag933
asg38
F0.0
sg39
F2.96
sg40
(lp938
F2.96
aF-1.86
asg42
(lp939
g5
(g9
S'\xf4\xda}\xe1JaD@'
p940
tp941
Rp942
ag5
(g9
S'\xe3\xb7\xce\xf3#i\xb9?'
p943
tp944
Rp945
asg50
F0.0
sg51
(lp946
g5
(g9
S'\xfc\x05\x8f/\xa2\x9c\xff?'
p947
tp948
Rp949
ag5
(g9
S'\xb7\x96\x8d\x9dA\xa5\xa0?'
p950
tp951
Rp952
asg59
g5
(g9
S'\x00\x00\x00\x00\x00\x00\x00\x00'
p953
tp954
Rp955
sg63
(lp956
g930
ag933
asg68
g69
(g70
(I0
tp957
g72
tp958
Rp959
(I1
(I2
tp960
g78
I00
S'\xfc\x05\x8f/\xa2\x9c\xff?\xb7\x96\x8d\x9dA\xa5\xa0?'
p961
tp962
bsg83
(lp963
g5
(g9
S'\xfc\x05\x8f/\xa2\x9c\xff?'
p964
tp965
Rp966
ag933
asg85
(lp967
g5
(g9
S'\xfc\x05\x8f/\xa2\x9c\xff?'
p968
tp969
Rp970
ag5
(g9
S'\xb7\x96\x8d\x9dA\xa5\xa0?'
p971
tp972
Rp973
assS'SAMPL5_085'
p974
(dp975
g3
(lp976
g5
(g9
S'\xb3,\xa9={\xc1L@'
p977
tp978
Rp979
ag5
(g9
S'F\xa7\xda\xda\x01I\xc5?'
p980
tp981
Rp982
asg18
S'c1ccc(cc1)C2(C(=O)NC(=O)N2)c3ccccc3'
p983
sg20
F7.8
sg21
(lp984
F7.8
aF9.9
asg23
g399
sg25
(lp985
g5
(g9
S'\rb\xb3nkC\x00\xc0'
p986
tp987
Rp988
ag5
(g9
S'\xc6\xe6\xb7\x1a\xa0\xee\xa1?'
p989
tp990
Rp991
asg33
(lp992
g5
(g9
S'\xc9\x9a\xb8\xff{m\x01\xc0'
p993
tp994
Rp995
ag991
asg38
F-0.0777
sg39
F2.33
sg40
(lp996
F2.33
asg42
(lp997
g5
(g9
S'\xcf\xa3\x93\xddcGQ@'
p998
tp999
Rp1000
ag5
(g9
S'\xe0\x1bF\x95Sh\xbc?'
p1001
tp1002
Rp1003
asg50
F-0.05713235294117647
sg51
(lp1004
g5
(g9
S'\xdem.Mk\xb8\x00\xc0'
p1005
tp1006
Rp1007
ag5
(g9
S'\xc6\xe6\xb7\x1a\xa0\xee\xa1?'
p1008
tp1009
Rp1010
asg59
g5
(g9
S'3\xd5\x8c\xb6\xcf\xc2\xc1\xbf'
p1011
tp1012
Rp1013
sg63
(lp1014
g5
(g9
S'=j\xdd\x9czm\x01\xc0'
p1015
tp1016
Rp1017
ag991
asg68
g69
(g70
(I0
tp1018
g72
tp1019
Rp1020
(I1
(I2
tp1021
g78
I00
S'\xa9\x05\x93~iC\x00\xc0\xc6\xe6\xb7\x1a\xa0\xee\xa1?'
p1022
tp1023
bsg83
(lp1024
g1017
ag991
asg85
(lp1025
g5
(g9
S'\xfc\xd2\xfby\x96_\x01\xc0'
p1026
tp1027
Rp1028
ag5
(g9
S'\xc6\xe6\xb7\x1a\xa0\xee\xa1?'
p1029
tp1030
Rp1031
assS'SAMPL5_084'
p1032
(dp1033
g3
(lp1034
g5
(g9
S'\xaf=i\x8c{YR@'
p1035
tp1036
Rp1037
ag5
(g9
S'\x80R\x16\xd5x\xdb\xce?'
p1038
tp1039
Rp1040
asg18
S'c1cc(ccc1C(=O)CCCN2CCC(CC2)(c3ccc(cc3)Cl)O)F'
p1041
sg20
F15.03
sg21
(lp1042
F15.03
asg23
g399
sg25
(lp1043
g5
(g9
S'@\rN\xe03Q\xfe?'
p1044
tp1045
Rp1046
ag5
(g9
S'"\x92\xa6\x07\xae5\xb4?'
p1047
tp1048
Rp1049
asg33
(lp1050
g5
(g9
S'`\x18.\xe03Q\xfe?'
p1051
tp1052
Rp1053
ag1049
asg38
F-2.7626
sg39
F8.72
sg40
(lp1054
F8.72
aF-0.08
asg42
(lp1055
g5
(g9
S'\xd2$r\xb4LwK@'
p1056
tp1057
Rp1058
ag5
(g9
S'|RH|x]\xd8?'
p1059
tp1060
Rp1061
asg50
F-2.0313235294117646
sg51
(lp1062
g5
(g9
S'\xb2k\x99\xea\xc9B\xf3?'
p1063
tp1064
Rp1065
ag5
(g9
S'"\x92\xa6\x07\xae5\xb4?'
p1066
tp1067
Rp1068
asg59
g5
(g9
S'\xfe*Y1\xbc\xcb\xf6\xbf'
p1069
tp1070
Rp1071
sg63
(lp1072
g1046
ag1049
asg68
g69
(g70
(I0
tp1073
g72
tp1074
Rp1075
(I1
(I2
tp1076
g78
I00
S'\x99\x0f@\x82\x8b\xe1\t@"\x92\xa6\x07\xae5\xb4?'
p1077
tp1078
bsg83
(lp1079
g5
(g9
S'\xd7?\xe2\x80\x8b\xe1\t@'
p1080
tp1081
Rp1082
ag1049
asg85
(lp1083
g5
(g9
S'4\xf4&\xd3Z\xf7\xfc?'
p1084
tp1085
Rp1086
ag5
(g9
S'"\x92\xa6\x07\xae5\xb4?'
p1087
tp1088
Rp1089
assS'SAMPL5_086'
p1090
(dp1091
g3
(lp1092
g5
(g9
S'\x8c\xd6\xe5\xa6\x04\x01S@'
p1093
tp1094
Rp1095
ag5
(g9
S'\xc6t\xbe\xb5\xdc\xf5\xcd?'
p1096
tp1097
Rp1098
asg18
S'CCCCOc1cc(c2ccccc2n1)C(=O)NCCN(CC)CC'
p1099
sg20
F11.73
sg21
(lp1100
F11.73
asg23
g399
sg25
(lp1101
g5
(g9
S'\xeb]c\xdf\xb9\xe3\xf8?'
p1102
tp1103
Rp1104
ag5
(g9
S'\x15\xc6sZD\x7f\xac?'
p1105
tp1106
Rp1107
asg33
(lp1108
g5
(g9
S'\x19J\xad,\xb9\xe3\xf8?'
p1109
tp1110
Rp1111
ag1107
asg38
F-1.2386
sg39
F8.87
sg40
(lp1112
F8.87
aF1.48
aF-1.45
asg42
(lp1113
g5
(g9
S'1\xda\x91\xf5\xe2TM@'
p1114
tp1115
Rp1116
ag5
(g9
S'\x1e\xef\xbb2\x16\x7f\xcb?'
p1117
tp1118
Rp1119
asg50
F-0.910735294117647
sg51
(lp1120
g5
(g9
S'\xc2cY3\xe0\x08\x01@'
p1121
tp1122
Rp1123
ag5
(g9
S'\x15\xc6sZD\x7f\xac?'
p1124
tp1125
Rp1126
asg59
g5
(g9
S'\xfd:>\x80sU\xf9\xbf'
p1127
tp1128
Rp1129
sg63
(lp1130
g1104
ag1107
asg68
g69
(g70
(I0
tp1131
g72
tp1132
Rp1133
(I1
(I2
tp1134
g78
I00
S'\x8b\xc6U\xc9\x0fR\x08@\x15\xc6sZD\x7f\xac?'
p1135
tp1136
bsg83
(lp1137
g5
(g9
S'\x80E\xf8"\x05R\x08@'
p1138
tp1139
Rp1140
ag1107
asg85
(lp1141
g5
(g9
S'\x19Rm\x12\xacN\xf7?'
p1142
tp1143
Rp1144
ag5
(g9
S'\x15\xc6sZD\x7f\xac?'
p1145
tp1146
Rp1147
assS'SAMPL5_081'
p1148
(dp1149
g3
(lp1150
g5
(g9
S'cb\xd4\x18-RM@'
p1151
tp1152
Rp1153
ag5
(g9
S'\xfe#\xae\xc1Y\xb3\xc7?'
p1154
tp1155
Rp1156
asg18
S'CC(C)NC[C@H](COc1ccc(cc1)CC(=O)N)O'
p1157
sg20
F12.67
sg21
(lp1158
F13.32
aF12.67
aF12.67
asg23
g399
sg25
(lp1159
g5
(g9
S'\x99B\xf0\x05\x7f\xd6\x0f\xc0'
p1160
tp1161
Rp1162
ag5
(g9
S'A\xba\x87\x9a^\x0c\xa9?'
p1163
tp1164
Rp1165
asg33
(lp1166
g5
(g9
S'\x1cvL\n\x7f\xd6\x0f\xc0'
p1167
tp1168
Rp1169
ag1165
asg38
F-1.1127
sg39
F9.25
sg40
(lp1170
F9.25
aF-1.29
aF-1.04
asg42
(lp1171
g5
(g9
S'\xb2O\x98\x8e\xe1\xb0Q@'
p1172
tp1173
Rp1174
ag5
(g9
S'\x18#\x01o\xaf\xc1\xca?'
p1175
tp1176
Rp1177
asg50
F-0.8181617647058823
sg51
(lp1178
g5
(g9
S'd)\xf1\xd6\xd0\x88\x07\xc0'
p1179
tp1180
Rp1181
ag5
(g9
S'A\xba\x87\x9a^\x0c\xa9?'
p1182
tp1183
Rp1184
asg59
g5
(g9
S'F\xb3\x9e\x1aX\xb1\xff\xbf'
p1185
tp1186
Rp1187
sg63
(lp1188
g1162
ag1165
asg68
g69
(g70
(I0
tp1189
g72
tp1190
Rp1191
(I1
(I2
tp1192
g78
I00
S'\x98*\xbfq8\xfd\x00\xc0A\xba\x87\x9a^\x0c\xa9?'
p1193
tp1194
bsg83
(lp1195
g5
(g9
S'~&\xc8\xaa9\xfd\x00\xc0'
p1196
tp1197
Rp1198
ag1165
asg85
(lp1199
g5
(g9
S'\x1eB\x87?\xf2j\x10\xc0'
p1200
tp1201
Rp1202
ag5
(g9
S'A\xba\x87\x9a^\x0c\xa9?'
p1203
tp1204
Rp1205
assS'SAMPL5_080'
p1206
(dp1207
g3
(lp1208
g5
(g9
S'T\xc3\x0e\x88\xae J@'
p1209
tp1210
Rp1211
ag5
(g9
S'\x10q\x17\xbe\xd3\xfd\xc0?'
p1212
tp1213
Rp1214
asg18
S'Cn1cnc2c1c(=O)n(c(=O)n2C)C'
p1215
sg20
Nsg21
(lp1216
sg23
g399
sg25
(lp1217
g5
(g9
S'z\x7f\xb0\x84\xa2\r\x0e\xc0'
p1218
tp1219
Rp1220
ag5
(g9
S'\xc1\x9d@\x1d2\x1f\x9e?'
p1221
tp1222
Rp1223
asg33
(lp1224
g5
(g9
S'z\x7f\xb0\x84\xa2\r\x0e\xc0'
p1225
tp1226
Rp1227
ag1223
asg38
F0.0
sg39
F1.37
sg40
(lp1228
F-0.58
aF1.37
aF-1.89
aF-2.49
asg42
(lp1229
g5
(g9
S'\xaae\xf9\xba\xb1lR@'
p1230
tp1231
Rp1232
ag5
(g9
S'\x84v\tf\x11R\xba?'
p1233
tp1234
Rp1235
asg50
F0.0
sg51
(lp1236
g5
(g9
S'^AJN\xa2\r\x0e\xc0'
p1237
tp1238
Rp1239
ag5
(g9
S'\xc1\x9d@\x1d2\x1f\x9e?'
p1240
tp1241
Rp1242
asg59
g5
(g9
S'\x00\x00\x00\x00\x00\x00\x00\x00'
p1243
tp1244
Rp1245
sg63
(lp1246
g1220
ag1223
asg68
g69
(g70
(I0
tp1247
g72
tp1248
Rp1249
(I1
(I2
tp1250
g78
I00
S'^AJN\xa2\r\x0e\xc0\xc1\x9d@\x1d2\x1f\x9e?'
p1251
tp1252
bsg83
(lp1253
g5
(g9
S'^AJN\xa2\r\x0e\xc0'
p1254
tp1255
Rp1256
ag1223
asg85
(lp1257
g5
(g9
S'^AJN\xa2\r\x0e\xc0'
p1258
tp1259
Rp1260
ag5
(g9
S'\xc1\x9d@\x1d2\x1f\x9e?'
p1261
tp1262
Rp1263
assS'SAMPL5_083'
p1264
(dp1265
g3
(lp1266
g5
(g9
S'\xdfZ\xa7B\xc4\xa2b@'
p1267
tp1268
Rp1269
ag5
(g9
S't\xa1\xc7\xe2\xc2L\xdc?'
p1270
tp1271
Rp1272
asg18
S'C[C@H]1/C=C/C=C(\\C(=O)NC\\2=C(C3=C(C(=C4C(=C3C(=O)/C2=C/NN5CCN(CC5)C)C(=O)[C@](O4)(O/C=C/[C@@H]([C@H]([C@H]([C@@H]([C@@H]([C@@H]([C@H]1O)C)O)C)OC(=O)C)C)OC)C)C)O)O)/C'
p1273
sg20
F7.41
sg21
(lp1274
F14.92
aF15.38
aF8.92
aF7.41
aF8.11
asg23
g399
sg25
(lp1275
g5
(g9
S'\x8ala/hV\xf1?'
p1276
tp1277
Rp1278
ag5
(g9
S'R\x19\xfb\xec\x18h\xb7?'
p1279
tp1280
Rp1281
asg33
(lp1282
g5
(g9
S'\x0bYcO<\x06\xeb?'
p1283
tp1284
Rp1285
ag1281
asg38
F0.0
sg39
F6.92
sg40
(lp1286
F-2.66
aF0.65
aF6.92
aF-0.08
aF0.28
aF-1.3
aF-0.76
asg42
(lp1287
g5
(g9
S'\x1ae5\xca&\xc6a@'
p1288
tp1289
Rp1290
ag5
(g9
S'7\xa2\xb0\xe4\xda\xbd\xd1?'
p1291
tp1292
Rp1293
asg50
F0.0
sg51
(lp1294
g5
(g9
S'j]x,7S\xf3?'
p1295
tp1296
Rp1297
ag5
(g9
S'R\x19\xfb\xec\x18h\xb7?'
p1298
tp1299
Rp1300
asg59
g5
(g9
S'\x9d\xdf&S\x8b3\xdf\xbf'
p1301
tp1302
Rp1303
sg63
(lp1304
g5
(g9
S'?\xab$\x17\x1e-\xed?'
p1305
tp1306
Rp1307
ag1281
asg68
g69
(g70
(I0
tp1308
g72
tp1309
Rp1310
(I1
(I2
tp1311
g78
I00
S'j]x,7S\xf3?R\x19\xfb\xec\x18h\xb7?'
p1312
tp1313
bsg83
(lp1314
g1307
ag1281
asg85
(lp1315
g5
(g9
S'\x06K]\xaf\xa8\x0c\xe7?'
p1316
tp1317
Rp1318
ag5
(g9
S'R\x19\xfb\xec\x18h\xb7?'
p1319
tp1320
Rp1321
assS'SAMPL5_082'
p1322
(dp1323
g3
(lp1324
g5
(g9
S'oJ\xfeNc\xeeQ@'
p1325
tp1326
Rp1327
ag5
(g9
S'.T\x1c\xae\xd7\xf7\xcf?'
p1328
tp1329
Rp1330
asg18
S'CC/C(=C(\\c1ccccc1)/c2ccc(cc2)OCCN(C)C)/c3ccccc3'
p1331
sg20
Nsg21
(lp1332
sg23
g399
sg25
(lp1333
g5
(g9
S'~S\x93r8.\x16@'
p1334
tp1335
Rp1336
ag5
(g9
S'\xf9;\x93\xb2\x80\xac\xaa?'
p1337
tp1338
Rp1339
asg33
(lp1340
g5
(g9
S'~S\x93r8.\x16@'
p1341
tp1342
Rp1343
ag1339
asg38
F-0.429
sg39
F8.37
sg40
(lp1344
F8.37
asg42
(lp1345
g5
(g9
S'\xa2\xa6\xbd@[$A@'
p1346
tp1347
Rp1348
ag5
(g9
S'\xff\xa83\xb26\xa9\xc4?'
p1349
tp1350
Rp1351
asg50
F-0.3154411764705882
sg51
(lp1352
g5
(g9
S'\xcf\xd5\x11\xc6\xc1\xf9\x18@'
p1353
tp1354
Rp1355
ag5
(g9
S'\xf9;\x93\xb2\x80\xac\xaa?'
p1356
tp1357
Rp1358
asg59
g5
(g9
S'\xde%d"}(\xf1\xbf'
p1359
tp1360
Rp1361
sg63
(lp1362
g1336
ag1339
asg68
g69
(g70
(I0
tp1363
g72
tp1364
Rp1365
(I1
(I2
tp1366
g78
I00
S'\xd2\xd8\x14\xc9\xc4<\x1a@\xf9;\x93\xb2\x80\xac\xaa?'
p1367
tp1368
bsg83
(lp1369
g5
(g9
S'\xd2\xd8\x14\xc9\xc4<\x1a@'
p1370
tp1371
Rp1372
ag1339
asg85
(lp1373
g5
(g9
S'Z\xcf{\x80\xa5\xf2\x15@'
p1374
tp1375
Rp1376
ag5
(g9
S'\xf9;\x93\xb2\x80\xac\xaa?'
p1377
tp1378
Rp1379
assS'SAMPL5_027'
p1380
(dp1381
g3
(lp1382
g5
(g9
S'\x7f\xac\x1b\xc6q\xb2J@'
p1383
tp1384
Rp1385
ag5
(g9
S'[8\xd3\xd5\xf7\xf4\xc1?'
p1386
tp1387
Rp1388
asg18
S'c1ccc(cc1)CNc2ncnc(n2)N'
p1389
sg20
F12.98
sg21
(lp1390
F12.98
aF13.39
aF13.39
asg23
S'2483781'
p1391
sg25
(lp1392
g5
(g9
S'>\x1c\x9a\xb6\xd1\xb6\x01\xc0'
p1393
tp1394
Rp1395
ag5
(g9
S'\xec\x15}\xc2CY\x9f?'
p1396
tp1397
Rp1398
asg33
(lp1399
g5
(g9
S'#m\xd0O\xd2\xb6\x01\xc0'
p1400
tp1401
Rp1402
ag1398
asg38
F0.0
sg39
F4.24
sg40
(lp1403
F4.24
aF4.05
aF1.14
aF-2.02
aF-0.84
asg42
(lp1404
g5
(g9
S'\x8b/\x8f\xfe\x02\x82P@'
p1405
tp1406
Rp1407
ag5
(g9
S'&\x90\xf6\x02\xfb\xab\xba?'
p1408
tp1409
Rp1410
asg50
F0.0
sg51
(lp1411
g5
(g9
S'\x07~\xb4=4\xb6\x01\xc0'
p1412
tp1413
Rp1414
ag5
(g9
S'\xec\x15}\xc2CY\x9f?'
p1415
tp1416
Rp1417
asg59
g5
(g9
S'\x00\x00\x00\x00\x00\x00\x00\x00'
p1418
tp1419
Rp1420
sg63
(lp1421
g1395
ag1398
asg68
g69
(g70
(I0
tp1422
g72
tp1423
Rp1424
(I1
(I2
tp1425
g78
I00
S'\x07~\xb4=4\xb6\x01\xc0\xec\x15}\xc2CY\x9f?'
p1426
tp1427
bsg83
(lp1428
g5
(g9
S'\x87\xf1\x05\xd74\xb6\x01\xc0'
p1429
tp1430
Rp1431
ag1398
asg85
(lp1432
g5
(g9
S'\x07~\xb4=4\xb6\x01\xc0'
p1433
tp1434
Rp1435
ag5
(g9
S'\xec\x15}\xc2CY\x9f?'
p1436
tp1437
Rp1438
assS'SAMPL5_026'
p1439
(dp1440
g3
(lp1441
g5
(g9
S'\xc3\xd8vx0TH@'
p1442
tp1443
Rp1444
ag5
(g9
S'\x05|\xe8*Cw\xc5?'
p1445
tp1446
Rp1447
asg18
S'Cc1cc(c2c(c1)c(c([nH]2)C)CC(=O)O)C'
p1448
sg20
F4.23
sg21
(lp1449
F4.23
aF16.57
asg23
S'703690'
p1450
sg25
(lp1451
g5
(g9
S'u\xccy\x07\xd8m\xfb\xbf'
p1452
tp1453
Rp1454
ag5
(g9
S'\x0f\x18$\xa24\x9e\xa4?'
p1455
tp1456
Rp1457
asg33
(lp1458
g5
(g9
S'\x04k\x86n\xd7\x89\x13\xc0'
p1459
tp1460
Rp1461
ag1457
asg38
F-1.4138
sg39
F-2.04
sg40
(lp1462
F-2.04
asg42
(lp1463
g5
(g9
S'#9MG\xb68M@'
p1464
tp1465
Rp1466
ag5
(g9
S'\x8fp7|\n\x1f\xc4?'
p1467
tp1468
Rp1469
asg50
F-1.0395588235294118
sg51
(lp1470
g5
(g9
S'\x0e\x19";\xf0\x07\x06\xc0'
p1471
tp1472
Rp1473
ag5
(g9
S'\x0f\x18$\xa24\x9e\xa4?'
p1474
tp1475
Rp1476
asg59
g5
(g9
S'\x11^\xa8\xf2(\x19\x0b\xc0'
p1477
tp1478
Rp1479
sg63
(lp1480
g5
(g9
S'\x8cj\x86n\xd7\x89\x13\xc0'
p1481
tp1482
Rp1483
ag1457
asg68
g69
(g70
(I0
tp1484
g72
tp1485
Rp1486
(I1
(I2
tp1487
g78
I00
S'y\xf6n\x07\xd8m\xfb\xbf\x0f\x18$\xa24\x9e\xa4?'
p1488
tp1489
bsg83
(lp1490
g1483
ag1457
asg85
(lp1491
g5
(g9
S'\xa7\xec/{\nh\x14\xc0'
p1492
tp1493
Rp1494
ag5
(g9
S'\x0f\x18$\xa24\x9e\xa4?'
p1495
tp1496
Rp1497
assS'SAMPL5_024'
p1498
(dp1499
g3
(lp1500
g5
(g9
S'\xcd\x1cQ\xd2\x10\xfeS@'
p1501
tp1502
Rp1503
ag5
(g9
S'm\xad\x14\xa6\xc4Q\xca?'
p1504
tp1505
Rp1506
asg18
S'Cc1ccc2c(c1)cc3cc(sc3n2)C(=O)Nc4ccc(c(c4)C)C'
p1507
sg20
F11.15
sg21
(lp1508
F11.15
asg23
S'16329490'
p1509
sg25
(lp1510
g5
(g9
S'\xb2\xf5/T)\xd7\xde?'
p1511
tp1512
Rp1513
ag5
(g9
S'\xa9\xd3\x88$\xac)\xa6?'
p1514
tp1515
Rp1516
asg33
(lp1517
g5
(g9
S'3\x90\xef\x82\xee\xd5\xde?'
p1518
tp1519
Rp1520
ag1516
asg38
F0.0
sg39
F5.86
sg40
(lp1521
F5.86
aF-0.3
asg42
(lp1522
g5
(g9
S'\x97\xd4]i\x84IS@'
p1523
tp1524
Rp1525
ag5
(g9
S'\xcd\xde\xfc\xcf:\x89\xc1?'
p1526
tp1527
Rp1528
asg50
F0.0
sg51
(lp1529
g5
(g9
S'\x10\x85\x00|x\xa1\xdf?'
p1530
tp1531
Rp1532
ag5
(g9
S'\xa9\xd3\x88$\xac)\xa6?'
p1533
tp1534
Rp1535
asg59
g5
(g9
S'\xdd\xf8\xcc{B\xf7\x83\xbf'
p1536
tp1537
Rp1538
sg63
(lp1539
g1513
ag1516
asg68
g69
(g70
(I0
tp1540
g72
tp1541
Rp1542
(I1
(I2
tp1543
g78
I00
S'\x10\x85\x00|x\xa1\xdf?\xa9\xd3\x88$\xac)\xa6?'
p1544
tp1545
bsg83
(lp1546
g5
(g9
S'\x88R\x9f\x964\xa0\xdf?'
p1547
tp1548
Rp1549
ag1516
asg85
(lp1550
g5
(g9
S'I\x1d"h\xbe\x01\xdf?'
p1551
tp1552
Rp1553
ag5
(g9
S'\xa9\xd3\x88$\xac)\xa6?'
p1554
tp1555
Rp1556
assS'SAMPL5_021'
p1557
(dp1558
g3
(lp1559
g5
(g9
S"\x7f\x10Yfb'M@"
p1560
tp1561
Rp1562
ag5
(g9
S'C\x9eG\xa6\xf2\xed\xc4?'
p1563
tp1564
Rp1565
asg18
S'Cc1nn2cc(nc2s1)c3cccc(c3)OC'
p1566
sg20
Nsg21
(lp1567
sg23
S'31467689'
p1568
sg25
(lp1569
g5
(g9
S'wo\x8a\xaf\xefi\n@'
p1570
tp1571
Rp1572
ag5
(g9
S'>>I\xe8\x9dl\xa1?'
p1573
tp1574
Rp1575
asg33
(lp1576
g5
(g9
S'wo\x8a\xaf\xefi\n@'
p1577
tp1578
Rp1579
ag1575
asg38
F0.0
sg39
F4.92
sg40
(lp1580
F-1.08
aF4.92
asg42
(lp1581
g5
(g9
S'\x10C,\x1d\x03\xbaC@'
p1582
tp1583
Rp1584
ag5
(g9
S'{\xac\xbft\xff\xd8\xba?'
p1585
tp1586
Rp1587
asg50
F0.0
sg51
(lp1588
g5
(g9
S'\x01y\x11i\xe0l\n@'
p1589
tp1590
Rp1591
ag5
(g9
S'>>I\xe8\x9dl\xa1?'
p1592
tp1593
Rp1594
asg59
g5
(g9
S'p\xe5\xb7\x8b\x8c9O\xbf'
p1595
tp1596
Rp1597
sg63
(lp1598
g1572
ag1575
asg68
g69
(g70
(I0
tp1599
g72
tp1600
Rp1601
(I1
(I2
tp1602
g78
I00
S'\x01y\x11i\xe0l\n@>>I\xe8\x9dl\xa1?'
p1603
tp1604
bsg83
(lp1605
g5
(g9
S'\x01y\x11i\xe0l\n@'
p1606
tp1607
Rp1608
ag1575
asg85
(lp1609
g5
(g9
S'\x83\xbdH\xd0\xecj\n@'
p1610
tp1611
Rp1612
ag5
(g9
S'>>I\xe8\x9dl\xa1?'
p1613
tp1614
Rp1615
assS'SAMPL5_020'
p1616
(dp1617
g3
(lp1618
g5
(g9
S'\x9d\xd6\xc3H\xcf\xa4M@'
p1619
tp1620
Rp1621
ag5
(g9
S'?\x8d\xa5\xd9\x03\x94\xc7?'
p1622
tp1623
Rp1624
asg18
S'CCCC(=O)Nc1nc2ccc(cc2s1)C(C)C'
p1625
sg20
F9.74
sg21
(lp1626
F9.74
asg23
S'5522978'
p1627
sg25
(lp1628
g5
(g9
S'\xb5\x96&\xa9\xcc\xcd\x0e\xc0'
p1629
tp1630
Rp1631
ag5
(g9
S'H\x80\xc9@kh\xa4?'
p1632
tp1633
Rp1634
asg33
(lp1635
g5
(g9
S'\x93$&\n\xdb\xd1\x0e\xc0'
p1636
tp1637
Rp1638
ag1634
asg38
F0.0
sg39
F2.65
sg40
(lp1639
F2.65
aF-0.36
asg42
(lp1640
g5
(g9
S'sG\xc4o\x08QT@'
p1641
tp1642
Rp1643
ag5
(g9
S'\x11\x94\r\x14\xc4\x17\xc1?'
p1644
tp1645
Rp1646
asg50
F0.0
sg51
(lp1647
g5
(g9
S'\xe5\xbd\x99\x9c\xc8\xcd\x0e\xc0'
p1648
tp1649
Rp1650
ag5
(g9
S'H\x80\xc9@kh\xa4?'
p1651
tp1652
Rp1653
asg59
g5
(g9
S'\xd6\xd5L\xb1\xc5kJ\xbf'
p1654
tp1655
Rp1656
sg63
(lp1657
g5
(g9
S'c\xaeP\x02\xd7\xd1\x0e\xc0'
p1658
tp1659
Rp1660
ag1634
asg68
g69
(g70
(I0
tp1661
g72
tp1662
Rp1663
(I1
(I2
tp1664
g78
I00
S'\xe5\xbd\x99\x9c\xc8\xcd\x0e\xc0H\x80\xc9@kh\xa4?'
p1665
tp1666
bsg83
(lp1667
g1660
ag1634
asg85
(lp1668
g5
(g9
S'\xb2\xd2\xf4Xo\xcf\x0e\xc0'
p1669
tp1670
Rp1671
ag5
(g9
S'H\x80\xc9@kh\xa4?'
p1672
tp1673
Rp1674
assS'SAMPL5_049'
p1675
(dp1676
g3
(lp1677
g5
(g9
S'ml\xb9\xa5\xd0\x8dJ@'
p1678
tp1679
Rp1680
ag5
(g9
S'%\xf8V?iV\xc4?'
p1681
tp1682
Rp1683
asg18
S'c1cc(c(c(c1)Cl)Cl)NC(=O)c2ccno2'
p1684
sg20
F10.75
sg21
(lp1685
F10.75
asg23
S'5627856'
p1686
sg25
(lp1687
g5
(g9
S'Vd\x7f\xc8H\x9f\x01@'
p1688
tp1689
Rp1690
ag5
(g9
S'zv\x1a\xdb\xd6\x14\xa1?'
p1691
tp1692
Rp1693
asg33
(lp1694
g5
(g9
S'\xc7\xde\x1d\x19\xe3\x9e\x01@'
p1695
tp1696
Rp1697
ag1693
asg38
F-0.0002
sg39
F-0.31
sg40
(lp1698
F-0.31
asg42
(lp1699
g5
(g9
S'\xfd\x96\x0c\xa6iDD@'
p1700
tp1701
Rp1702
ag5
(g9
S'\x17\x15\xd5ub\xdf\xba?'
p1703
tp1704
Rp1705
asg50
F-0.00014705882352941175
sg51
(lp1706
g5
(g9
S'\xbf\xa6\xbb\xaf\xfb\x9e\x01@'
p1707
tp1708
Rp1709
ag5
(g9
S'zv\x1a\xdb\xd6\x14\xa1?'
p1710
tp1711
Rp1712
asg59
g5
(g9
S'\x00\x00\x00\x00\x00\x00\x00\x00'
p1713
tp1714
Rp1715
sg63
(lp1716
g5
(g9
S'n\xb3@\x1a\xe3\x9e\x01@'
p1717
tp1718
Rp1719
ag1693
asg68
g69
(g70
(I0
tp1720
g72
tp1721
Rp1722
(I1
(I2
tp1723
g78
I00
S'?Z\xa2\xc9H\x9f\x01@zv\x1a\xdb\xd6\x14\xa1?'
p1724
tp1725
bsg83
(lp1726
g1719
ag1693
asg85
(lp1727
g5
(g9
S'?Z\xa2\xc9H\x9f\x01@'
p1728
tp1729
Rp1730
ag5
(g9
S'zv\x1a\xdb\xd6\x14\xa1?'
p1731
tp1732
Rp1733
assS'SAMPL5_004'
p1734
(dp1735
g3
(lp1736
g5
(g9
S'@\x87Z7\xa8wP@'
p1737
tp1738
Rp1739
ag5
(g9
S'\xff\x8e\xca\xf3p\x94\xc7?'
p1740
tp1741
Rp1742
asg18
S'CCOc1ccc(cc1)Nc2cc(c3ccccc3n2)C'
p1743
sg20
F13.92
sg21
(lp1744
F13.92
asg23
S'1221528'
p1745
sg25
(lp1746
g5
(g9
S'r\xfc\xee<\x8d\xd1\x11@'
p1747
tp1748
Rp1749
ag5
(g9
S'\xc3\x91KSp\x99\xa3?'
p1750
tp1751
Rp1752
asg33
(lp1753
g5
(g9
S'~\xd5\xfb4\x8d\xd1\x11@'
p1754
tp1755
Rp1756
ag1752
asg38
F-0.0027
sg39
F6.43
sg40
(lp1757
F-0.09
aF6.43
asg42
(lp1758
g5
(g9
S'\xeaA0EX\x18D@'
p1759
tp1760
Rp1761
ag5
(g9
S'+\xea\xe1V\xc3\x14\xbe?'
p1762
tp1763
Rp1764
asg50
F-0.0019852941176470586
sg51
(lp1765
g5
(g9
S'C\xcb\x86v\xc9\xfc\x11@'
p1766
tp1767
Rp1768
ag5
(g9
S'\xc3\x91KSp\x99\xa3?'
p1769
tp1770
Rp1771
asg59
g5
(g9
S'(C\xe9\xbb\xc0p\xa3\xbf'
p1772
tp1773
Rp1774
sg63
(lp1775
g1749
ag1752
asg68
g69
(g70
(I0
tp1776
g72
tp1777
Rp1778
(I1
(I2
tp1779
g78
I00
S'\xe5\x06\\\xe5\xd1\xfe\x11@\xc3\x91KSp\x99\xa3?'
p1780
tp1781
bsg83
(lp1782
g5
(g9
S'\xe9\xcd\x8e\xdc\xd1\xfe\x11@'
p1783
tp1784
Rp1785
ag1752
asg85
(lp1786
g5
(g9
S'_4\xe4c\xf0\xd7\x11@'
p1787
tp1788
Rp1789
ag5
(g9
S'\xc3\x91KSp\x99\xa3?'
p1790
tp1791
Rp1792
assS'SAMPL5_007'
p1793
(dp1794
g3
(lp1795
g5
(g9
S'\x030\x82\x7fy\xb6P@'
p1796
tp1797
Rp1798
ag5
(g9
S'\xa3}\x99\x16>\x0c\xc7?'
p1799
tp1800
Rp1801
asg18
S'c1ccc(cc1)CCNc2c3cc(ccc3ncn2)Br'
p1802
sg20
F13.97
sg21
(lp1803
F13.97
asg23
S'1373587'
p1804
sg25
(lp1805
g5
(g9
S'\xcb\n\x89j\xca\x90\x12@'
p1806
tp1807
Rp1808
ag5
(g9
S'\x05\x0f\xf3;\x12R\xa3?'
p1809
tp1810
Rp1811
asg33
(lp1812
g5
(g9
S'B\xd2\xb3b\xca\x90\x12@'
p1813
tp1814
Rp1815
ag1811
asg38
F0.0
sg39
F4.57
sg40
(lp1816
F-0.04
aF4.57
aF3.47
asg42
(lp1817
g5
(g9
S'{\x95\xbcN\\-D@'
p1818
tp1819
Rp1820
ag5
(g9
S'\xdf\x18\x91V\xccB\xbe?'
p1821
tp1822
Rp1823
asg50
F0.0
sg51
(lp1824
g5
(g9
S'\x9f5P\xafr\x91\x12@'
p1825
tp1826
Rp1827
ag5
(g9
S'\x05\x0f\xf3;\x12R\xa3?'
p1828
tp1829
Rp1830
asg59
g5
(g9
S'\xa2]\x82\x1e\xa9\xd2<\xbf'
p1831
tp1832
Rp1833
sg63
(lp1834
g1808
ag1811
asg68
g69
(g70
(I0
tp1835
g72
tp1836
Rp1837
(I1
(I2
tp1838
g78
I00
S'\x9f5P\xafr\x91\x12@\x05\x0f\xf3;\x12R\xa3?'
p1839
tp1840
bsg83
(lp1841
g5
(g9
S'\xce\x05x\xa7r\x91\x12@'
p1842
tp1843
Rp1844
ag1811
asg85
(lp1845
g5
(g9
S'\x96\xbb\xabd\xff\x90\x12@'
p1846
tp1847
Rp1848
ag5
(g9
S'\x05\x0f\xf3;\x12R\xa3?'
p1849
tp1850
Rp1851
assS'SAMPL5_060'
p1852
(dp1853
g3
(lp1854
g5
(g9
S'\x91\xaa\x95v\x90\x88J@'
p1855
tp1856
Rp1857
ag5
(g9
S'\x8d\x83\n\x7f\xecY\xc2?'
p1858
tp1859
Rp1860
asg18
S'c1ccc2c(c1)c3cc(ncc3[nH]2)C(=O)O'
p1861
sg20
F3.75
sg21
(lp1862
F3.75
aF15.88
asg23
S'42618372'
p1863
sg25
(lp1864
g5
(g9
S'\xf3\xac\xfb;\xe8\xb2\r\xc0'
p1865
tp1866
Rp1867
ag5
(g9
S'_\xfc[\xea\xd5\xa8\x9f?'
p1868
tp1869
Rp1870
asg33
(lp1871
g5
(g9
S'\x12\xb0\xe9QVd\x1d\xc0'
p1872
tp1873
Rp1874
ag1870
asg38
F-1.2984
sg39
F5.93
sg40
(lp1875
F5.93
asg42
(lp1876
g5
(g9
S'#tOR*\x8bR@'
p1877
tp1878
Rp1879
ag5
(g9
S'\xdd21\x17\xfeW\xba?'
p1880
tp1881
Rp1882
asg50
F-0.9547058823529411
sg51
(lp1883
g5
(g9
S'`Jx\xca@\x9c\x12\xc0'
p1884
tp1885
Rp1886
ag5
(g9
S'_\xfc[\xea\xd5\xa8\x9f?'
p1887
tp1888
Rp1889
asg59
g5
(g9
S'\x8d\\\xa7\xfb\x16\xc7\x11\xc0'
p1890
tp1891
Rp1892
sg63
(lp1893
g5
(g9
S'G+\xe0tUd\x1d\xc0'
p1894
tp1895
Rp1896
ag1870
asg68
g69
(g70
(I0
tp1897
g72
tp1898
Rp1899
(I1
(I2
tp1900
g78
I00
S'\x1e\x8b\x80\xbeD\x95\r\xc0_\xfc[\xea\xd5\xa8\x9f?'
p1901
tp1902
bsg83
(lp1903
g1896
ag1870
asg85
(lp1904
g5
(g9
S'\x0e\xd1s\xad\xdcH \xc0'
p1905
tp1906
Rp1907
ag5
(g9
S'_\xfc[\xea\xd5\xa8\x9f?'
p1908
tp1909
Rp1910
assS'SAMPL5_067'
p1911
(dp1912
g3
(lp1913
g5
(g9
S'\xc2\xbbU\xcbK\xfbJ@'
p1914
tp1915
Rp1916
ag5
(g9
S'\x94\x0f\xab\xc9a\x8b\xc8?'
p1917
tp1918
Rp1919
asg18
S'CC(C)NC[C@@H](COc1cccc2c1cccc2)O'
p1920
sg20
F13.32
sg21
(lp1921
F13.32
asg23
g399
sg25
(lp1922
g5
(g9
S'\xa8\xb7\xd3\xa97:\xee?'
p1923
tp1924
Rp1925
ag5
(g9
S'\xf06X\xf1\x1fC\xa9?'
p1926
tp1927
Rp1928
asg33
(lp1929
g5
(g9
S'\r,\xec\xa57:\xee?'
p1930
tp1931
Rp1932
ag1928
asg38
F-1.4434
sg39
F9.25
sg40
(lp1933
F9.25
aF-1.29
asg42
(lp1934
g5
(g9
S'\xd8\xa96^\t\xfdB@'
p1935
tp1936
Rp1937
ag5
(g9
S'>q\xc2T&g\xca?'
p1938
tp1939
Rp1940
asg50
F-1.0613235294117647
sg51
(lp1941
g5
(g9
S'\xdbC\xb7\x9bz\xd4\xfb?'
p1942
tp1943
Rp1944
ag5
(g9
S'\xf06X\xf1\x1fC\xa9?'
p1945
tp1946
Rp1947
asg59
g5
(g9
S'F\xb3\x9e\x1aX\xb1\xff\xbf'
p1948
tp1949
Rp1950
sg63
(lp1951
g1925
ag1928
asg68
g69
(g70
(I0
tp1952
g72
tp1953
Rp1954
(I1
(I2
tp1955
g78
I00
S'\xeb\x05\xa6~\xd4g\x06@\xf06X\xf1\x1fC\xa9?'
p1956
tp1957
bsg83
(lp1958
g5
(g9
S'\xbb\x8c\x918\xd4g\x06@'
p1959
tp1960
Rp1961
ag1928
asg85
(lp1962
g5
(g9
S' \xb1Z\xc5\xa1<\xea?'
p1963
tp1964
Rp1965
ag5
(g9
S'\xf06X\xf1\x1fC\xa9?'
p1966
tp1967
Rp1968
assS'SAMPL5_065'
p1969
(dp1970
g3
(lp1971
g5
(g9
S'C\xb4\x15\x0c<\xa3`@'
p1972
tp1973
Rp1974
ag5
(g9
S'\xbf0zB\xf5\xe2\xd3?'
p1975
tp1976
Rp1977
asg18
S'COc1ccc2c(c1)[nH]c3c2CC[N@]4[C@@H]3C[C@H]5[C@@H](C4)C[C@H]([C@@H]([C@H]5C(=O)OC)OC)OC(=O)c6cc(c(c(c6)OC)OC)OC'
p1978
sg20
Nsg21
(lp1979
sg23
g399
sg25
(lp1980
g5
(g9
S'\xca\xd8a[no\xfe?'
p1981
tp1982
Rp1983
ag5
(g9
S't\xbeL\x19\x87*\xb0?'
p1984
tp1985
Rp1986
asg33
(lp1987
g5
(g9
S'\xca\xd8a[no\xfe?'
p1988
tp1989
Rp1990
ag1986
asg38
F-0.1986
sg39
F8.15
sg40
(lp1991
F-1.05
aF8.15
asg42
(lp1992
g5
(g9
S'\xc2K\x83h\x9ec]@'
p1993
tp1994
Rp1995
ag5
(g9
S']H\xc6\xd9gb\xc7?'
p1996
tp1997
Rp1998
asg50
F-0.14602941176470588
sg51
(lp1999
g5
(g9
S'\xe5g\x96\x129\x9e\x04@'
p2000
tp2001
Rp2002
ag5
(g9
S't\xbeL\x19\x87*\xb0?'
p2003
tp2004
Rp2005
asg59
g5
(g9
S'\x85\xc2\xde\xf3?\xc9\xeb\xbf'
p2006
tp2007
Rp2008
sg63
(lp2009
g1983
ag1986
asg68
g69
(g70
(I0
tp2010
g72
tp2011
Rp2012
(I1
(I2
tp2013
g78
I00
S'\x90\xact\x8aJ\xc9\x05@t\xbeL\x19\x87*\xb0?'
p2014
tp2015
bsg83
(lp2016
g5
(g9
S'\x90\xact\x8aJ\xc9\x05@'
p2017
tp2018
Rp2019
ag1986
asg85
(lp2020
g5
(g9
S'\xde\xf7\xf9\x1a\xf5\xad\xfd?'
p2021
tp2022
Rp2023
ag5
(g9
S't\xbeL\x19\x87*\xb0?'
p2024
tp2025
Rp2026
assS'SAMPL5_002'
p2027
(dp2028
g3
(lp2029
g5
(g9
S'\xa8\xc5\x06\x07?\x9aM@'
p2030
tp2031
Rp2032
ag5
(g9
S']\xdeU\xd0#\x12\xc6?'
p2033
tp2034
Rp2035
asg18
S'CCOC(=O)c1c(c2c(c(c(nc2s1)C)C)C)N'
p2036
sg20
F11.05
sg21
(lp2037
F11.05
aF11.05
asg23
S'1254130'
p2038
sg25
(lp2039
g5
(g9
S'y\xd7^\xf2\xbaK\x01@'
p2040
tp2041
Rp2042
ag5
(g9
S'\x95\x08\x87\xce\nE\xa2?'
p2043
tp2044
Rp2045
asg33
(lp2046
g5
(g9
S'D\x99H\t\x88K\x01@'
p2047
tp2048
Rp2049
ag2045
asg38
F0.0
sg39
F4.46
sg40
(lp2050
F2.92
aF4.46
asg42
(lp2051
g5
(g9
S'U\x1d\x9b\xa6InG@'
p2052
tp2053
Rp2054
ag5
(g9
S'8\xf0\x0f\x02\xf8\xc0\xbb?'
p2055
tp2056
Rp2057
asg50
F0.0
sg51
(lp2058
g5
(g9
S'\xd5\x10\xe09\xc0L\x01@'
p2059
tp2060
Rp2061
ag5
(g9
S'\x95\x08\x87\xce\nE\xa2?'
p2062
tp2063
Rp2064
asg59
g5
(g9
S'm>\xaci\x1b73\xbf'
p2065
tp2066
Rp2067
sg63
(lp2068
g2042
ag2045
asg68
g69
(g70
(I0
tp2069
g72
tp2070
Rp2071
(I1
(I2
tp2072
g78
I00
S'\xd5\x10\xe09\xc0L\x01@\x95\x08\x87\xce\nE\xa2?'
p2073
tp2074
bsg83
(lp2075
g5
(g9
S'\x99x\xd3A\x8dL\x01@'
p2076
tp2077
Rp2078
ag2045
asg85
(lp2079
g5
(g9
S's\xc3\x04\x81&L\x01@'
p2080
tp2081
Rp2082
ag5
(g9
S'\x95\x08\x87\xce\nE\xa2?'
p2083
tp2084
Rp2085
assS'SAMPL5_070'
p2086
(dp2087
g3
(lp2088
g5
(g9
S'Cq}\x7fR\xe1L@'
p2089
tp2090
Rp2091
ag5
(g9
S'\xc4f\xa55\xb8h\xca?'
p2092
tp2093
Rp2094
asg18
S'CN(C)CCC=C1c2ccccc2CCc3c1cccc3'
p2095
sg20
Nsg21
(lp2096
sg23
g399
sg25
(lp2097
g5
(g9
S'\xb2\xe4\xc4\x03|8\x08@'
p2098
tp2099
Rp2100
ag5
(g9
S'\x85d\xfeM;\xad\xa5?'
p2101
tp2102
Rp2103
asg33
(lp2104
g5
(g9
S'\xb2\xe4\xc4\x03|8\x08@'
p2105
tp2106
Rp2107
ag2103
asg38
F-1.3071
sg39
F9.1
sg40
(lp2108
F9.1
asg42
(lp2109
g5
(g9
S'v\xda\r\xc2\xee\xb9>@'
p2110
tp2111
Rp2112
ag5
(g9
S'\x04\xeb\xad7\n\x1b\xc0?'
p2113
tp2114
Rp2115
asg50
F-0.9611029411764704
sg51
(lp2116
g5
(g9
S'8\xb2;DQ3\x0e@'
p2117
tp2118
Rp2119
ag5
(g9
S'\x85d\xfeM;\xad\xa5?'
p2120
tp2121
Rp2122
asg59
g5
(g9
S'\x08\xf7O\xb0i\x14\xfd\xbf'
p2123
tp2124
Rp2125
sg63
(lp2126
g2100
ag2103
asg68
g69
(g70
(I0
tp2127
g72
tp2128
Rp2129
(I1
(I2
tp2130
g78
I00
S'\x14\x9e\xaf\x00\xd4\xf1\x12@\x85d\xfeM;\xad\xa5?'
p2131
tp2132
bsg83
(lp2133
g5
(g9
S'\x14\x9e\xaf\x00\xd4\xf1\x12@'
p2134
tp2135
Rp2136
ag2103
asg85
(lp2137
g5
(g9
S'\xa4@7)sY\x07@'
p2138
tp2139
Rp2140
ag5
(g9
S'\x85d\xfeM;\xad\xa5?'
p2141
tp2142
Rp2143
assS'SAMPL5_069'
p2144
(dp2145
g3
(lp2146
g5
(g9
S'D_mHP\xd4R@'
p2147
tp2148
Rp2149
ag5
(g9
S'Z\xd3q\xc4\xcam\xca?'
p2150
tp2151
Rp2152
asg18
S'C[N@]1CCc2cc(c(c-3c2[C@@H]1Cc4c3cc(c(c4)O)OC)OC)O'
p2153
sg20
F10.1
sg21
(lp2154
F10.1
aF10.22
asg23
g399
sg25
(lp2155
g5
(g9
S'a\x18.\xb8\xc5\xf0\x00@'
p2156
tp2157
Rp2158
ag5
(g9
S'u\xbc\xbb^W\x9d\xa6?'
p2159
tp2160
Rp2161
asg33
(lp2162
g5
(g9
S'\x97\x98\xb0)z\xf0\x00@'
p2163
tp2164
Rp2165
ag2161
asg38
F-0.1734
sg39
F8.1
sg40
(lp2166
F8.1
asg42
(lp2167
g5
(g9
S'\xbe\xad\xe5zQdM@'
p2168
tp2169
Rp2170
ag5
(g9
S'\xedb+l\xc1\x84\xc2?'
p2171
tp2172
Rp2173
asg50
F-0.1275
sg51
(lp2174
g5
(g9
S"\xcc[\x8cv\x10'\x06@"
p2175
tp2176
Rp2177
ag5
(g9
S'u\xbc\xbb^W\x9d\xa6?'
p2178
tp2179
Rp2180
asg59
g5
(g9
S'\xa1\x08\xe8\xd4F\xef\xea\xbf'
p2181
tp2182
Rp2183
sg63
(lp2184
g2158
ag2161
asg68
g69
(g70
(I0
tp2185
g72
tp2186
Rp2187
(I1
(I2
tp2188
g78
I00
S'QG\xde./,\x07@u\xbc\xbb^W\x9d\xa6?'
p2189
tp2190
bsg83
(lp2191
g5
(g9
S'\xb5p\xddRi*\x07@'
p2192
tp2193
Rp2194
ag2161
asg85
(lp2195
g5
(g9
S')E\xa4y]p\x00@'
p2196
tp2197
Rp2198
ag5
(g9
S'u\xbc\xbb^W\x9d\xa6?'
p2199
tp2200
Rp2201
assS'SAMPL5_068'
p2202
(dp2203
g3
(lp2204
g5
(g9
S'\x80\x900\xb5\xf4\x8bQ@'
p2205
tp2206
Rp2207
ag5
(g9
S'\xf8\xce\x1a\xcd<\xfd\xc9?'
p2208
tp2209
Rp2210
asg18
S'c1ccc(cc1)c2c(nnc(n2)c3ccccn3)c4ccccc4'
p2211
sg20
Nsg21
(lp2212
sg23
g399
sg25
(lp2213
g5
(g9
S'\xffZ\xd3\x90t-\x11@'
p2214
tp2215
Rp2216
ag5
(g9
S'\xf1\x9a\x97\xaa$\x19\xa5?'
p2217
tp2218
Rp2219
asg33
(lp2220
g5
(g9
S'\xffZ\xd3\x90t-\x11@'
p2221
tp2222
Rp2223
ag2219
asg38
F0.0
sg39
F0.83
sg40
(lp2224
F-2.69
aF0.83
asg42
(lp2225
g5
(g9
S'\xf7~G\xf7R\xd6F@'
p2226
tp2227
Rp2228
ag5
(g9
S'\xf1\x9b)l\xc9e\xbe?'
p2229
tp2230
Rp2231
asg50
F0.0
sg51
(lp2232
g5
(g9
S'\xd0\x8a\xab\x98t-\x11@'
p2233
tp2234
Rp2235
ag5
(g9
S'\xf1\x9a\x97\xaa$\x19\xa5?'
p2236
tp2237
Rp2238
asg59
g5
(g9
S'\x00\x00\x00\x00\x00\x00\x00\x00'
p2239
tp2240
Rp2241
sg63
(lp2242
g2216
ag2219
asg68
g69
(g70
(I0
tp2243
g72
tp2244
Rp2245
(I1
(I2
tp2246
g78
I00
S'\xd0\x8a\xab\x98t-\x11@\xf1\x9a\x97\xaa$\x19\xa5?'
p2247
tp2248
bsg83
(lp2249
g5
(g9
S'\xd0\x8a\xab\x98t-\x11@'
p2250
tp2251
Rp2252
ag2219
asg85
(lp2253
g5
(g9
S'\xd0\x8a\xab\x98t-\x11@'
p2254
tp2255
Rp2256
ag5
(g9
S'\xf1\x9a\x97\xaa$\x19\xa5?'
p2257
tp2258
Rp2259
assS'SAMPL5_045'
p2260
(dp2261
g3
(lp2262
g5
(g9
S'\xf0\xabB\xde\xcf\xc7G@'
p2263
tp2264
Rp2265
ag5
(g9
S'\xa6\xfa\xf7\x8b"\x8d\xc2?'
p2266
tp2267
Rp2268
asg18
S'CCC(=O)Nc1ccc2c(c1)ncs2'
p2269
sg20
F11.72
sg21
(lp2270
F11.72
asg23
S'12474692'
p2271
sg25
(lp2272
g5
(g9
S'\xe6\x12\x87\xa7\x97\xbe\xff\xbf'
p2273
tp2274
Rp2275
ag5
(g9
S'h\xa5\x92p\xd4\xa9\xa0?'
p2276
tp2277
Rp2278
asg33
(lp2279
g5
(g9
S'c\x1eAs\xad\xbe\xff\xbf'
p2280
tp2281
Rp2282
ag2278
asg38
F0.0
sg39
F1.7
sg40
(lp2283
F1.11
aF1.7
asg42
(lp2284
g5
(g9
S'\xa6\x08\x9b\xcddqM@'
p2285
tp2286
Rp2287
ag5
(g9
S'"\x1f\xd24*\xc0\xbd?'
p2288
tp2289
Rp2290
asg50
F0.0
sg51
(lp2291
g5
(g9
S'E\x8c\xeb\xbe\x96\xbe\xff\xbf'
p2292
tp2293
Rp2294
ag5
(g9
S'h\xa5\x92p\xd4\xa9\xa0?'
p2295
tp2296
Rp2297
asg59
g5
(g9
S'\x00\x00\x00\x00\x00\x00\x00\x00'
p2298
tp2299
Rp2300
sg63
(lp2301
g5
(g9
S'[q\xa8\x8a\xac\xbe\xff\xbf'
p2302
tp2303
Rp2304
ag2278
asg68
g69
(g70
(I0
tp2305
g72
tp2306
Rp2307
(I1
(I2
tp2308
g78
I00
S'E\x8c\xeb\xbe\x96\xbe\xff\xbfh\xa5\x92p\xd4\xa9\xa0?'
p2309
tp2310
bsg83
(lp2311
g2304
ag2278
asg85
(lp2312
g5
(g9
S'E\x8c\xeb\xbe\x96\xbe\xff\xbf'
p2313
tp2314
Rp2315
ag5
(g9
S'h\xa5\x92p\xd4\xa9\xa0?'
p2316
tp2317
Rp2318
assS'SAMPL5_044'
p2319
(dp2320
g3
(lp2321
g5
(g9
S'\xfdi\x89\xc4\x98\x19S@'
p2322
tp2323
Rp2324
ag5
(g9
S'\x8e\xdbAW\x85Z\xc7?'
p2325
tp2326
Rp2327
asg18
S'c1ccc2c(c1)cc(c(=O)o2)C(=O)Nc3ccc4c(c3)scn4'
p2328
sg20
F11.71
sg21
(lp2329
F11.71
asg23
S'4987019'
p2330
sg25
(lp2331
g5
(g9
S'_\xc8\x0b\xec\xce^\x04@'
p2332
tp2333
Rp2334
ag5
(g9
S'\xc0\xbc\xc6\x06\xe0e\xa3?'
p2335
tp2336
Rp2337
asg33
(lp2338
g5
(g9
S'\xa7\xe91\xc5\xc3^\x04@'
p2339
tp2340
Rp2341
ag2337
asg38
F0.0
sg39
F0.78
sg40
(lp2342
F0.78
aF0.5
aF-1.29
asg42
(lp2343
g5
(g9
S'w\xbe\xc2\x03\xcf\xeeN@'
p2344
tp2345
Rp2346
ag5
(g9
S'\x94\xefI!\xb4\xb8\xbd?'
p2347
tp2348
Rp2349
asg50
F0.0
sg51
(lp2350
g5
(g9
S'%a\x07\xfa\xce^\x04@'
p2351
tp2352
Rp2353
ag5
(g9
S'\xc0\xbc\xc6\x06\xe0e\xa3?'
p2354
tp2355
Rp2356
asg59
g5
(g9
S'\x00\x00\x00\x00\x00\x00\x00\x00'
p2357
tp2358
Rp2359
sg63
(lp2360
g5
(g9
S'\x8bU-\xd3\xc3^\x04@'
p2361
tp2362
Rp2363
ag2337
asg68
g69
(g70
(I0
tp2364
g72
tp2365
Rp2366
(I1
(I2
tp2367
g78
I00
S'%a\x07\xfa\xce^\x04@\xc0\xbc\xc6\x06\xe0e\xa3?'
p2368
tp2369
bsg83
(lp2370
g2363
ag2337
asg85
(lp2371
g5
(g9
S'%a\x07\xfa\xce^\x04@'
p2372
tp2373
Rp2374
ag5
(g9
S'\xc0\xbc\xc6\x06\xe0e\xa3?'
p2375
tp2376
Rp2377
assS'SAMPL5_048'
p2378
(dp2379
g3
(lp2380
g5
(g9
S'\xdb|\x96w\xfe\x1fS@'
p2381
tp2382
Rp2383
ag5
(g9
S'\xc6\xb0\xd1\xa5\xee\xd8\xc8?'
p2384
tp2385
Rp2386
asg18
S'c1ccc2c(c1)nc(s2)c3cccc(c3)NC(=O)c4ccno4'
p2387
sg20
F11.23
sg21
(lp2388
F11.23
asg23
S'5627798'
p2389
sg25
(lp2390
g5
(g9
S'\xbb@\x8a\x92j\x0e\xf2?'
p2391
tp2392
Rp2393
ag5
(g9
S'-\xdd"\x10\xf7\xd6\xa4?'
p2394
tp2395
Rp2396
asg33
(lp2397
g5
(g9
S",\xeea8'\x0e\xf2?"
p2398
tp2399
Rp2400
ag2396
asg38
F0.0
sg39
F1.43
sg40
(lp2401
F1.43
aF0.29
asg42
(lp2402
g5
(g9
S'\xb0\xa3_N\xbb\x83Q@'
p2403
tp2404
Rp2405
ag5
(g9
S'\xa8\x9d\xf3U\xddV\xc0?'
p2406
tp2407
Rp2408
asg50
F0.0
sg51
(lp2409
g5
(g9
S'\xb3.u\x0fk\x0e\xf2?'
p2410
tp2411
Rp2412
ag5
(g9
S'-\xdd"\x10\xf7\xd6\xa4?'
p2413
tp2414
Rp2415
asg59
g5
(g9
S'\x00\x00\x00\x00\x00\x00\x00\x00'
p2416
tp2417
Rp2418
sg63
(lp2419
g5
(g9
S"p!H\xb5'\x0e\xf2?"
p2420
tp2421
Rp2422
ag2396
asg68
g69
(g70
(I0
tp2423
g72
tp2424
Rp2425
(I1
(I2
tp2426
g78
I00
S'\xb3.u\x0fk\x0e\xf2?-\xdd"\x10\xf7\xd6\xa4?'
p2427
tp2428
bsg83
(lp2429
g2422
ag2396
asg85
(lp2430
g5
(g9
S'\xb3.u\x0fk\x0e\xf2?'
p2431
tp2432
Rp2433
ag5
(g9
S'-\xdd"\x10\xf7\xd6\xa4?'
p2434
tp2435
Rp2436
assS'SAMPL5_046'
p2437
(dp2438
g3
(lp2439
g5
(g9
S'6\x11\xf2[SeQ@'
p2440
tp2441
Rp2442
ag5
(g9
S'\xaa\x19\xb6C{\xf2\xc7?'
p2443
tp2444
Rp2445
asg18
S'CSc1ccc(cc1)CC(=O)Nc2c3ccsc3ncn2'
p2446
sg20
F10.04
sg21
(lp2447
F10.04
asg23
S'12046880'
p2448
sg25
(lp2449
g5
(g9
S'\xed\xb7\x00S\x06\x89\xff?'
p2450
tp2451
Rp2452
ag5
(g9
S'L\xe5\xbd]Ra\xa4?'
p2453
tp2454
Rp2455
asg33
(lp2456
g5
(g9
S'\x9a\xc3\x8aG\xf4\x84\xff?'
p2457
tp2458
Rp2459
ag2455
asg38
F0.0
sg39
F1.7
sg40
(lp2460
F1.7
aF0.84
aF-0.88
asg42
(lp2461
g5
(g9
S'\x19a\xb7\x93\x9f*M@'
p2462
tp2463
Rp2464
ag5
(g9
S'\xffk\xfe\x08\x95\x80\xc0?'
p2465
tp2466
Rp2467
asg50
F0.0
sg51
(lp2468
g5
(g9
S'\x8e>\x9c;\x07\x89\xff?'
p2469
tp2470
Rp2471
ag5
(g9
S'L\xe5\xbd]Ra\xa4?'
p2472
tp2473
Rp2474
asg59
g5
(g9
S':\xc6\xe1\xd6\xfe\x9dE\xbf'
p2475
tp2476
Rp2477
sg63
(lp2478
g5
(g9
S'\xb7/\x9e/\xf5\x84\xff?'
p2479
tp2480
Rp2481
ag2455
asg68
g69
(g70
(I0
tp2482
g72
tp2483
Rp2484
(I1
(I2
tp2485
g78
I00
S'\x8e>\x9c;\x07\x89\xff?L\xe5\xbd]Ra\xa4?'
p2486
tp2487
bsg83
(lp2488
g2481
ag2455
asg85
(lp2489
g5
(g9
S'Ub\xc1{S\x86\xff?'
p2490
tp2491
Rp2492
ag5
(g9
S'L\xe5\xbd]Ra\xa4?'
p2493
tp2494
Rp2495
assS'SAMPL5_006'
p2496
(dp2497
g3
(lp2498
g5
(g9
S'\xbeB\x9e\xb7\xa2\x99H@'
p2499
tp2500
Rp2501
ag5
(g9
S'j\x11\xbd|\xd9v\xc4?'
p2502
tp2503
Rp2504
asg18
S'C=C(Cn1c2ccccc2nc1CO)Br'
p2505
sg20
F10.9
sg21
(lp2506
F10.9
asg23
S'2118862'
p2507
sg25
(lp2508
g5
(g9
S'\xab\xacw"\xccA\xf5?'
p2509
tp2510
Rp2511
ag5
(g9
S'\x12\xa2\x8aoxs\xa1?'
p2512
tp2513
Rp2514
asg33
(lp2515
g5
(g9
S'\xc7+\xa7\xa9@A\xf5?'
p2516
tp2517
Rp2518
ag2514
asg38
F0.0
sg39
F5.91
sg40
(lp2519
F5.91
aF-1.98
asg42
(lp2520
g5
(g9
S'\x93nKK\xd9\xc4D@'
p2521
tp2522
Rp2523
ag5
(g9
S'k\xd3#\xc5Oa\xbc?'
p2524
tp2525
Rp2526
asg50
F0.0
sg51
(lp2527
g5
(g9
S'^D\xfb\xe2rz\xf5?'
p2528
tp2529
Rp2530
ag5
(g9
S'\x12\xa2\x8aoxs\xa1?'
p2531
tp2532
Rp2533
asg59
g5
(g9
S'!\x8a|\x8dp\xd1\x86\xbf'
p2534
tp2535
Rp2536
sg63
(lp2537
g2511
ag2514
asg68
g69
(g70
(I0
tp2538
g72
tp2539
Rp2540
(I1
(I2
tp2541
g78
I00
S'^D\xfb\xe2rz\xf5?\x12\xa2\x8aoxs\xa1?'
p2542
tp2543
bsg83
(lp2544
g5
(g9
S'\x89\xeb\xf6\xe6\xe2y\xf5?'
p2545
tp2546
Rp2547
ag2514
asg85
(lp2548
g5
(g9
S'JK\xe0\x01\xd0L\xf5?'
p2549
tp2550
Rp2551
ag5
(g9
S'\x12\xa2\x8aoxs\xa1?'
p2552
tp2553
Rp2554
assS'SAMPL5_063'
p2555
(dp2556
g3
(lp2557
g5
(g9
S'M\xef\x9bhT\xa7J@'
p2558
tp2559
Rp2560
ag5
(g9
S'l\xc0l@\xa4\x14\xc5?'
p2561
tp2562
Rp2563
asg18
S'C1C[C@H](CNC1)N2CCC(CC2)C(=O)N'
p2564
sg20
F13.25
sg21
(lp2565
F13.25
aF13.25
asg23
S'38498425'
p2566
sg25
(lp2567
g5
(g9
S'\xa8t\x02U\x92\x06\x18\xc0'
p2568
tp2569
Rp2570
ag5
(g9
S'\xc8\x08\x8a\xa4x\xcb\xa1?'
p2571
tp2572
Rp2573
asg33
(lp2574
g5
(g9
S' ;8U\x92\x06\x18\xc0'
p2575
tp2576
Rp2577
ag2573
asg38
F-3.3279
sg39
F9.69
sg40
(lp2578
F9.69
aF8.66
aF-0.31
asg42
(lp2579
g5
(g9
S'\x86\x96\x04\xb1\x81\xa0R@'
p2580
tp2581
Rp2582
ag5
(g9
S'\x98\xd1\xc5;kP\xbc?'
p2583
tp2584
Rp2585
asg50
F-2.446985294117647
sg51
(lp2586
g5
(g9
S'\xd49A\xb2\x0c\xa5\x18\xc0'
p2587
tp2588
Rp2589
ag5
(g9
S'\xc8\x08\x8a\xa4x\xcb\xa1?'
p2590
tp2591
Rp2592
asg59
g5
(g9
S'E\t!\x93\x06Y\x18\xc0'
p2593
tp2594
Rp2595
sg63
(lp2596
g2570
ag2573
asg68
g69
(g70
(I0
tp2597
g72
tp2598
Rp2599
(I1
(I2
tp2600
g78
I00
S'\xd69\xe2]\xac\xb6\r\xc0\xc8\x08\x8a\xa4x\xcb\xa1?'
p2601
tp2602
bsg83
(lp2603
g5
(g9
S')q8\xb0\xac\xb6\r\xc0'
p2604
tp2605
Rp2606
ag2573
asg85
(lp2607
g5
(g9
S'\x18\x13\ta.\x9a#\xc0'
p2608
tp2609
Rp2610
ag5
(g9
S'\xc8\x08\x8a\xa4x\xcb\xa1?'
p2611
tp2612
Rp2613
assS'SAMPL5_047'
p2614
(dp2615
g3
(lp2616
g5
(g9
S'\xa6\xc1\xd1\x11c\xd6P@'
p2617
tp2618
Rp2619
ag5
(g9
S'YL^\x85Z\x8f\xc6?'
p2620
tp2621
Rp2622
asg18
S'c1cnoc1C(=O)Nc2c(c3c(s2)CCCC3)C#N'
p2623
sg20
F11.35
sg21
(lp2624
F11.35
asg23
S'5627778'
p2625
sg25
(lp2626
g5
(g9
S'\xd1\x1f\xbe=\xc7\xdf\t@'
p2627
tp2628
Rp2629
ag5
(g9
S'\xc5\xf4\xddA\tw\xa2?'
p2630
tp2631
Rp2632
asg33
(lp2633
g5
(g9
S'\xd6\xa7\xdc\xb1\xad\xdf\t@'
p2634
tp2635
Rp2636
ag2632
asg38
F-1.3858
sg39
F-0.83
sg40
(lp2637
F-0.83
asg42
(lp2638
g5
(g9
S'\xd1\xe5\xe0\x17\xbdqH@'
p2639
tp2640
Rp2641
ag5
(g9
S'\xa4mn\x85z:\xbb?'
p2642
tp2643
Rp2644
asg50
F-1.018970588235294
sg51
(lp2645
g5
(g9
S'\x8e\x8a\xd50\xed\xb8\x01@'
p2646
tp2647
Rp2648
ag5
(g9
S'\xc5\xf4\xddA\tw\xa2?'
p2649
tp2650
Rp2651
asg59
g5
(g9
S'\x00\x00\x00\x00\x00\x00\x00\x00'
p2652
tp2653
Rp2654
sg63
(lp2655
g5
(g9
S'\xb3\x834\xb2\xad\xdf\t@'
p2656
tp2657
Rp2658
ag2632
asg68
g69
(g70
(I0
tp2659
g72
tp2660
Rp2661
(I1
(I2
tp2662
g78
I00
S'4\xfe\x15>\xc7\xdf\t@\xc5\xf4\xddA\tw\xa2?'
p2663
tp2664
bsg83
(lp2665
g2658
ag2632
asg85
(lp2666
g5
(g9
S'4\xfe\x15>\xc7\xdf\t@'
p2667
tp2668
Rp2669
ag5
(g9
S'\xc5\xf4\xddA\tw\xa2?'
p2670
tp2671
Rp2672
assS'SAMPL5_055'
p2673
(dp2674
g3
(lp2675
g5
(g9
S'\xf6|]\x1a\xa0\x87E@'
p2676
tp2677
Rp2678
ag5
(g9
S':h*&\xeb\xe4\xbf?'
p2679
tp2680
Rp2681
asg18
S'c1ccc2c(c1)ncc(n2)C(=O)N'
p2682
sg20
F10.75
sg21
(lp2683
F10.75
aF10.75
asg23
S'3800934'
p2684
sg25
(lp2685
g5
(g9
S'\xbe\x8d\xa5\xbec\n\xe1\xbf'
p2686
tp2687
Rp2688
ag5
(g9
S'\xf4\xeeG\xd6\xbcL\x9b?'
p2689
tp2690
Rp2691
asg33
(lp2692
g5
(g9
S'\xb6\xf8+|\xfa\x0b\xe1\xbf'
p2693
tp2694
Rp2695
ag2691
asg38
F0.0
sg39
F-0.75
sg40
(lp2696
F-0.75
aF-2.22
aF-1.9
asg42
(lp2697
g5
(g9
S'4\xf0\xeaH\xb2\x0cG@'
p2698
tp2699
Rp2700
ag5
(g9
S'\xfd\x13\xf6)\x92^\xb6?'
p2701
tp2702
Rp2703
asg50
F0.0
sg51
(lp2704
g5
(g9
S'\xf1\xfc\xfe\xbcc\n\xe1\xbf'
p2705
tp2706
Rp2707
ag5
(g9
S'\xf4\xeeG\xd6\xbcL\x9b?'
p2708
tp2709
Rp2710
asg59
g5
(g9
S'\x00\x00\x00\x00\x00\x00\x00\x00'
p2711
tp2712
Rp2713
sg63
(lp2714
g5
(g9
S'7\x98\x85z\xfa\x0b\xe1\xbf'
p2715
tp2716
Rp2717
ag2691
asg68
g69
(g70
(I0
tp2718
g72
tp2719
Rp2720
(I1
(I2
tp2721
g78
I00
S'\xf1\xfc\xfe\xbcc\n\xe1\xbf\xf4\xeeG\xd6\xbcL\x9b?'
p2722
tp2723
bsg83
(lp2724
g2717
ag2691
asg85
(lp2725
g5
(g9
S'\xf1\xfc\xfe\xbcc\n\xe1\xbf'
p2726
tp2727
Rp2728
ag5
(g9
S'\xf4\xeeG\xd6\xbcL\x9b?'
p2729
tp2730
Rp2731
assS'SAMPL5_088'
p2732
(dp2733
g3
(lp2734
g5
(g9
S'|\x88\x9fojXM@'
p2735
tp2736
Rp2737
ag5
(g9
S'\xaf\\\x8b\xbf\xd1\xe6\xc9?'
p2738
tp2739
Rp2740
asg18
S'CCN(Cc1ccncc1)C(=O)[C@H](CO)c2ccccc2'
p2741
sg20
F14.6
sg21
(lp2742
F14.6
asg23
g399
sg25
(lp2743
g5
(g9
S'V\x8d\xe5\x8f\xd1/\xad\xbf'
p2744
tp2745
Rp2746
ag5
(g9
S'\xe5!H^\x9d\x88\xa5?'
p2747
tp2748
Rp2749
asg33
(lp2750
g5
(g9
S'\x0fJ\x08s\xd2/\xad\xbf'
p2751
tp2752
Rp2753
ag2749
asg38
F0.0
sg39
F5.96
sg40
(lp2754
F5.96
aF-0.13
aF-2.19
asg42
(lp2755
g5
(g9
S'\x9cN\xb6\xb6\xbfvM@'
p2756
tp2757
Rp2758
ag5
(g9
S'/\x169t\x84\x88\xc0?'
p2759
tp2760
Rp2761
asg50
F0.0
sg51
(lp2762
g5
(g9
S'\xf2\xa8\xe8\xb4\xacA\xa5\xbf'
p2763
tp2764
Rp2765
ag5
(g9
S'\xe5!H^\x9d\x88\xa5?'
p2766
tp2767
Rp2768
asg59
g5
(g9
S'e\x1b,\x9f\x9e\xab\x89\xbf'
p2769
tp2770
Rp2771
sg63
(lp2772
g2746
ag2749
asg68
g69
(g70
(I0
tp2773
g72
tp2774
Rp2775
(I1
(I2
tp2776
g78
I00
S'\xf2\xa8\xe8\xb4\xacA\xa5\xbf\xe5!H^\x9d\x88\xa5?'
p2777
tp2778
bsg83
(lp2779
g5
(g9
S'\xdf\x93J\xa0\xadA\xa5\xbf'
p2780
tp2781
Rp2782
ag2749
asg85
(lp2783
g5
(g9
S'\xcb\xaf\xb3\\\x94\xac\xab\xbf'
p2784
tp2785
Rp2786
ag5
(g9
S'\xe5!H^\x9d\x88\xa5?'
p2787
tp2788
Rp2789
assS'SAMPL5_092'
p2790
(dp2791
g3
(lp2792
g5
(g9
S'I\x8d\xae\x83\xa4T[@'
p2793
tp2794
Rp2795
ag5
(g9
S'\xe1\xd4\xb9.\xaa\xb1\xd3?'
p2796
tp2797
Rp2798
asg18
S'CC(=O)N1CCN(CC1)c2ccc(cc2)OC[C@H]3CO[C@](O3)(Cn4ccnc4)c5ccc(cc5Cl)Cl'
p2799
sg20
Nsg21
(lp2800
sg23
g399
sg25
(lp2801
g5
(g9
S'\xba\xf5\xa9\xc7aL\xf5?'
p2802
tp2803
Rp2804
ag5
(g9
S'\xabE~%\xc1i\xb4?'
p2805
tp2806
Rp2807
asg33
(lp2808
g5
(g9
S'\xba\xf5\xa9\xc7aL\xf5?'
p2809
tp2810
Rp2811
ag2807
asg38
F-0.0001
sg39
F7.15
sg40
(lp2812
F5.52
aF7.15
aF0.27
asg42
(lp2813
g5
(g9
S"\x81{\x06\xaf\x91'Y@"
p2814
tp2815
Rp2816
ag5
(g9
S'9\x05\x8c\x8a\x9ev\xd5?'
p2817
tp2818
Rp2819
asg50
F-7.352941176470588e-05
sg51
(lp2820
g5
(g9
S'O-Nu\xc9e\xf8?'
p2821
tp2822
Rp2823
ag5
(g9
S'\xabE~%\xc1i\xb4?'
p2824
tp2825
Rp2826
asg59
g5
(g9
S'\x00>\xa59p\xc7\xc8\xbf'
p2827
tp2828
Rp2829
sg63
(lp2830
g2804
ag2807
asg68
g69
(g70
(I0
tp2831
g72
tp2832
Rp2833
(I1
(I2
tp2834
g78
I00
S'\xcf\xe04\x8f\x16f\xf8?\xabE~%\xc1i\xb4?'
p2835
tp2836
bsg83
(lp2837
g5
(g9
S'\xcf\xe04\x8f\x16f\xf8?'
p2838
tp2839
Rp2840
ag2807
asg85
(lp2841
g5
(g9
S'\x0f9\x00\x88(M\xf5?'
p2842
tp2843
Rp2844
ag5
(g9
S'\xabE~%\xc1i\xb4?'
p2845
tp2846
Rp2847
assS'SAMPL5_090'
p2848
(dp2849
g3
(lp2850
g5
(g9
S'\x8b\xc2#\x9d\xb8\xb7Q@'
p2851
tp2852
Rp2853
ag5
(g9
S"H+f3\x12'\xca?"
p2854
tp2855
Rp2856
asg18
S'Cc1cc2c(cc1C)nc(c(n2)c3ccccn3)c4ccccn4'
p2857
sg20
Nsg21
(lp2858
sg23
g399
sg25
(lp2859
g5
(g9
S'P\xeay\x19:G\x11@'
p2860
tp2861
Rp2862
ag5
(g9
S"\xbb^\x07\xd5'z\xa7?"
p2863
tp2864
Rp2865
asg33
(lp2866
g5
(g9
S'P\xeay\x19:G\x11@'
p2867
tp2868
Rp2869
ag2865
asg38
F0.0
sg39
F4.44
sg40
(lp2870
F-1.32
aF-1.32
aF4.44
aF4.44
asg42
(lp2871
g5
(g9
S'{\xd8\xa5o\x1e\x1bG@'
p2872
tp2873
Rp2874
ag5
(g9
S'\xe4l|\x9fB\xf0\xc4?'
p2875
tp2876
Rp2877
asg50
F0.0
sg51
(lp2878
g5
(g9
S'\xe9\x15\xd6\xdc\xb6G\x11@'
p2879
tp2880
Rp2881
ag5
(g9
S"\xbb^\x07\xd5'z\xa7?"
p2882
tp2883
Rp2884
asg59
g5
(g9
S'm>\xaci\x1b73\xbf'
p2885
tp2886
Rp2887
sg63
(lp2888
g2862
ag2865
asg68
g69
(g70
(I0
tp2889
g72
tp2890
Rp2891
(I1
(I2
tp2892
g78
I00
S"\xe9\x15\xd6\xdc\xb6G\x11@\xbb^\x07\xd5'z\xa7?"
p2893
tp2894
bsg83
(lp2895
g5
(g9
S'\xe9\x15\xd6\xdc\xb6G\x11@'
p2896
tp2897
Rp2898
ag2865
asg85
(lp2899
g5
(g9
S'8oh\x00jG\x11@'
p2900
tp2901
Rp2902
ag5
(g9
S"\xbb^\x07\xd5'z\xa7?"
p2903
tp2904
Rp2905
assS'SAMPL5_005'
p2906
(dp2907
g3
(lp2908
g5
(g9
S'\xb5^-\x01\xa8>Q@'
p2909
tp2910
Rp2911
ag5
(g9
S'\n(\x15\xfd\xe3j\xc6?'
p2912
tp2913
Rp2914
asg18
S'Cn1ccnc1SCC(=O)Nc2ccc3c(c2)OCO3'
p2915
sg20
F11.49
sg21
(lp2916
F11.49
asg23
S'1363085'
p2917
sg25
(lp2918
g5
(g9
S'\x88\x93\x13\xd5`\x07\xf0?'
p2919
tp2920
Rp2921
ag5
(g9
S'\x84\x99\x9d_\xc8^\xa6?'
p2922
tp2923
Rp2924
asg33
(lp2925
g5
(g9
S'\x19\xafG\xfa>\x07\xf0?'
p2926
tp2927
Rp2928
ag2924
asg38
F0.0
sg39
F6.37
sg40
(lp2929
F6.37
aF0.04
asg42
(lp2930
g5
(g9
S'\xd9z\x19u\x0f\x85O@'
p2931
tp2932
Rp2933
ag5
(g9
S'\xeby>\xdf\xf8\xb9\xc6?'
p2934
tp2935
Rp2936
asg50
F0.0
sg51
(lp2937
g5
(g9
S'l\x0bC\x93\x18\xa6\xf0?'
p2938
tp2939
Rp2940
ag5
(g9
S'\x84\x99\x9d_\xc8^\xa6?'
p2941
tp2942
Rp2943
asg59
g5
(g9
S'y\x91h\xdcx\x13\xa1\xbf'
p2944
tp2945
Rp2946
sg63
(lp2947
g2921
ag2924
asg68
g69
(g70
(I0
tp2948
g72
tp2949
Rp2950
(I1
(I2
tp2951
g78
I00
S'l\x0bC\x93\x18\xa6\xf0?\x84\x99\x9d_\xc8^\xa6?'
p2952
tp2953
bsg83
(lp2954
g5
(g9
S'\x03r\xaa\x8f\xf3\xa5\xf0?'
p2955
tp2956
Rp2957
ag2924
asg85
(lp2958
g5
(g9
S'\xe0\xc6_\xcc|\x1d\xf0?'
p2959
tp2960
Rp2961
ag5
(g9
S'\x84\x99\x9d_\xc8^\xa6?'
p2962
tp2963
Rp2964
assS'SAMPL5_042'
p2965
(dp2966
g3
(lp2967
g5
(g9
S'\xf3\x1f(\xf1q:P@'
p2968
tp2969
Rp2970
ag5
(g9
S'}9\x97\xd1.\xd0\xc7?'
p2971
tp2972
Rp2973
asg18
S'c1ccc(cc1)c2ccccc2NC(=O)c3ccc(=O)[nH]n3'
p2974
sg20
F8.57
sg21
(lp2975
F11.33
aF8.57
asg23
S'1552842'
p2976
sg25
(lp2977
g5
(g9
S'*\x9e\xab-\xf6\xbe\xf5\xbf'
p2978
tp2979
Rp2980
ag5
(g9
S'|\xb5\xb1l\xdb\xc5\xa7?'
p2981
tp2982
Rp2983
asg33
(lp2984
g5
(g9
S'[\xf6\xf1@V3\xf6\xbf'
p2985
tp2986
Rp2987
ag2983
asg38
F0.0
sg39
F0.5
sg40
(lp2988
F-1.73
aF0.5
asg42
(lp2989
g5
(g9
S'\x81\xdd\x87\xef\xf2*R@'
p2990
tp2991
Rp2992
ag5
(g9
S'N\xd0m\x1bE)\xc8?'
p2993
tp2994
Rp2995
asg50
F0.0
sg51
(lp2996
g5
(g9
S'`k\xfe\x1e\xf6\xbe\xf5\xbf'
p2997
tp2998
Rp2999
ag5
(g9
S'|\xb5\xb1l\xdb\xc5\xa7?'
p3000
tp3001
Rp3002
asg59
g5
(g9
S'9\\\xce:\xd2\xb1\x98\xbf'
p3003
tp3004
Rp3005
sg63
(lp3006
g5
(g9
S'\x10\xb223V3\xf6\xbf'
p3007
tp3008
Rp3009
ag2983
asg68
g69
(g70
(I0
tp3010
g72
tp3011
Rp3012
(I1
(I2
tp3013
g78
I00
S'`k\xfe\x1e\xf6\xbe\xf5\xbf|\xb5\xb1l\xdb\xc5\xa7?'
p3014
tp3015
bsg83
(lp3016
g3009
ag2983
asg85
(lp3017
g5
(g9
S'\xd1\xa4\xe9g\xbd!\xf6\xbf'
p3018
tp3019
Rp3020
ag5
(g9
S'|\xb5\xb1l\xdb\xc5\xa7?'
p3021
tp3022
Rp3023
assS'SAMPL5_033'
p3024
(dp3025
g3
(lp3026
g5
(g9
S'\x00u\x01\x14\x9f\xecQ@'
p3027
tp3028
Rp3029
ag5
(g9
S'\xb9;\xa0*0\xd8\xca?'
p3030
tp3031
Rp3032
asg18
S'Cc1ccc(cc1NC(=O)N2CCCCC[C@@H]2c3cccs3)Cl'
p3033
sg20
F12.17
sg21
(lp3034
F12.17
asg23
S'16363773'
p3035
sg25
(lp3036
g5
(g9
S';\x18\xdc\t\t\x92\x0e@'
p3037
tp3038
Rp3039
ag5
(g9
S'\r\x95\x0c\xfb\xe5\x8d\xa6?'
p3040
tp3041
Rp3042
asg33
(lp3043
g5
(g9
S'Xw\xfb+\x05\x92\x0e@'
p3044
tp3045
Rp3046
ag3042
asg38
F0.0
sg39
F2.72
sg40
(lp3047
F2.72
asg42
(lp3048
g5
(g9
S'\xc0<S\x92K\xf1H@'
p3049
tp3050
Rp3051
ag5
(g9
S'_\xe2\xbd\xcaV\xc1\xc1?'
p3052
tp3053
Rp3054
asg50
F0.0
sg51
(lp3055
g5
(g9
S'q\xb8\xb2\xcb\r\x92\x0e@'
p3056
tp3057
Rp3058
ag5
(g9
S'\r\x95\x0c\xfb\xe5\x8d\xa6?'
p3059
tp3060
Rp3061
asg59
g5
(g9
S'\x00\x00\x00\x00\x00\x00\x00\x00'
p3062
tp3063
Rp3064
sg63
(lp3065
g3039
ag3042
asg68
g69
(g70
(I0
tp3066
g72
tp3067
Rp3068
(I1
(I2
tp3069
g78
I00
S'q\xb8\xb2\xcb\r\x92\x0e@\r\x95\x0c\xfb\xe5\x8d\xa6?'
p3070
tp3071
bsg83
(lp3072
g5
(g9
S'0\xcc\xcc\xed\t\x92\x0e@'
p3073
tp3074
Rp3075
ag3042
asg85
(lp3076
g5
(g9
S'q\xb8\xb2\xcb\r\x92\x0e@'
p3077
tp3078
Rp3079
ag5
(g9
S'\r\x95\x0c\xfb\xe5\x8d\xa6?'
p3080
tp3081
Rp3082
assS'SAMPL5_037'
p3083
(dp3084
g3
(lp3085
g5
(g9
S'B5\xe2\x06\x1f\x12G@'
p3086
tp3087
Rp3088
ag5
(g9
S'\x11\xab\xb9\xdbx\t\xc2?'
p3089
tp3090
Rp3091
asg18
S'CN(C)S(=O)(=O)N1CCNCC1'
p3092
sg20
Nsg21
(lp3093
sg23
S'833953'
p3094
sg25
(lp3095
g5
(g9
S'D>\xc44\xea\xe9\x14\xc0'
p3096
tp3097
Rp3098
ag5
(g9
S'\xa8(\xc1)\xc3\x9b\x9f?'
p3099
tp3100
Rp3101
asg33
(lp3102
g5
(g9
S'D>\xc44\xea\xe9\x14\xc0'
p3103
tp3104
Rp3105
ag3101
asg38
F-0.0065
sg39
F7.81
sg40
(lp3106
F-1.5
aF-0.07
aF7.81
asg42
(lp3107
g5
(g9
S'\xa5*>V(5R@'
p3108
tp3109
Rp3110
ag5
(g9
S'M\xae\xa1\xe8\xaa\x13\xbb?'
p3111
tp3112
Rp3113
asg50
F-0.004779411764705882
sg51
(lp3114
g5
(g9
S'!\xba\x91\xd2\xd3\xb8\x12\xc0'
p3115
tp3116
Rp3117
ag5
(g9
S'\xa8(\xc1)\xc3\x9b\x9f?'
p3118
tp3119
Rp3120
asg59
g5
(g9
S'\xfe\x07(\xdaPF\xe2\xbf'
p3121
tp3122
Rp3123
sg63
(lp3124
g3098
ag3101
asg68
g69
(g70
(I0
tp3125
g72
tp3126
Rp3127
(I1
(I2
tp3128
g78
I00
S'<\xd5\xac\xed\xee\xb3\x12\xc0\xa8(\xc1)\xc3\x9b\x9f?'
p3129
tp3130
bsg83
(lp3131
g5
(g9
S'<\xd5\xac\xed\xee\xb3\x12\xc0'
p3132
tp3133
Rp3134
ag3101
asg85
(lp3135
g5
(g9
S'<\xd6\xf1\x08\xb9\xfc\x14\xc0'
p3136
tp3137
Rp3138
ag5
(g9
S'\xa8(\xc1)\xc3\x9b\x9f?'
p3139
tp3140
Rp3141
ass.