(lp0
(lp1
cnumpy.core.multiarray
scalar
p2
(cnumpy
dtype
p3
(S'S10'
p4
I0
I1
tp5
Rp6
(I3
S'|'
p7
NNNI10
I1
I0
tp8
bS'SAMPL5_015'
p9
tp10
Rp11
ag2
(g3
(S'S10'
p12
I0
I1
tp13
Rp14
(I3
S'|'
p15
NNNI10
I1
I0
tp16
bS'SAMPL5_037'
p17
tp18
Rp19
ag2
(g3
(S'S10'
p20
I0
I1
tp21
Rp22
(I3
S'|'
p23
NNNI10
I1
I0
tp24
bS'SAMPL5_061'
p25
tp26
Rp27
ag2
(g3
(S'S10'
p28
I0
I1
tp29
Rp30
(I3
S'|'
p31
NNNI10
I1
I0
tp32
bS'SAMPL5_055'
p33
tp34
Rp35
ag2
(g3
(S'S10'
p36
I0
I1
tp37
Rp38
(I3
S'|'
p39
NNNI10
I1
I0
tp40
bS'SAMPL5_045'
p41
tp42
Rp43
ag2
(g3
(S'S10'
p44
I0
I1
tp45
Rp46
(I3
S'|'
p47
NNNI10
I1
I0
tp48
bS'SAMPL5_059'
p49
tp50
Rp51
ag2
(g3
(S'S10'
p52
I0
I1
tp53
Rp54
(I3
S'|'
p55
NNNI10
I1
I0
tp56
bS'SAMPL5_003'
p57
tp58
Rp59
ag2
(g3
(S'S10'
p60
I0
I1
tp61
Rp62
(I3
S'|'
p63
NNNI10
I1
I0
tp64
bS'SAMPL5_020'
p65
tp66
Rp67
ag2
(g3
(S'S10'
p68
I0
I1
tp69
Rp70
(I3
S'|'
p71
NNNI10
I1
I0
tp72
bS'SAMPL5_068'
p73
tp74
Rp75
ag2
(g3
(S'S10'
p76
I0
I1
tp77
Rp78
(I3
S'|'
p79
NNNI10
I1
I0
tp80
bS'SAMPL5_070'
p81
tp82
Rp83
ag2
(g3
(S'S10'
p84
I0
I1
tp85
Rp86
(I3
S'|'
p87
NNNI10
I1
I0
tp88
bS'SAMPL5_080'
p89
tp90
Rp91
ag2
(g3
(S'S10'
p92
I0
I1
tp93
Rp94
(I3
S'|'
p95
NNNI10
I1
I0
tp96
bS'SAMPL5_058'
p97
tp98
Rp99
ag2
(g3
(S'S10'
p100
I0
I1
tp101
Rp102
(I3
S'|'
p103
NNNI10
I1
I0
tp104
bS'SAMPL5_017'
p105
tp106
Rp107
aa(lp108
g2
(g3
(S'S10'
p109
I0
I1
tp110
Rp111
(I3
S'|'
p112
NNNI10
I1
I0
tp113
bS'SAMPL5_060'
p114
tp115
Rp116
ag2
(g3
(S'S10'
p117
I0
I1
tp118
Rp119
(I3
S'|'
p120
NNNI10
I1
I0
tp121
bS'SAMPL5_063'
p122
tp123
Rp124
ag2
(g3
(S'S10'
p125
I0
I1
tp126
Rp127
(I3
S'|'
p128
NNNI10
I1
I0
tp129
bS'SAMPL5_056'
p130
tp131
Rp132
ag2
(g3
(S'S10'
p133
I0
I1
tp134
Rp135
(I3
S'|'
p136
NNNI10
I1
I0
tp137
bS'SAMPL5_010'
p138
tp139
Rp140
ag2
(g3
(S'S10'
p141
I0
I1
tp142
Rp143
(I3
S'|'
p144
NNNI10
I1
I0
tp145
bS'SAMPL5_005'
p146
tp147
Rp148
ag2
(g3
(S'S10'
p149
I0
I1
tp150
Rp151
(I3
S'|'
p152
NNNI10
I1
I0
tp153
bS'SAMPL5_047'
p154
tp155
Rp156
ag2
(g3
(S'S10'
p157
I0
I1
tp158
Rp159
(I3
S'|'
p160
NNNI10
I1
I0
tp161
bS'SAMPL5_046'
p162
tp163
Rp164
ag2
(g3
(S'S10'
p165
I0
I1
tp166
Rp167
(I3
S'|'
p168
NNNI10
I1
I0
tp169
bS'SAMPL5_048'
p170
tp171
Rp172
ag2
(g3
(S'S10'
p173
I0
I1
tp174
Rp175
(I3
S'|'
p176
NNNI10
I1
I0
tp177
bS'SAMPL5_090'
p178
tp179
Rp180
ag2
(g3
(S'S10'
p181
I0
I1
tp182
Rp183
(I3
S'|'
p184
NNNI10
I1
I0
tp185
bS'SAMPL5_072'
p186
tp187
Rp188
ag2
(g3
(S'S10'
p189
I0
I1
tp190
Rp191
(I3
S'|'
p192
NNNI10
I1
I0
tp193
bS'SAMPL5_071'
p194
tp195
Rp196
ag2
(g3
(S'S10'
p197
I0
I1
tp198
Rp199
(I3
S'|'
p200
NNNI10
I1
I0
tp201
bS'SAMPL5_081'
p202
tp203
Rp204
ag2
(g3
(S'S10'
p205
I0
I1
tp206
Rp207
(I3
S'|'
p208
NNNI10
I1
I0
tp209
bS'SAMPL5_011'
p210
tp211
Rp212
ag2
(g3
(S'S10'
p213
I0
I1
tp214
Rp215
(I3
S'|'
p216
NNNI10
I1
I0
tp217
bS'SAMPL5_027'
p218
tp219
Rp220
ag2
(g3
(S'S10'
p221
I0
I1
tp222
Rp223
(I3
S'|'
p224
NNNI10
I1
I0
tp225
bS'SAMPL5_026'
p226
tp227
Rp228
ag2
(g3
(S'S10'
p229
I0
I1
tp230
Rp231
(I3
S'|'
p232
NNNI10
I1
I0
tp233
bS'SAMPL5_042'
p234
tp235
Rp236
ag2
(g3
(S'S10'
p237
I0
I1
tp238
Rp239
(I3
S'|'
p240
NNNI10
I1
I0
tp241
bS'SAMPL5_021'
p242
tp243
Rp244
ag2
(g3
(S'S10'
p245
I0
I1
tp246
Rp247
(I3
S'|'
p248
NNNI10
I1
I0
tp249
bS'SAMPL5_007'
p250
tp251
Rp252
ag2
(g3
(S'S10'
p253
I0
I1
tp254
Rp255
(I3
S'|'
p256
NNNI10
I1
I0
tp257
bS'SAMPL5_044'
p258
tp259
Rp260
ag2
(g3
(S'S10'
p261
I0
I1
tp262
Rp263
(I3
S'|'
p264
NNNI10
I1
I0
tp265
bS'SAMPL5_004'
p266
tp267
Rp268
aa(lp269
g2
(g3
(S'S10'
p270
I0
I1
tp271
Rp272
(I3
S'|'
p273
NNNI10
I1
I0
tp274
bS'SAMPL5_024'
p275
tp276
Rp277
ag2
(g3
(S'S10'
p278
I0
I1
tp279
Rp280
(I3
S'|'
p281
NNNI10
I1
I0
tp282
bS'SAMPL5_033'
p283
tp284
Rp285
ag2
(g3
(S'S10'
p286
I0
I1
tp287
Rp288
(I3
S'|'
p289
NNNI10
I1
I0
tp290
bS'SAMPL5_082'
p291
tp292
Rp293
ag2
(g3
(S'S10'
p294
I0
I1
tp295
Rp296
(I3
S'|'
p297
NNNI10
I1
I0
tp298
bS'SAMPL5_084'
p299
tp300
Rp301
ag2
(g3
(S'S10'
p302
I0
I1
tp303
Rp304
(I3
S'|'
p305
NNNI10
I1
I0
tp306
bS'SAMPL5_092'
p307
tp308
Rp309
ag2
(g3
(S'S10'
p310
I0
I1
tp311
Rp312
(I3
S'|'
p313
NNNI10
I1
I0
tp314
bS'SAMPL5_065'
p315
tp316
Rp317
ag2
(g3
(S'S10'
p318
I0
I1
tp319
Rp320
(I3
S'|'
p321
NNNI10
I1
I0
tp322
bS'SAMPL5_013'
p323
tp324
Rp325
ag2
(g3
(S'S10'
p326
I0
I1
tp327
Rp328
(I3
S'|'
p329
NNNI10
I1
I0
tp330
bS'SAMPL5_019'
p331
tp332
Rp333
ag2
(g3
(S'S10'
p334
I0
I1
tp335
Rp336
(I3
S'|'
p337
NNNI10
I1
I0
tp338
bS'SAMPL5_074'
p339
tp340
Rp341
ag2
(g3
(S'S10'
p342
I0
I1
tp343
Rp344
(I3
S'|'
p345
NNNI10
I1
I0
tp346
bS'SAMPL5_088'
p347
tp348
Rp349
ag2
(g3
(S'S10'
p350
I0
I1
tp351
Rp352
(I3
S'|'
p353
NNNI10
I1
I0
tp354
bS'SAMPL5_049'
p355
tp356
Rp357
ag2
(g3
(S'S10'
p358
I0
I1
tp359
Rp360
(I3
S'|'
p361
NNNI10
I1
I0
tp362
bS'SAMPL5_002'
p363
tp364
Rp365
ag2
(g3
(S'S10'
p366
I0
I1
tp367
Rp368
(I3
S'|'
p369
NNNI10
I1
I0
tp370
bS'SAMPL5_083'
p371
tp372
Rp373
ag2
(g3
(S'S10'
p374
I0
I1
tp375
Rp376
(I3
S'|'
p377
NNNI10
I1
I0
tp378
bS'SAMPL5_006'
p379
tp380
Rp381
ag2
(g3
(S'S10'
p382
I0
I1
tp383
Rp384
(I3
S'|'
p385
NNNI10
I1
I0
tp386
bS'SAMPL5_085'
p387
tp388
Rp389
ag2
(g3
(S'S10'
p390
I0
I1
tp391
Rp392
(I3
S'|'
p393
NNNI10
I1
I0
tp394
bS'SAMPL5_067'
p395
tp396
Rp397
ag2
(g3
(S'S10'
p398
I0
I1
tp399
Rp400
(I3
S'|'
p401
NNNI10
I1
I0
tp402
bS'SAMPL5_069'
p403
tp404
Rp405
ag2
(g3
(S'S10'
p406
I0
I1
tp407
Rp408
(I3
S'|'
p409
NNNI10
I1
I0
tp410
bS'SAMPL5_086'
p411
tp412
Rp413
ag2
(g3
(S'S10'
p414
I0
I1
tp415
Rp416
(I3
S'|'
p417
NNNI10
I1
I0
tp418
bS'SAMPL5_050'
p419
tp420
Rp421
ag2
(g3
(S'S10'
p422
I0
I1
tp423
Rp424
(I3
S'|'
p425
NNNI10
I1
I0
tp426
bS'SAMPL5_075'
p427
tp428
Rp429
aa.