(dp0
S'SAMPL5_017'
p1
(dp2
S'Smiles'
p3
S'c1ccc2c(c1)c(nc(n2)c3ccccc3O)NC4CCCC4'
p4
sS'data'
p5
(lp6
F2.9
aF0.5
asS'EmolID'
p7
S'2425478'
p8
ssS'SAMPL5_058'
p9
(dp10
g3
S'c1ccc(cc1)n2c(=O)c3ccccc3cn2'
p11
sg5
(lp12
F1.2
aF0.3
asg7
S'3730323'
p13
ssS'SAMPL5_059'
p14
(dp15
g3
S'c1ccc(cc1)c2nc(sn2)N'
p16
sg5
(lp17
F-0.9
aF0.5
asg7
S'711981'
p18
ssS'SAMPL5_013'
p19
(dp20
g3
S'Cc1ccc(cc1)c2nc(c3c(n2)n(c(=O)[nH]3)c4ccccc4)C(=O)N'
p21
sg5
(lp22
F-1.0
aF0.5
asg7
S'16095985'
p23
ssS'SAMPL5_010'
p24
(dp25
g3
S'c1cc(cc(c1)NCc2ccncc2)C(=O)O'
p26
sg5
(lp27
F-1.3
aF0.5
asg7
S'1491855'
p28
ssS'SAMPL5_011'
p29
(dp30
g3
S'Cc1cc(nc(n1)Nc2ccccc2C(=O)O)C'
p31
sg5
(lp32
F-2.6
aF0.3
asg7
S'542592'
p33
ssS'SAMPL5_074'
p34
(dp35
g3
S'c1nc(c2c(n1)n(cn2)[C@H]3[C@@H]([C@@H]([C@H](O3)CO)O)O)N'
p36
sg5
(lp37
F-1.5
aF0.5
asg7
S''
p38
ssS'SAMPL5_075'
p39
(dp40
g3
S'CC(C)NC[C@@H](COc1ccc(cc1)CCOC)O'
p41
sg5
(lp42
F-2.4
aF0.5
asg7
g38
ssS'SAMPL5_050'
p43
(dp44
g3
S'Cc1ccc2c(n1)nn3c2nc(cc3O)C'
p45
sg5
(lp46
F-3.0
aF0.5
asg7
S'5663556'
p47
ssS'SAMPL5_056'
p48
(dp49
g3
S'CC(C)[C@@H]1Cc2c(cc(c(n2)O)C#N)CO1'
p50
sg5
(lp51
F-2.1
aF0.5
asg7
g38
ssS'SAMPL5_071'
p52
(dp53
g3
S'CCOc1cc(c(cc1N2CCOCC2)OCC)N'
p54
sg5
(lp55
F0.4
aF0.5
asg7
g38
ssS'SAMPL5_072'
p56
(dp57
g3
S'CN(C)CCOC(c1ccccc1)c2ccccc2'
p58
sg5
(lp59
F1.0
aF0.5
asg7
g38
ssS'SAMPL5_019'
p60
(dp61
g3
S'Cc1ccc(cc1)Nc2ccnc(n2)Nc3ccc(cc3)C'
p62
sg5
(lp63
F1.8
aF0.5
asg7
S'43423819'
p64
ssS'SAMPL5_015'
p65
(dp66
g3
S'Cc1ccc2c(c1)c(ncn2)NCC(=O)O'
p67
sg5
(lp68
F-1.9
aF0.5
asg7
S'1355949'
p69
ssS'SAMPL5_065'
p70
(dp71
g3
S'COc1ccc2c(c1)[nH]c3c2CC[N@]4[C@@H]3C[C@H]5[C@@H](C4)C[C@H]([C@@H]([C@H]5C(=O)OC)OC)OC(=O)c6cc(c(c(c6)OC)OC)OC'
p72
sg5
(lp73
F1.1
aF0.5
asg7
g38
ssS'SAMPL5_085'
p74
(dp75
g3
S'c1ccc(cc1)C2(C(=O)NC(=O)N2)c3ccccc3'
p76
sg5
(lp77
F-1.9
aF0.5
asg7
g38
ssS'SAMPL5_084'
p78
(dp79
g3
S'c1cc(ccc1C(=O)CCCN2CCC(CC2)(c3ccc(cc3)Cl)O)F'
p80
sg5
(lp81
F0.4
aF0.5
asg7
g38
ssS'SAMPL5_086'
p82
(dp83
g3
S'CCCCOc1cc(c2ccccc2n1)C(=O)NCCN(CC)CC'
p84
sg5
(lp85
F1.1
aF0.3
asg7
g38
ssS'SAMPL5_081'
p86
(dp87
g3
S'CC(C)NC[C@H](COc1ccc(cc1)CC(=O)N)O'
p88
sg5
(lp89
F-1.8
aF0.5
asg7
g38
ssS'SAMPL5_080'
p90
(dp91
g3
S'Cn1cnc2c1c(=O)n(c(=O)n2C)C'
p92
sg5
(lp93
F-1.8
aF0.5
asg7
g38
ssS'SAMPL5_083'
p94
(dp95
g3
S'C[C@H]1/C=C/C=C(\\C(=O)NC\\2=C(C3=C(C(=C4C(=C3C(=O)/C2=C/NN5CCN(CC5)C)C(=O)[C@](O4)(O/C=C/[C@@H]([C@H]([C@H]([C@@H]([C@@H]([C@@H]([C@H]1O)C)O)C)OC(=O)C)C)OC)C)C)O)O)/C'
p96
sg5
(lp97
F-1.6
aF0.5
asg7
g38
ssS'SAMPL5_082'
p98
(dp99
g3
S'CC/C(=C(\\c1ccccc1)/c2ccc(cc2)OCCN(C)C)/c3ccccc3'
p100
sg5
(lp101
F2.9
aF0.5
asg7
g38
ssS'SAMPL5_007'
p102
(dp103
g3
S'c1ccc(cc1)CCNc2c3cc(ccc3ncn2)Br'
p104
sg5
(lp105
F1.8
aF0.5
asg7
S'1373587'
p106
ssS'SAMPL5_027'
p107
(dp108
g3
S'c1ccc(cc1)CNc2ncnc(n2)N'
p109
sg5
(lp110
F-1.5
aF0.4
asg7
S'2483781'
p111
ssS'SAMPL5_026'
p112
(dp113
g3
S'Cc1cc(c2c(c1)c(c([nH]2)C)CC(=O)O)C'
p114
sg5
(lp115
F-2.2
aF0.5
asg7
S'703690'
p116
ssS'SAMPL5_024'
p117
(dp118
g3
S'Cc1ccc2c(c1)cc3cc(sc3n2)C(=O)Nc4ccc(c(c4)C)C'
p119
sg5
(lp120
F1.5
aF0.5
asg7
S'16329490'
p121
ssS'SAMPL5_021'
p122
(dp123
g3
S'Cc1nn2cc(nc2s1)c3cccc(c3)OC'
p124
sg5
(lp125
F1.6
aF0.5
asg7
S'31467689'
p126
ssS'SAMPL5_020'
p127
(dp128
g3
S'CCCC(=O)Nc1nc2ccc(cc2s1)C(C)C'
p129
sg5
(lp130
F2.0
aF0.4
asg7
S'5522978'
p131
ssS'SAMPL5_049'
p132
(dp133
g3
S'c1cc(c(c(c1)Cl)Cl)NC(=O)c2ccno2'
p134
sg5
(lp135
F1.7
aF0.3
asg7
S'5627856'
p136
ssS'SAMPL5_004'
p137
(dp138
g3
S'CCOc1ccc(cc1)Nc2cc(c3ccccc3n2)C'
p139
sg5
(lp140
F2.6
aF0.5
asg7
S'1221528'
p141
ssS'SAMPL5_061'
p142
(dp143
g3
S'Cc1nccc(n1)[C@@]2(CNCCO2)C'
p144
sg5
(lp145
F-1.0
aF0.3
asg7
S'43241882'
p146
ssS'SAMPL5_060'
p147
(dp148
g3
S'c1ccc2c(c1)c3cc(ncc3[nH]2)C(=O)O'
p149
sg5
(lp150
F-3.5
aF0.4
asg7
S'42618372'
p151
ssS'SAMPL5_067'
p152
(dp153
g3
S'CC(C)NC[C@@H](COc1cccc2c1cccc2)O'
p154
sg5
(lp155
F-0.9
aF0.5
asg7
g38
ssS'SAMPL5_003'
p156
(dp157
g3
S'c1ccc2c(c1)c(=O)oc(n2)c3ccccc3F'
p158
sg5
(lp159
F2.4
aF0.3
asg7
S'1231787'
p160
ssS'SAMPL5_002'
p161
(dp162
g3
S'CCOC(=O)c1c(c2c(c(c(nc2s1)C)C)C)N'
p163
sg5
(lp164
F1.9
aF0.5
asg7
S'1254130'
p165
ssS'SAMPL5_070'
p166
(dp167
g3
S'CN(C)CCC=C1c2ccccc2CCc3c1cccc3'
p168
sg5
(lp169
F2.0
aF0.5
asg7
g38
ssS'SAMPL5_069'
p170
(dp171
g3
S'C[N@]1CCc2cc(c(c-3c2[C@@H]1Cc4c3cc(c(c4)O)OC)OC)O'
p172
sg5
(lp173
F-0.8
aF0.5
asg7
g38
ssS'SAMPL5_068'
p174
(dp175
g3
S'c1ccc(cc1)c2c(nnc(n2)c3ccccn3)c4ccccc4'
p176
sg5
(lp177
F1.8
aF0.5
asg7
g38
ssS'SAMPL5_045'
p178
(dp179
g3
S'CCC(=O)Nc1ccc2c(c1)ncs2'
p180
sg5
(lp181
F-1.7
aF0.5
asg7
S'12474692'
p182
ssS'SAMPL5_044'
p183
(dp184
g3
S'c1ccc2c(c1)cc(c(=O)o2)C(=O)Nc3ccc4c(c3)scn4'
p185
sg5
(lp186
F1.5
aF0.5
asg7
S'4987019'
p187
ssS'SAMPL5_048'
p188
(dp189
g3
S'c1ccc2c(c1)nc(s2)c3cccc(c3)NC(=O)c4ccno4'
p190
sg5
(lp191
F1.4
aF0.5
asg7
S'5627798'
p192
ssS'SAMPL5_046'
p193
(dp194
g3
S'CSc1ccc(cc1)CC(=O)Nc2c3ccsc3ncn2'
p195
sg5
(lp196
F0.6
aF0.5
asg7
S'12046880'
p197
ssS'SAMPL5_006'
p198
(dp199
g3
S'C=C(Cn1c2ccccc2nc1CO)Br'
p200
sg5
(lp201
F-0.6
aF0.3
asg7
S'2118862'
p202
ssS'SAMPL5_063'
p203
(dp204
g3
S'C1C[C@H](CNC1)N2CCC(CC2)C(=O)N'
p205
sg5
(lp206
F-2.7
aF0.5
asg7
S'38498425'
p207
ssS'SAMPL5_047'
p208
(dp209
g3
S'c1cnoc1C(=O)Nc2c(c3c(s2)CCCC3)C#N'
p210
sg5
(lp211
F0.0
aF0.5
asg7
S'5627778'
p212
ssS'SAMPL5_055'
p213
(dp214
g3
S'c1ccc2c(c1)ncc(n2)C(=O)N'
p215
sg5
(lp216
F-1.1
aF0.3
asg7
S'3800934'
p217
ssS'SAMPL5_088'
p218
(dp219
g3
S'CCN(Cc1ccncc1)C(=O)[C@H](CO)c2ccccc2'
p220
sg5
(lp221
F-1.5
aF0.5
asg7
g38
ssS'SAMPL5_092'
p222
(dp223
g3
S'CC(=O)N1CCN(CC1)c2ccc(cc2)OC[C@H]3CO[C@](O3)(Cn4ccnc4)c5ccc(cc5Cl)Cl'
p224
sg5
(lp225
F0.0
aF0.5
asg7
g38
ssS'SAMPL5_090'
p226
(dp227
g3
S'Cc1cc2c(cc1C)nc(c(n2)c3ccccn3)c4ccccn4'
p228
sg5
(lp229
F1.2
aF0.5
asg7
g38
ssS'SAMPL5_005'
p230
(dp231
g3
S'Cn1ccnc1SCC(=O)Nc2ccc3c(c2)OCO3'
p232
sg5
(lp233
F-0.5
aF0.3
asg7
S'1363085'
p234
ssS'SAMPL5_042'
p235
(dp236
g3
S'c1ccc(cc1)c2ccccc2NC(=O)c3ccc(=O)[nH]n3'
p237
sg5
(lp238
F-0.7
aF0.5
asg7
S'1552842'
p239
ssS'SAMPL5_033'
p240
(dp241
g3
S'Cc1ccc(cc1NC(=O)N2CCCCC[C@@H]2c3cccs3)Cl'
p242
sg5
(lp243
F2.2
aF0.5
asg7
S'16363773'
p244
ssS'SAMPL5_037'
p245
(dp246
g3
S'CN(C)S(=O)(=O)N1CCNCC1'
p247
sg5
(lp248
F-1.1
aF0.5
asg7
S'833953'
p249
ss.