(dp0
S'SAMPL5_017'
p1
(dp2
S'Smiles'
p3
S'c1ccc2c(c1)c(nc(n2)c3ccccc3O)NC4CCCC4'
p4
sS'EmolID'
p5
S'2425478'
p6
ssS'SAMPL5_058'
p7
(dp8
g3
S'c1ccc(cc1)n2c(=O)c3ccccc3cn2'
p9
sg5
S'3730323'
p10
ssS'SAMPL5_059'
p11
(dp12
g3
S'c1ccc(cc1)c2nc(sn2)N'
p13
sg5
S'711981'
p14
ssS'SAMPL5_013'
p15
(dp16
g3
S'Cc1ccc(cc1)c2nc(c3c(n2)n(c(=O)[nH]3)c4ccccc4)C(=O)N'
p17
sg5
S'16095985'
p18
ssS'SAMPL5_010'
p19
(dp20
g3
S'c1cc(cc(c1)NCc2ccncc2)C(=O)O'
p21
sg5
S'1491855'
p22
ssS'SAMPL5_004'
p23
(dp24
g3
S'CCOc1ccc(cc1)Nc2cc(c3ccccc3n2)C'
p25
sg5
S'1221528'
p26
ssS'SAMPL5_074'
p27
(dp28
g3
S'c1nc(c2c(n1)n(cn2)[C@H]3[C@@H]([C@@H]([C@H](O3)CO)O)O)N'
p29
sg5
S''
p30
ssS'SAMPL5_075'
p31
(dp32
g3
S'CC(C)NC[C@@H](COc1ccc(cc1)CCOC)O'
p33
sg5
g30
ssS'SAMPL5_050'
p34
(dp35
g3
S'Cc1ccc2c(n1)nn3c2nc(cc3O)C'
p36
sg5
S'5663556'
p37
ssS'SAMPL5_056'
p38
(dp39
g3
S'CC(C)[C@@H]1Cc2c(cc(c(n2)O)C#N)CO1'
p40
sg5
g30
ssS'SAMPL5_071'
p41
(dp42
g3
S'CCOc1cc(c(cc1N2CCOCC2)OCC)N'
p43
sg5
g30
ssS'SAMPL5_072'
p44
(dp45
g3
S'CN(C)CCOC(c1ccccc1)c2ccccc2'
p46
sg5
g30
ssS'SAMPL5_019'
p47
(dp48
g3
S'Cc1ccc(cc1)Nc2ccnc(n2)Nc3ccc(cc3)C'
p49
sg5
S'43423819'
p50
ssS'SAMPL5_061'
p51
(dp52
g3
S'Cc1nccc(n1)[C@@]2(CNCCO2)C'
p53
sg5
S'43241882'
p54
ssS'SAMPL5_015'
p55
(dp56
g3
S'Cc1ccc2c(c1)c(ncn2)NCC(=O)O'
p57
sg5
S'1355949'
p58
ssS'SAMPL5_086'
p59
(dp60
g3
S'CCCCOc1cc(c2ccccc2n1)C(=O)NCCN(CC)CC'
p61
sg5
g30
ssS'SAMPL5_068'
p62
(dp63
g3
S'c1ccc(cc1)c2c(nnc(n2)c3ccccn3)c4ccccc4'
p64
sg5
g30
ssS'SAMPL5_003'
p65
(dp66
g3
S'c1ccc2c(c1)c(=O)oc(n2)c3ccccc3F'
p67
sg5
S'1231787'
p68
ssS'SAMPL5_085'
p69
(dp70
g3
S'c1ccc(cc1)C2(C(=O)NC(=O)N2)c3ccccc3'
p71
sg5
g30
ssS'SAMPL5_084'
p72
(dp73
g3
S'c1cc(ccc1C(=O)CCCN2CCC(CC2)(c3ccc(cc3)Cl)O)F'
p74
sg5
g30
ssS'SAMPL5_011'
p75
(dp76
g3
S'Cc1cc(nc(n1)Nc2ccccc2C(=O)O)C'
p77
sg5
S'542592'
p78
ssS'SAMPL5_081'
p79
(dp80
g3
S'CC(C)NC[C@H](COc1ccc(cc1)CC(=O)N)O'
p81
sg5
g30
ssS'SAMPL5_080'
p82
(dp83
g3
S'Cn1cnc2c1c(=O)n(c(=O)n2C)C'
p84
sg5
g30
ssS'SAMPL5_083'
p85
(dp86
g3
S'C[C@H]1/C=C/C=C(\\C(=O)NC\\2=C(C3=C(C(=C4C(=C3C(=O)/C2=C/NN5CCN(CC5)C)C(=O)[C@](O4)(O/C=C/[C@@H]([C@H]([C@H]([C@@H]([C@@H]([C@@H]([C@H]1O)C)O)C)OC(=O)C)C)OC)C)C)O)O)/C'
p87
sg5
g30
ssS'SAMPL5_082'
p88
(dp89
g3
S'CC/C(=C(\\c1ccccc1)/c2ccc(cc2)OCCN(C)C)/c3ccccc3'
p90
sg5
g30
ssS'SAMPL5_027'
p91
(dp92
g3
S'c1ccc(cc1)CNc2ncnc(n2)N'
p93
sg5
S'2483781'
p94
ssS'SAMPL5_026'
p95
(dp96
g3
S'Cc1cc(c2c(c1)c(c([nH]2)C)CC(=O)O)C'
p97
sg5
S'703690'
p98
ssS'SAMPL5_024'
p99
(dp100
g3
S'Cc1ccc2c(c1)cc3cc(sc3n2)C(=O)Nc4ccc(c(c4)C)C'
p101
sg5
S'16329490'
p102
ssS'SAMPL5_021'
p103
(dp104
g3
S'Cc1nn2cc(nc2s1)c3cccc(c3)OC'
p105
sg5
S'31467689'
p106
ssS'SAMPL5_020'
p107
(dp108
g3
S'CCCC(=O)Nc1nc2ccc(cc2s1)C(C)C'
p109
sg5
S'5522978'
p110
ssS'SAMPL5_049'
p111
(dp112
g3
S'c1cc(c(c(c1)Cl)Cl)NC(=O)c2ccno2'
p113
sg5
S'5627856'
p114
ssS'SAMPL5_048'
p115
(dp116
g3
S'c1ccc2c(c1)nc(s2)c3cccc(c3)NC(=O)c4ccno4'
p117
sg5
S'5627798'
p118
ssS'SAMPL5_007'
p119
(dp120
g3
S'c1ccc(cc1)CCNc2c3cc(ccc3ncn2)Br'
p121
sg5
S'1373587'
p122
ssS'SAMPL5_060'
p123
(dp124
g3
S'c1ccc2c(c1)c3cc(ncc3[nH]2)C(=O)O'
p125
sg5
S'42618372'
p126
ssS'SAMPL5_067'
p127
(dp128
g3
S'CC(C)NC[C@@H](COc1cccc2c1cccc2)O'
p129
sg5
g30
ssS'SAMPL5_065'
p130
(dp131
g3
S'COc1ccc2c(c1)[nH]c3c2CC[N@]4[C@@H]3C[C@H]5[C@@H](C4)C[C@H]([C@@H]([C@H]5C(=O)OC)OC)OC(=O)c6cc(c(c(c6)OC)OC)OC'
p132
sg5
g30
ssS'SAMPL5_002'
p133
(dp134
g3
S'CCOC(=O)c1c(c2c(c(c(nc2s1)C)C)C)N'
p135
sg5
S'1254130'
p136
ssS'SAMPL5_070'
p137
(dp138
g3
S'CN(C)CCC=C1c2ccccc2CCc3c1cccc3'
p139
sg5
g30
ssS'SAMPL5_069'
p140
(dp141
g3
S'C[N@]1CCc2cc(c(c-3c2[C@@H]1Cc4c3cc(c(c4)O)OC)OC)O'
p142
sg5
g30
ssS'SAMPL5_042'
p143
(dp144
g3
S'c1ccc(cc1)c2ccccc2NC(=O)c3ccc(=O)[nH]n3'
p145
sg5
S'1552842'
p146
ssS'SAMPL5_045'
p147
(dp148
g3
S'CCC(=O)Nc1ccc2c(c1)ncs2'
p149
sg5
S'12474692'
p150
ssS'SAMPL5_044'
p151
(dp152
g3
S'c1ccc2c(c1)cc(c(=O)o2)C(=O)Nc3ccc4c(c3)scn4'
p153
sg5
S'4987019'
p154
ssS'SAMPL5_047'
p155
(dp156
g3
S'c1cnoc1C(=O)Nc2c(c3c(s2)CCCC3)C#N'
p157
sg5
S'5627778'
p158
ssS'SAMPL5_046'
p159
(dp160
g3
S'CSc1ccc(cc1)CC(=O)Nc2c3ccsc3ncn2'
p161
sg5
S'12046880'
p162
ssS'SAMPL5_006'
p163
(dp164
g3
S'C=C(Cn1c2ccccc2nc1CO)Br'
p165
sg5
S'2118862'
p166
ssS'SAMPL5_063'
p167
(dp168
g3
S'C1C[C@H](CNC1)N2CCC(CC2)C(=O)N'
p169
sg5
S'38498425'
p170
ssS'SAMPL5_055'
p171
(dp172
g3
S'c1ccc2c(c1)ncc(n2)C(=O)N'
p173
sg5
S'3800934'
p174
ssS'SAMPL5_088'
p175
(dp176
g3
S'CCN(Cc1ccncc1)C(=O)[C@H](CO)c2ccccc2'
p177
sg5
g30
ssS'SAMPL5_092'
p178
(dp179
g3
S'CC(=O)N1CCN(CC1)c2ccc(cc2)OC[C@H]3CO[C@](O3)(Cn4ccnc4)c5ccc(cc5Cl)Cl'
p180
sg5
g30
ssS'SAMPL5_090'
p181
(dp182
g3
S'Cc1cc2c(cc1C)nc(c(n2)c3ccccn3)c4ccccn4'
p183
sg5
g30
ssS'SAMPL5_005'
p184
(dp185
g3
S'Cn1ccnc1SCC(=O)Nc2ccc3c(c2)OCO3'
p186
sg5
S'1363085'
p187
ssS'SAMPL5_033'
p188
(dp189
g3
S'Cc1ccc(cc1NC(=O)N2CCCCC[C@@H]2c3cccs3)Cl'
p190
sg5
S'16363773'
p191
ssS'SAMPL5_037'
p192
(dp193
g3
S'CN(C)S(=O)(=O)N1CCNCC1'
p194
sg5
S'833953'
p195
ss.