(dp0
S'SAMPL5_050'
p1
(dp2
S'Smiles'
p3
S'c1cc(C)nc(c12)nn3c2[nH]c(C)cc3=O'
p4
sS'taut1'
p5
(dp6
S'cyclohexane'
p7
(lp8
cnumpy.core.multiarray
scalar
p9
(cnumpy
dtype
p10
(S'f8'
p11
I0
I1
tp12
Rp13
(I3
S'<'
p14
NNNI-1
I-1
I0
tp15
bS'6D\xa0\xa4\x90bK@'
p16
tp17
Rp18
ag9
(g13
S'\x8a\xe0\xa3\x82%\xea\xc2?'
p19
tp20
Rp21
asS'Smiles'
p22
S'Cc1ccc2c(n1)nn3c2nc(cc3O)C'
p23
sS'LogD_calc'
p24
cnumpy.core.multiarray
_reconstruct
p25
(cnumpy
ndarray
p26
(I0
tp27
S'b'
p28
tp29
Rp30
(I1
(I2
tp31
g10
(S'f8'
p32
I0
I1
tp33
Rp34
(I3
S'<'
p35
NNNI-1
I-1
I0
tp36
bI00
S'\x10\x1d\xa5\x9f\xa31\xf3?\xac\x927\x83u\xea\xa3?'
p37
tp38
bsS'water'
p39
(lp40
g9
(g13
S'r\xe4r\xfe\x17\xf6G@'
p41
tp42
Rp43
ag9
(g13
S'\x0e\x16\xfd\x0b)6\xc5?'
p44
tp45
Rp46
asS'EmolID'
p47
S'5663556'
p48
ssS'taut2'
p49
(dp50
S'cyclohexane'
p51
(lp52
g9
(g13
S'\x93\xeb??\x96\xbcK@'
p53
tp54
Rp55
ag9
(g13
S'7Y\x8e\x8f\xcfL\xc3?'
p56
tp57
Rp58
asS'water'
p59
(lp60
g9
(g13
S'\xb6\x9d{\x8d\x85}V@'
p61
tp62
Rp63
ag9
(g13
S'\xa6\x82\xd4\xf0\xa8\x9a\xbc?'
p64
tp65
Rp66
asS'LogD_calc'
p67
g25
(g26
(I0
tp68
g28
tp69
Rp70
(I1
(I2
tp71
g13
I00
S'\xe3/*\xd8\t+\x18\xc05_S\x83k\xd5\xa0?'
p72
tp73
bsssS'SAMPL5_083'
p74
(dp75
g3
S'O1/C=C/[C@H](OC)[C@@H](C)[C@@H](OC(=O)C)[C@H](C)[C@H](O)[C@H](C)[C@@H](O)[C@@H](C)/C=C/C=C(C)\\C(=O)Nc(c2O)c(CNN3CCN(C)CC3)c(O)c4c2c(O)c(C)c(O5)c4C(=O)[C@@]15C'
p76
sg5
(dp77
g7
(lp78
g9
(g13
S'\xdfZ\xa7B\xc4\xa2b@'
p79
tp80
Rp81
ag9
(g13
S't\xa1\xc7\xe2\xc2L\xdc?'
p82
tp83
Rp84
asg22
S'C[C@H]1/C=C/C=C(\\C(=O)NC\\2=C(C3=C(C(=C4C(=C3C(=O)/C2=C/NN5CCN(CC5)C)C(=O)[C@](O4)(O/C=C/[C@@H]([C@H]([C@H]([C@@H]([C@@H]([C@@H]([C@H]1O)C)O)C)OC(=O)C)C)OC)C)C)O)O)/C'
p85
sg24
g25
(g26
(I0
tp86
g28
tp87
Rp88
(I1
(I2
tp89
g34
I00
S'j]x,7S\xf3?R\x19\xfb\xec\x18h\xb7?'
p90
tp91
bsg39
(lp92
g9
(g13
S'\x1ae5\xca&\xc6a@'
p93
tp94
Rp95
ag9
(g13
S'7\xa2\xb0\xe4\xda\xbd\xd1?'
p96
tp97
Rp98
asg47
S''
p99
ssg49
(dp100
g51
(lp101
g9
(g13
S'\xe6\xaf\xeds\x00\xe1b@'
p102
tp103
Rp104
ag9
(g13
S'\xde\x07\x0073\xb9\xe6?'
p105
tp106
Rp107
asg59
(lp108
g9
(g13
S'j8\x8d\xca\\\x17a@'
p109
tp110
Rp111
ag9
(g13
S'\x91a\x1e\xc0\xbf\xe1\xe2?'
p112
tp113
Rp114
asg67
g25
(g26
(I0
tp115
g28
tp116
Rp117
(I1
(I2
tp118
g13
I00
S'\xca\x04\xa5\x013\x0b\x04@\x87\x0e\x9a\x8d3\xb4\xc4?'
p119
tp120
bsss.