(dp0
S'(2-4-dichlorobenzyl)malonamide'
p1
(dp2
S'cyclohexane'
p3
(dp4
S'energy'
p5
(lp6
NaNasS'ref'
p7
(lp8
S'304'
p9
asS'LogP_exp'
p10
(lp11
F-3.32
asS'LogP_calc'
p12
(lp13
NaNassS'water_DC'
p14
(dp15
g5
(lp16
NaNassS'iupac'
p17
S'2-[(2,4-dichlorophenyl)methyl]propanediamide'
p18
sS'octanol_DC'
p19
(dp20
g5
(lp21
NaNasg7
(lp22
Nasg10
(lp23
Nasg12
(lp24
NaNassS'number'
p25
S'3555'
p26
sS'water'
p27
(dp28
g5
(lp29
NaNassS'cyclohexane_DC'
p30
(dp31
g5
(lp32
NaNasg7
(lp33
g9
asg10
(lp34
F-3.32
asg12
(lp35
NaNassS'smile'
p36
S'c1cc(c(cc1Cl)Cl)CC(C(=O)N)C(=O)N'
p37
sS'octanol'
p38
(dp39
g5
(lp40
NaNasg7
(lp41
Nasg10
(lp42
Nasg12
(lp43
NaNasssS'2-butylthio-1-4-Naphthoquinone'
p44
(dp45
g3
(dp46
g5
(lp47
NaNasg7
(lp48
S'141'
p49
asg10
(lp50
F3.43
asg12
(lp51
NaNassg14
(dp52
g5
(lp53
NaNassg17
S'2-butylsulfanylnaphthalene-1,4-dione'
p54
sg19
(dp55
g7
(lp56
S'141'
p57
asg10
(lp58
F3.29
assg25
S'4712'
p59
sg27
(dp60
g5
(lp61
NaNassg30
(dp62
g5
(lp63
NaNasg7
(lp64
g49
asg10
(lp65
F3.43
asg12
(lp66
NaNassg36
S'CCCCSC1=CC(=O)c2ccccc2C1=O'
p67
sg38
(dp68
g7
(lp69
g57
asg10
(lp70
F3.29
asssS'5-cyano-2-(trifluoromethyl)-1H-benzimidazole'
p71
(dp72
g3
(dp73
g5
(lp74
NaNasg7
(lp75
S'379'
p76
asg10
(lp77
F-1.15
asg12
(lp78
NaNassg14
(dp79
g5
(lp80
NaNassg17
S'2-(trifluoromethyl)-1~{H}-benzimidazole-5-carbonitrile'
p81
sg19
(dp82
g5
(lp83
NaNasg7
(lp84
Nasg10
(lp85
Nasg12
(lp86
NaNassg25
S'3110'
p87
sg27
(dp88
g5
(lp89
NaNassg30
(dp90
g5
(lp91
NaNasg7
(lp92
g76
asg10
(lp93
F-1.15
asg12
(lp94
NaNassg36
S'c1cc2c(cc1C#N)nc([nH]2)C(F)(F)F'
p95
sg38
(dp96
g5
(lp97
NaNasg7
(lp98
Nasg10
(lp99
Nasg12
(lp100
NaNasssS'Methanol'
p101
(dp102
g3
(dp103
g5
(lp104
NaNasg7
(lp105
S'199'
p106
asg10
(lp107
F-1.84
asg12
(lp108
NaNassg14
(dp109
g5
(lp110
NaNassg17
S'methanol'
p111
sg19
(dp112
g7
(lp113
S'186'
p114
aS'5'
p115
asg10
(lp116
F-0.66
aF-0.82
assg25
S'159'
p117
sg27
(dp118
g5
(lp119
NaNassg30
(dp120
g5
(lp121
NaNasg7
(lp122
g106
asg10
(lp123
F-1.84
asg12
(lp124
NaNassg36
S'CO'
p125
sg38
(dp126
g7
(lp127
g114
ag115
asg10
(lp128
F-0.66
aF-0.82
asssS'Butanol'
p129
(dp130
g3
(dp131
g5
(lp132
NaNasg7
(lp133
S'272'
p134
aS'82'
p135
asg10
(lp136
F-0.72
aF-1.12
asg12
(lp137
NaNassg14
(dp138
g5
(lp139
NaNassg17
S'butan-1-ol'
p140
sg19
(dp141
g7
(lp142
S'216'
p143
asg10
(lp144
F0.88
assg25
S'950'
p145
sg27
(dp146
g5
(lp147
NaNassg30
(dp148
g5
(lp149
NaNasg7
(lp150
g134
ag135
asg10
(lp151
F-0.72
aF-1.12
asg12
(lp152
NaNassg36
S'CCCCO'
p153
sg38
(dp154
g7
(lp155
g143
asg10
(lp156
F0.88
asssS'ethyl benzalcyanoacetate'
p157
(dp158
g3
(dp159
g5
(lp160
NaNasg7
(lp161
S'141'
p162
aS'304'
p163
asg10
(lp164
F2.63
aF2.59
asg12
(lp165
NaNassg14
(dp166
g5
(lp167
NaNassg17
S'ethyl (~{Z})-2-cyano-3-phenyl-prop-2-enoate'
p168
sg19
(dp169
g7
(lp170
S'EQ306'
p171
asg10
(lp172
F2.43
assg25
S'4312'
p173
sg27
(dp174
g5
(lp175
NaNassg30
(dp176
g5
(lp177
NaNasg7
(lp178
g162
ag163
asg10
(lp179
F2.63
aF2.59
asg12
(lp180
NaNassg36
S'CCOC(=O)/C(=C\\c1ccccc1)/C#N'
p181
sg38
(dp182
g7
(lp183
g171
asg10
(lp184
F2.43
asssS'P-Ethylphenol'
p185
(dp186
g3
(dp187
g5
(lp188
NaNasg7
(lp189
S'132'
p190
aS'325'
p191
asg10
(lp192
F0.44
aF0.37
asg12
(lp193
NaNassg14
(dp194
g5
(lp195
NaNassg17
S'4-ethylphenol'
p196
sg19
(dp197
g7
(lp198
S'Sangster'
p199
asg10
(lp200
F2.5
assg25
S'2938'
p201
sg27
(dp202
g5
(lp203
NaNassg30
(dp204
g5
(lp205
NaNasg7
(lp206
g190
ag191
asg10
(lp207
F0.44
aF0.37
asg12
(lp208
NaNassg36
S'CCc1ccc(cc1)O'
p209
sg38
(dp210
g7
(lp211
g199
asg10
(lp212
F2.5
asssS'Benzaldehyde'
p213
(dp214
g3
(dp215
g5
(lp216
NaNasg7
(lp217
S'141'
p218
aS'248'
p219
asg10
(lp220
F1.13
aF1.34
asg12
(lp221
NaNassg14
(dp222
g5
(lp223
NaNassg17
S'benzaldehyde'
p224
sg19
(dp225
g7
(lp226
S'235'
p227
asg10
(lp228
F1.48
assg25
S'2133'
p229
sg27
(dp230
g5
(lp231
NaNassg30
(dp232
g5
(lp233
NaNasg7
(lp234
g218
ag219
asg10
(lp235
F1.13
aF1.34
asg12
(lp236
NaNassg36
S'c1ccc(cc1)C=O'
p237
sg38
(dp238
g7
(lp239
g227
asg10
(lp240
F1.48
asssS'O-Toluidine'
p241
(dp242
g3
(dp243
g5
(lp244
NaNasg7
(lp245
S'337'
p246
asg10
(lp247
F0.67
asg12
(lp248
NaNassg14
(dp249
g5
(lp250
NaNassg17
S'2-methylaniline'
p251
sg19
(dp252
g7
(lp253
S'312'
p254
aS'301'
p255
asg10
(lp256
F1.29
aF1.32
assg25
S'2411'
p257
sg27
(dp258
g5
(lp259
NaNassg30
(dp260
g5
(lp261
NaNasg7
(lp262
g246
asg10
(lp263
F0.67
asg12
(lp264
NaNassg36
S'Cc1ccccc1N'
p265
sg38
(dp266
g7
(lp267
g254
ag255
asg10
(lp268
F1.29
aF1.32
asssS'2-4-dimethylphenol'
p269
(dp270
g3
(dp271
g5
(lp272
NaNasg7
(lp273
S'132'
p274
aS'325'
p275
asg10
(lp276
F0.76
aF0.55
asg12
(lp277
NaNassg14
(dp278
g5
(lp279
NaNassg17
S'2,4-dimethylphenol'
p280
sg19
(dp281
g7
(lp282
S'Sangster'
p283
asg10
(lp284
F2.35
assg25
S'2914'
p285
sg27
(dp286
g5
(lp287
NaNassg30
(dp288
g5
(lp289
NaNasg7
(lp290
g274
ag275
asg10
(lp291
F0.76
aF0.55
asg12
(lp292
NaNassg36
S'Cc1ccc(c(c1)C)O'
p293
sg38
(dp294
g7
(lp295
g283
asg10
(lp296
F2.35
asssS'Butylamine'
p297
(dp298
g3
(dp299
g5
(lp300
NaNasg7
(lp301
S'251'
p302
asg10
(lp303
F-0.29
asg12
(lp304
NaNassg14
(dp305
g5
(lp306
NaNassg17
S'butan-1-amine'
p307
sg19
(dp308
g7
(lp309
S'251'
p310
aS'218'
p311
ag115
asg10
(lp312
F0.88
aF0.81
aF0.68
assg25
S'1014'
p313
sg27
(dp314
g5
(lp315
NaNassg30
(dp316
g5
(lp317
NaNasg7
(lp318
g302
asg10
(lp319
F-0.29
asg12
(lp320
NaNassg36
S'CCCCN'
p321
sg38
(dp322
g7
(lp323
g310
ag311
ag115
asg10
(lp324
F0.88
aF0.81
aF0.68
asssS'O-Methylphenol'
p325
(dp326
g3
(dp327
g5
(lp328
NaNasg7
(lp329
S'124'
p330
aS'132'
p331
aS'325'
p332
aS'133'
p333
asg10
(lp334
F0.04
aF0.13
aF0.1
aF0.2
asg12
(lp335
NaNassg14
(dp336
g5
(lp337
NaNassg17
S'o-cresol'
p338
sg19
(dp339
g7
(lp340
S'216'
p341
asg10
(lp342
F1.95
assg25
S'2336'
p343
sg27
(dp344
g5
(lp345
NaNassg30
(dp346
g5
(lp347
NaNasg7
(lp348
g330
ag331
ag332
ag333
asg10
(lp349
F0.04
aF0.13
aF0.1
aF0.2
asg12
(lp350
NaNassg36
S'Cc1ccccc1O'
p351
sg38
(dp352
g7
(lp353
g341
asg10
(lp354
F1.95
asssS'1-Cinnamoylpiperidine'
p355
(dp356
g3
(dp357
g5
(lp358
NaNasg7
(lp359
S'446'
p360
asg10
(lp361
F1.44
asg12
(lp362
NaNassg14
(dp363
g5
(lp364
NaNassg17
S'(~{E})-3-phenyl-1-(1-piperidyl)prop-2-en-1-one'
p365
sg19
(dp366
g7
(lp367
S'EQ572'
p368
asg10
(lp369
F2.74
assg25
S'4764'
p370
sg27
(dp371
g5
(lp372
NaNassg30
(dp373
g5
(lp374
NaNasg7
(lp375
g360
asg10
(lp376
F1.44
asg12
(lp377
NaNassg36
S'c1ccc(cc1)/C=C/C(=O)N2CCCCC2'
p378
sg38
(dp379
g7
(lp380
g368
asg10
(lp381
F2.74
asssS'2-2-2-trichloro-1-dimethoxyphosphorylethanol'
p382
(dp383
g3
(dp384
g5
(lp385
NaNasg7
(lp386
S'262'
p387
asg10
(lp388
F-1.7
asg12
(lp389
NaNassg14
(dp390
g5
(lp391
NaNassg17
S'2,2,2-trichloro-1-dimethoxyphosphoryl-ethanol'
p392
sg19
(dp393
g7
(lp394
S'262'
p395
asg10
(lp396
F0.51
assg25
S'835'
p397
sg27
(dp398
g5
(lp399
NaNassg30
(dp400
g5
(lp401
NaNasg7
(lp402
g387
asg10
(lp403
F-1.7
asg12
(lp404
NaNassg36
S'COP(=O)([C@H](C(Cl)(Cl)Cl)O)OC'
p405
sg38
(dp406
g7
(lp407
g395
asg10
(lp408
F0.51
asssS'pentachlorophenol'
p409
(dp410
g3
(dp411
g5
(lp412
NaNasg7
(lp413
S'300'
p414
asg10
(lp415
F-0.52
asg12
(lp416
NaNassg14
(dp417
g5
(lp418
NaNassg17
S'2,3,4,5,6-pentachlorophenol'
p419
sg19
(dp420
g7
(lp421
S'56'
p422
asg10
(lp423
F5.01
assg25
S'1307'
p424
sg27
(dp425
g5
(lp426
NaNassg30
(dp427
g5
(lp428
NaNasg7
(lp429
g414
asg10
(lp430
F-0.52
asg12
(lp431
NaNassg36
S'c1(c(c(c(c(c1Cl)Cl)Cl)Cl)Cl)O'
p432
sg38
(dp433
g7
(lp434
g422
asg10
(lp435
F5.01
asssS'2-5-dimethylphenol'
p436
(dp437
g3
(dp438
g5
(lp439
NaNasg7
(lp440
S'132'
p441
aS'325'
p442
asg10
(lp443
F0.77
aF0.57
asg12
(lp444
NaNassg14
(dp445
g5
(lp446
NaNassg17
S'2,5-dimethylphenol'
p447
sg19
(dp448
g7
(lp449
S'Sangster'
p450
asg10
(lp451
F2.34
assg25
S'2917'
p452
sg27
(dp453
g5
(lp454
NaNassg30
(dp455
g5
(lp456
NaNasg7
(lp457
g441
ag442
asg10
(lp458
F0.77
aF0.57
asg12
(lp459
NaNassg36
S'Cc1ccc(c(c1)O)C'
p460
sg38
(dp461
g7
(lp462
g450
asg10
(lp463
F2.34
asssS'Acetone'
p464
(dp465
g3
(dp466
g5
(lp467
NaNasg7
(lp468
S'242'
p469
asg10
(lp470
F-0.96
asg12
(lp471
NaNassg14
(dp472
g5
(lp473
NaNassg17
S'acetone'
p474
sg19
(dp475
g7
(lp476
g115
asg10
(lp477
F-0.24
assg25
S'492'
p478
sg27
(dp479
g5
(lp480
NaNassg30
(dp481
g5
(lp482
NaNasg7
(lp483
g469
asg10
(lp484
F-0.96
asg12
(lp485
NaNassg36
S'CC(=O)C'
p486
sg38
(dp487
g7
(lp488
g115
asg10
(lp489
F-0.24
asssS'ethyl cinnamate'
p490
(dp491
g3
(dp492
g5
(lp493
NaNasg7
(lp494
S'304'
p495
asg10
(lp496
F3.27
asg12
(lp497
NaNassg14
(dp498
g5
(lp499
NaNassg17
S'ethyl (~{E})-3-phenylprop-2-enoate'
p500
sg19
(dp501
g7
(lp502
S'EQ306'
p503
asg10
(lp504
F2.99
assg25
S'4059'
p505
sg27
(dp506
g5
(lp507
NaNassg30
(dp508
g5
(lp509
NaNasg7
(lp510
g495
asg10
(lp511
F3.27
asg12
(lp512
NaNassg36
S'CCOC(=O)/C=C/c1ccccc1'
p513
sg38
(dp514
g7
(lp515
g503
asg10
(lp516
F2.99
asssS'P-Methylphenol'
p517
(dp518
g3
(dp519
g5
(lp520
NaNasg7
(lp521
S'132'
p522
aS'325'
p523
asg10
(lp524
F-0.1
aF-0.19
asg12
(lp525
NaNassg14
(dp526
g5
(lp527
NaNassg17
S'p-cresol'
p528
sg19
(dp529
g7
(lp530
S'10'
p531
aS'301'
p532
asg10
(lp533
F1.94
aF1.92
assg25
S'2348'
p534
sg27
(dp535
g5
(lp536
NaNassg30
(dp537
g5
(lp538
NaNasg7
(lp539
g522
ag523
asg10
(lp540
F-0.1
aF-0.19
asg12
(lp541
NaNassg36
S'Cc1ccc(cc1)O'
p542
sg38
(dp543
g7
(lp544
g531
ag532
asg10
(lp545
F1.94
aF1.92
asssS'2-chloro-1-4-napthoquinone'
p546
(dp547
g3
(dp548
g5
(lp549
NaNasg7
(lp550
S'141'
p551
asg10
(lp552
F1.91
asg12
(lp553
NaNassg14
(dp554
g5
(lp555
NaNassg17
S'2-chloronaphthalene-1,4-dione'
p556
sg19
(dp557
g7
(lp558
S'141'
p559
asg10
(lp560
F2.15
assg25
S'3517'
p561
sg27
(dp562
g5
(lp563
NaNassg30
(dp564
g5
(lp565
NaNasg7
(lp566
g551
asg10
(lp567
F1.91
asg12
(lp568
NaNassg36
S'c1ccc2c(c1)C(=O)C=C(C2=O)Cl'
p569
sg38
(dp570
g7
(lp571
g559
asg10
(lp572
F2.15
asssS'Quinone'
p573
(dp574
g3
(dp575
g5
(lp576
NaNasg7
(lp577
S'304'
p578
asg10
(lp579
F-0.39
asg12
(lp580
NaNassg14
(dp581
g5
(lp582
NaNassg17
S'1,4-benzoquinone'
p583
sg19
(dp584
g7
(lp585
S'238'
p586
asg10
(lp587
F0.2
assg25
S'1363'
p588
sg27
(dp589
g5
(lp590
NaNassg30
(dp591
g5
(lp592
NaNasg7
(lp593
g578
asg10
(lp594
F-0.39
asg12
(lp595
NaNassg36
S'C1=CC(=O)C=CC1=O'
p596
sg38
(dp597
g7
(lp598
g586
asg10
(lp599
F0.2
asssS'3-4-dimethylphenol'
p600
(dp601
g3
(dp602
g5
(lp603
NaNasg7
(lp604
S'325'
p605
asg10
(lp606
F0.2
asg12
(lp607
NaNassg14
(dp608
g5
(lp609
NaNassg17
S'3,4-dimethylphenol'
p610
sg19
(dp611
g7
(lp612
S'Sangster'
p613
asg10
(lp614
F2.23
assg25
S'2925'
p615
sg27
(dp616
g5
(lp617
NaNassg30
(dp618
g5
(lp619
NaNasg7
(lp620
g605
asg10
(lp621
F0.2
asg12
(lp622
NaNassg36
S'Cc1ccc(cc1C)O'
p623
sg38
(dp624
g7
(lp625
g613
asg10
(lp626
F2.23
asssS'Diethylamine'
p627
(dp628
g3
(dp629
g5
(lp630
NaNasg7
(lp631
S'251'
p632
asg10
(lp633
F-0.34
asg12
(lp634
NaNassg14
(dp635
g5
(lp636
NaNassg17
S'~{N}-ethylethanamine'
p637
sg19
(dp638
g7
(lp639
S'251'
p640
ag115
asg10
(lp641
F0.57
aF0.43
assg25
S'1028'
p642
sg27
(dp643
g5
(lp644
NaNassg30
(dp645
g5
(lp646
NaNasg7
(lp647
g632
asg10
(lp648
F-0.34
asg12
(lp649
NaNassg36
S'CCNCC'
p650
sg38
(dp651
g7
(lp652
g640
ag115
asg10
(lp653
F0.57
aF0.43
asssS'Trimethylamine'
p654
(dp655
g3
(dp656
g5
(lp657
NaNasg7
(lp658
S'251'
p659
asg10
(lp660
F-0.44
asg12
(lp661
NaNassg14
(dp662
g5
(lp663
NaNassg17
S'~{N},~{N}-dimethylmethanamine'
p664
sg19
(dp665
g7
(lp666
S'251'
p667
asg10
(lp668
F0.27
assg25
S'671'
p669
sg27
(dp670
g5
(lp671
NaNassg30
(dp672
g5
(lp673
NaNasg7
(lp674
g659
asg10
(lp675
F-0.44
asg12
(lp676
NaNassg36
S'CN(C)C'
p677
sg38
(dp678
g7
(lp679
g667
asg10
(lp680
F0.27
asssS'Nicotine'
p681
(dp682
g3
(dp683
g5
(lp684
NaNasg7
(lp685
S'435'
p686
asg10
(lp687
F0.25
asg12
(lp688
NaNassg14
(dp689
g5
(lp690
NaNassg17
S'3-[(2~{S})-1-methylpyrrolidin-2-yl]pyridine'
p691
sg19
(dp692
g7
(lp693
S'341'
p694
asg10
(lp695
F1.17
assg25
S'3799'
p696
sg27
(dp697
g5
(lp698
NaNassg30
(dp699
g5
(lp700
NaNasg7
(lp701
g686
asg10
(lp702
F0.25
asg12
(lp703
NaNassg36
S'C[N@@]1CCC[C@H]1c2cccnc2'
p704
sg38
(dp705
g7
(lp706
g694
asg10
(lp707
F1.17
asssS'Phthalimide'
p708
(dp709
g3
(dp710
g5
(lp711
NaNasg7
(lp712
S'304'
p713
asg10
(lp714
F-1.46
asg12
(lp715
NaNassg14
(dp716
g5
(lp717
NaNassg17
S'isoindoline-1,3-dione'
p718
sg19
(dp719
g7
(lp720
S'9'
p721
asg10
(lp722
F1.15
assg25
S'2612'
p723
sg27
(dp724
g5
(lp725
NaNassg30
(dp726
g5
(lp727
NaNasg7
(lp728
g713
asg10
(lp729
F-1.46
asg12
(lp730
NaNassg36
S'c1ccc2c(c1)C(=O)NC2=O'
p731
sg38
(dp732
g7
(lp733
g721
asg10
(lp734
F1.15
asssS'Erythromycin'
p735
(dp736
g3
(dp737
g5
(lp738
NaNasg7
(lp739
S'519'
p740
asg10
(lp741
F-0.22
asg12
(lp742
NaNassg14
(dp743
g5
(lp744
NaNassg17
S'(3~{R},4~{S},5~{R},6~{R},7~{R},9~{R},11~{R},12~{S},13~{S},14~{R})-6-[(2~{S},3~{R},4~{S},6~{R})-4-(dimethylamino)-3-hydroxy-6-methyl-tetrahydropyran-2-yl]oxy-14-ethyl-7,12,13-trihydroxy-4-[(2~{R},4~{R},5~{S},6~{S})-5-hydroxy-4-methoxy-4,6-dimethyl-tetrahydropyran-2-yl]oxy-3,5,7,9,11,13-hexamethyl-oxacyclotetradecane-2,10-dione'
p745
sg19
(dp746
g7
(lp747
S'519'
p748
asg10
(lp749
F2.48
assg25
S'5785'
p750
sg27
(dp751
g5
(lp752
NaNassg30
(dp753
g5
(lp754
NaNasg7
(lp755
g740
asg10
(lp756
F-0.22
asg12
(lp757
NaNassg36
S'CC[C@@H]1[C@@]([C@H]([C@H](C(=O)[C@@H](C[C@@]([C@@H]([C@@H]([C@@H]([C@H](C(=O)O1)C)O[C@H]2C[C@@]([C@H]([C@@H](O2)C)O)(C)OC)C)O[C@H]3[C@@H]([C@H](C[C@H](O3)C)N(C)C)O)(C)O)C)C)O)(C)O'
p758
sg38
(dp759
g7
(lp760
g748
asg10
(lp761
F2.48
asssS'P-Toluidine'
p762
(dp763
g3
(dp764
g5
(lp765
NaNasg7
(lp766
S'337'
p767
aS'314'
p768
asg10
(lp769
F0.58
aF0.55
asg12
(lp770
NaNassg14
(dp771
g5
(lp772
NaNassg17
S'4-methylaniline'
p773
sg19
(dp774
g7
(lp775
S'10'
p776
aS'301'
p777
asg10
(lp778
F1.39
aF1.41
assg25
S'2422'
p779
sg27
(dp780
g5
(lp781
NaNassg30
(dp782
g5
(lp783
NaNasg7
(lp784
g767
ag768
asg10
(lp785
F0.58
aF0.55
asg12
(lp786
NaNassg36
S'Cc1ccc(cc1)N'
p787
sg38
(dp788
g7
(lp789
g776
ag777
asg10
(lp790
F1.39
aF1.41
asssS'P-Iodophenol'
p791
(dp792
g3
(dp793
g5
(lp794
NaNasg7
(lp795
S'124'
p796
aS'56'
p797
asg10
(lp798
F0.0
aF0.21
asg12
(lp799
NaNassg14
(dp800
g5
(lp801
NaNassg17
S'4-iodophenol'
p802
sg19
(dp803
g7
(lp804
S'10'
p805
asg10
(lp806
F2.91
assg25
S'1425'
p807
sg27
(dp808
g5
(lp809
NaNassg30
(dp810
g5
(lp811
NaNasg7
(lp812
g796
ag797
asg10
(lp813
F0.0
aF0.21
asg12
(lp814
NaNassg36
S'c1cc(ccc1O)I'
p815
sg38
(dp816
g7
(lp817
g805
asg10
(lp818
F2.91
asssS'(4-bromobenzyl)propanedinitrile'
p819
(dp820
g3
(dp821
g5
(lp822
NaNasg7
(lp823
S'304'
p824
asg10
(lp825
F2.03
asg12
(lp826
NaNassg14
(dp827
g5
(lp828
NaNassg17
S'2-[(4-bromophenyl)methyl]propanedinitrile'
p829
sg19
(dp830
g5
(lp831
NaNasg7
(lp832
Nasg10
(lp833
Nasg12
(lp834
NaNassg25
S'3510'
p835
sg27
(dp836
g5
(lp837
NaNassg30
(dp838
g5
(lp839
NaNasg7
(lp840
g824
asg10
(lp841
F2.03
asg12
(lp842
NaNassg36
S'c1cc(ccc1CC(C#N)C#N)Br'
p843
sg38
(dp844
g5
(lp845
NaNasg7
(lp846
Nasg10
(lp847
Nasg12
(lp848
NaNasssS'O-Nitrophenol'
p849
(dp850
g3
(dp851
g5
(lp852
NaNasg7
(lp853
S'308'
p854
asg10
(lp855
F1.49
asg12
(lp856
NaNassg14
(dp857
g5
(lp858
NaNassg17
S'2-nitrophenol'
p859
sg19
(dp860
g7
(lp861
S'10'
p862
aS'301'
p863
asg10
(lp864
F1.79
aF1.73
assg25
S'1453'
p865
sg27
(dp866
g5
(lp867
NaNassg30
(dp868
g5
(lp869
NaNasg7
(lp870
g854
asg10
(lp871
F1.49
asg12
(lp872
NaNassg36
S'c1ccc(c(c1)[N+](=O)[O-])O'
p873
sg38
(dp874
g7
(lp875
g862
ag863
asg10
(lp876
F1.79
aF1.73
asssS'Aniline'
p877
(dp878
g3
(dp879
g5
(lp880
NaNasg7
(lp881
S'301'
p882
aS'337'
p883
asg10
(lp884
F0.98
aF0.02
asg12
(lp885
NaNassg14
(dp886
g5
(lp887
NaNassg17
S'aniline'
p888
sg19
(dp889
g7
(lp890
S'10'
p891
asg10
(lp892
F0.9
assg25
S'1711'
p893
sg27
(dp894
g5
(lp895
NaNassg30
(dp896
g5
(lp897
NaNasg7
(lp898
g882
ag883
asg10
(lp899
F0.98
aF0.02
asg12
(lp900
NaNassg36
S'c1ccc(cc1)N'
p901
sg38
(dp902
g7
(lp903
g891
asg10
(lp904
F0.9
asssS'Coumarin'
p905
(dp906
g3
(dp907
g5
(lp908
NaNasg7
(lp909
S'304'
p910
asg10
(lp911
F0.48
asg12
(lp912
NaNassg14
(dp913
g5
(lp914
NaNassg17
S'chromen-2-one'
p915
sg19
(dp916
g7
(lp917
S'218'
p918
asg10
(lp919
F1.39
assg25
S'3126'
p920
sg27
(dp921
g5
(lp922
NaNassg30
(dp923
g5
(lp924
NaNasg7
(lp925
g910
asg10
(lp926
F0.48
asg12
(lp927
NaNassg36
S'c1ccc2c(c1)ccc(=O)o2'
p928
sg38
(dp929
g7
(lp930
g918
asg10
(lp931
F1.39
asssS'cinnamamide'
p932
(dp933
g3
(dp934
g5
(lp935
NaNasg7
(lp936
S'304'
p937
asg10
(lp938
F-2.21
asg12
(lp939
NaNassg14
(dp940
g5
(lp941
NaNassg17
S'(~{E})-3-phenylprop-2-enamide'
p942
sg19
(dp943
g7
(lp944
S'Sangster'
p945
asg10
(lp946
F1.43
assg25
S'3228'
p947
sg27
(dp948
g5
(lp949
NaNassg30
(dp950
g5
(lp951
NaNasg7
(lp952
g937
asg10
(lp953
F-2.21
asg12
(lp954
NaNassg36
S'c1ccc(cc1)/C=C/C(=O)N'
p955
sg38
(dp956
g7
(lp957
g945
asg10
(lp958
F1.43
asssS'2-methylbenzal Malonamide'
p959
(dp960
g3
(dp961
g5
(lp962
NaNasg7
(lp963
S'304'
p964
asg10
(lp965
F-2.86
asg12
(lp966
NaNassg14
(dp967
g5
(lp968
NaNassg17
S'2-(o-tolylmethylene)propanediamide'
p969
sg19
(dp970
g5
(lp971
NaNasg7
(lp972
Nasg10
(lp973
Nasg12
(lp974
NaNassg25
S'4027'
p975
sg27
(dp976
g5
(lp977
NaNassg30
(dp978
g5
(lp979
NaNasg7
(lp980
g964
asg10
(lp981
F-2.86
asg12
(lp982
NaNassg36
S'Cc1ccccc1C=C(C(=O)N)C(=O)N'
p983
sg38
(dp984
g5
(lp985
NaNasg7
(lp986
Nasg10
(lp987
Nasg12
(lp988
NaNasssS'Vanillin'
p989
(dp990
g3
(dp991
g5
(lp992
NaNasg7
(lp993
S'248'
p994
asg10
(lp995
F-0.75
asg12
(lp996
NaNassg14
(dp997
g5
(lp998
NaNassg17
S'4-hydroxy-3-methoxy-benzaldehyde'
p999
sg19
(dp1000
g7
(lp1001
S'EQ825'
p1002
asg10
(lp1003
F1.21
assg25
S'2790'
p1004
sg27
(dp1005
g5
(lp1006
NaNassg30
(dp1007
g5
(lp1008
NaNasg7
(lp1009
g994
asg10
(lp1010
F-0.75
asg12
(lp1011
NaNassg36
S'COc1cc(ccc1O)C=O'
p1012
sg38
(dp1013
g7
(lp1014
g1002
asg10
(lp1015
F1.21
asssS'1-3-Indanedione'
p1016
(dp1017
g3
(dp1018
g5
(lp1019
NaNasg7
(lp1020
S'304'
p1021
asg10
(lp1022
F-0.12
asg12
(lp1023
NaNassg14
(dp1024
g5
(lp1025
NaNassg17
S'indane-1,3-dione'
p1026
sg19
(dp1027
g7
(lp1028
S'409'
p1029
asg10
(lp1030
F0.36
assg25
S'3130'
p1031
sg27
(dp1032
g5
(lp1033
NaNassg30
(dp1034
g5
(lp1035
NaNasg7
(lp1036
g1021
asg10
(lp1037
F-0.12
asg12
(lp1038
NaNassg36
S'c1ccc2c(c1)C(=O)CC2=O'
p1039
sg38
(dp1040
g7
(lp1041
g1029
asg10
(lp1042
F0.36
asssS'M-Methylphenol'
p1043
(dp1044
g3
(dp1045
g5
(lp1046
NaNasg7
(lp1047
S'124'
p1048
aS'132'
p1049
aS'325'
p1050
aS'133'
p1051
asg10
(lp1052
F-0.3
aF-0.15
aF-0.2
aF-0.1
asg12
(lp1053
NaNassg14
(dp1054
g5
(lp1055
NaNassg17
S'm-cresol'
p1056
sg19
(dp1057
g7
(lp1058
S'10'
p1059
aS'301'
p1060
asg10
(lp1061
F1.96
aF2.01
assg25
S'2323'
p1062
sg27
(dp1063
g5
(lp1064
NaNassg30
(dp1065
g5
(lp1066
NaNasg7
(lp1067
g1048
ag1049
ag1050
ag1051
asg10
(lp1068
F-0.3
aF-0.15
aF-0.2
aF-0.1
asg12
(lp1069
NaNassg36
S'Cc1cccc(c1)O'
p1070
sg38
(dp1071
g7
(lp1072
g1059
ag1060
asg10
(lp1073
F1.96
aF2.01
asssS'salicylic acid'
p1074
(dp1075
g3
(dp1076
g5
(lp1077
NaNasg7
(lp1078
S'15'
p1079
aS'357'
p1080
asg10
(lp1081
F-1.02
aF-0.5
asg12
(lp1082
NaNassg14
(dp1083
g5
(lp1084
NaNassg17
S'2-hydroxybenzoic acid'
p1085
sg19
(dp1086
g7
(lp1087
S'186'
p1088
aS'218'
p1089
asg10
(lp1090
F2.26
aF2.21
assg25
S'2185'
p1091
sg27
(dp1092
g5
(lp1093
NaNassg30
(dp1094
g5
(lp1095
NaNasg7
(lp1096
g1079
ag1080
asg10
(lp1097
F-1.02
aF-0.5
asg12
(lp1098
NaNassg36
S'c1ccc(c(c1)C(=O)O)O'
p1099
sg38
(dp1100
g7
(lp1101
g1088
ag1089
asg10
(lp1102
F2.26
aF2.21
asssS'(4-bromo-benzal)-Acetylacetone'
p1103
(dp1104
g3
(dp1105
g5
(lp1106
NaNasg7
(lp1107
S'304'
p1108
asg10
(lp1109
F1.82
asg12
(lp1110
NaNassg14
(dp1111
g5
(lp1112
NaNassg17
S'3-[(4-bromophenyl)methylene]pentane-2,4-dione'
p1113
sg19
(dp1114
g7
(lp1115
S'EQ306'
p1116
asg10
(lp1117
F2.75
assg25
S'4299'
p1118
sg27
(dp1119
g5
(lp1120
NaNassg30
(dp1121
g5
(lp1122
NaNasg7
(lp1123
g1108
asg10
(lp1124
F1.82
asg12
(lp1125
NaNassg36
S'CC(=O)C(=Cc1ccc(cc1)Br)C(=O)C'
p1126
sg38
(dp1127
g7
(lp1128
g1116
asg10
(lp1129
F2.75
asssS'Nitrocyclohexane'
p1130
(dp1131
g3
(dp1132
g5
(lp1133
NaNasg7
(lp1134
S'354'
p1135
asg10
(lp1136
F-0.1
asg12
(lp1137
NaNassg14
(dp1138
g5
(lp1139
NaNassg17
S'nitrocyclohexane'
p1140
sg19
(dp1141
g5
(lp1142
NaNasg7
(lp1143
Nasg10
(lp1144
Nasg12
(lp1145
NaNassg25
S'1879'
p1146
sg27
(dp1147
g5
(lp1148
NaNassg30
(dp1149
g5
(lp1150
NaNasg7
(lp1151
g1135
asg10
(lp1152
F-0.1
asg12
(lp1153
NaNassg36
S'C1CCC(CC1)[N+](=O)[O-]'
p1154
sg38
(dp1155
g5
(lp1156
NaNasg7
(lp1157
Nasg10
(lp1158
Nasg12
(lp1159
NaNasss.