(dp0
S'(2-4-dichlorobenzyl)malonamide'
p1
(dp2
S'cyclohexane'
p3
(dp4
S'energy'
p5
(lp6
cnumpy.core.multiarray
scalar
p7
(cnumpy
dtype
p8
(S'f8'
p9
I0
I1
tp10
Rp11
(I3
S'<'
p12
NNNI-1
I-1
I0
tp13
bS'yK\x01)\x02jI@'
p14
tp15
Rp16
ag7
(g11
S'\xfcM\xdd\x8c\xdb\x92\xc4?'
p17
tp18
Rp19
asS'ref'
p20
(lp21
S'304'
p22
asS'perError'
p23
(lp24
g7
(g11
S'\xb6\xe7\x82\t\xb3\xb1\xb4?'
p25
tp26
Rp27
asS'LogP_exp'
p28
(lp29
F-3.32
asS'LogP_calc'
p30
cnumpy.core.multiarray
_reconstruct
p31
(cnumpy
ndarray
p32
(I0
tp33
S'b'
p34
tp35
Rp36
(I1
(I2
tp37
g8
(S'f8'
p38
I0
I1
tp39
Rp40
(I3
S'<'
p41
NNNI-1
I-1
I0
tp42
bI00
S'fW\x1b\x0e\xff\xb4\x0c\xc0i\x81!U\x0b\x1f\xb2?'
p43
tp44
bssS'rotatable'
p45
I4
sS'cycGAFF_watDC'
p46
g4
sS'functGroups'
p47
(dp48
S'alcohol'
p49
I00
sS'amide'
p50
I01
sS'ketone'
p51
I00
sS'amine'
p52
I00
sS'ester'
p53
I00
sS'ether'
p54
I00
sS'carboxylic_acid'
p55
I00
ssS'halogens'
p56
(dp57
S'I'
p58
I0
sS'Cl'
p59
I2
sS'Br'
p60
I0
sS'F'
p61
I0
ssS'iupac'
p62
S'2-[(2,4-dichlorophenyl)methyl]propanediamide'
p63
sS'octanol_DC'
p64
(dp65
g5
(lp66
g7
(g11
S'\xef\xb5\x90\x80\xdc\xe7Q@'
p67
tp68
Rp69
ag7
(g11
S'N\x01\x1f\xb1)\x06\xdb?'
p70
tp71
Rp72
asS'LogP_exp'
p73
(lp74
NasS'warn'
p75
S'Warning energy difference (4.563) is bigger than 2.0 * the largest uncertainty (0.631)'
p76
sg23
(lp77
sS'ref'
p78
(lp79
Nasg30
g31
(g32
(I0
tp80
g34
tp81
Rp82
(I1
(I2
tp83
g40
I00
S'\x7f\xdd\xd7\xe30\x00\xac?\x0c\x11G1@3\xb9?'
p84
tp85
bssS'number'
p86
S'3555'
p87
sS'water_DC'
p88
(dp89
g5
(lp90
NaNassS'water'
p91
(dp92
g75
S'Warning energy difference (1.697) is bigger than 2.0 * the largest uncertainty (0.788)'
p93
sg5
(lp94
g7
(g11
S'3\xad \xfe\xe1\xd3Q@'
p95
tp96
Rp97
ag7
(g11
S'\x05\x85\xd5\xb8\x95\xb9\xd7?'
p98
tp99
Rp100
assS'cyclohexane_DC'
p101
(dp102
g5
(lp103
NaNasg78
g21
sg73
g29
sg30
(lp104
NaNassS'smile'
p105
S'c1cc(c(cc1Cl)Cl)CC(C(=O)N)C(=O)N'
p106
sS'autoTime'
p107
(dp108
S'cyc'
p109
g7
(g11
S'ffffff\x12@'
p110
tp111
Rp112
sS'h2o'
p113
g7
(g11
S'\xcd\xcc\xcc\xcc\xcc\xcc\x0c@'
p114
tp115
Rp116
sS'oct'
p117
g7
(g11
S'ffffff\x0e@'
p118
tp119
Rp120
ssS'octanol_solDC'
p121
(dp122
g75
S'Warning energy difference (3.475) is bigger than 2.0 * the largest uncertainty (0.674)'
p123
sg5
(lp124
g7
(g11
S'bF\xc8_\xfa\x80T@'
p125
tp126
Rp127
ag7
(g11
S'[2\xf3;\xb3\x93\xf0?'
p128
tp129
Rp130
asg20
g79
sg28
(lp131
Nasg30
g31
(g32
(I0
tp132
g34
tp133
Rp134
(I1
(I2
tp135
g40
I00
S'\xc0\xfd7*\x82\x01\xfe?\x1a!Tf\xf8\xac\xc8?'
p136
tp137
bssS'octanol'
p138
g122
ssS'TestKeys'
p139
(dp140
S'cyclohexane'
p141
(dp142
S'energy'
p143
(lp144
NaNasS'ref'
p145
(lp146
S'str'
p147
ag147
ag147
ag147
asS'perError'
p148
(lp149
F-100.0
aF-100.0
aF-100.0
aF-100.0
asS'LogP_exp'
p150
(lp151
F-1.0
aF-1.0
aF-1.0
aF-1.0
asS'LogP_calc'
p152
(lp153
NaNassS'functGroups'
p154
(dp155
S'alcohol'
p156
I00
sS'amide'
p157
I00
sS'ketone'
p158
I00
sS'amine'
p159
I00
sS'ester'
p160
I00
sS'ether'
p161
I00
sS'carboxylic_acid'
p162
I00
ssg46
g142
sS'halogens'
p163
(dp164
S'I'
p165
I-1
sS'F'
p166
I-1
sS'Br'
p167
I-1
sS'Cl'
p168
I-1
ssS'iupac'
p169
g147
sS'octanol_DC'
p170
(dp171
g143
(lp172
NaNasg78
(lp173
g147
ag147
ag147
ag147
asg148
(lp174
F-100.0
aF-100.0
aF-100.0
aF-100.0
asg73
(lp175
F-1.0
aF-1.0
aF-1.0
aF-1.0
asg152
(lp176
NaNassS'rotatable'
p177
I-1
sg86
S'str'
p178
sg88
(dp179
S'energy'
p180
(lp181
NaNassS'cyclohexane_DC'
p182
(dp183
g143
(lp184
NaNasg78
g146
sg148
g149
sg73
g151
sg152
(lp185
NaNassS'smile'
p186
g147
sS'autoTime'
p187
(dp188
S'cyc'
p189
F-1.0
sS'h2o'
p190
F-1.0
sS'oct'
p191
F-1.0
ssg121
(dp192
g143
(lp193
NaNasg145
g173
sg148
g174
sg150
g175
sg152
(lp194
NaNassS'octanol'
p195
g192
sS'water'
p196
(dp197
g5
(lp198
NaNasssS'2-butylthio-1-4-Naphthoquinone'
p199
(dp200
g3
(dp201
g5
(lp202
g7
(g11
S'h9\x1c\xb7#\xa1J@'
p203
tp204
Rp205
ag7
(g11
S'\x9a\x17\xe9\xfdr\x8e\xc6?'
p206
tp207
Rp208
asg20
(lp209
S'141'
p210
asg23
(lp211
g7
(g11
S'\x10"@6\x01g\xd1?'
p212
tp213
Rp214
asg28
(lp215
F3.43
asg30
g31
(g32
(I0
tp216
g34
tp217
Rp218
(I1
(I2
tp219
g40
I00
S'\x8b\x11n\x94\\s\x11@\x97\x9b[\xcfZ]\xa2?'
p220
tp221
bssg45
I4
sg46
g201
sg47
(dp222
g49
I00
sg50
I00
sg51
I01
sg52
I00
sg53
I00
sg54
I00
sg55
I00
ssg56
(dp223
g58
I0
sg59
I0
sg60
I0
sg61
I0
ssg62
S'2-butylsulfanylnaphthalene-1,4-dione'
p224
sS'octanol_DC'
p225
(dp226
g5
(lp227
g7
(g11
S'\xc5\x8d*\x92\xa4\x97L@'
p228
tp229
Rp230
ag7
(g11
S'\x17\xd50\x1cLd\xdb?'
p231
tp232
Rp233
asg78
(lp234
S'141'
p235
asg23
(lp236
g7
(g11
S'\xc13A\xcaj\x1f\xe1?'
p237
tp238
Rp239
asg73
(lp240
F3.29
asg30
g31
(g32
(I0
tp241
g34
tp242
Rp243
(I1
(I2
tp244
g40
I00
S'St\xdb\xea\xa33\x14@\xfb\xf5\xd0+\x9e\xc1\xb3?'
p245
tp246
bssg86
S'4712'
p247
sg88
(dp248
g5
(lp249
NaNassg91
(dp250
g5
(lp251
g7
(g11
S'\xa0\x89\xcb\xefX[<@'
p252
tp253
Rp254
ag7
(g11
S'\xb4\xb0\x94q\x99\xae\xba?'
p255
tp256
Rp257
assS'cyclohexane_DC'
p258
(dp259
g5
(lp260
NaNasg78
g209
sg73
g215
sg30
(lp261
NaNassg105
S'CCCCSC1=CC(=O)c2ccccc2C1=O'
p262
sg107
(dp263
g109
g7
(g11
S'\x00\x00\x00\x00\x00\x00\x14@'
p264
tp265
Rp266
sg113
g7
(g11
S'\xcd\xcc\xcc\xcc\xcc\xcc\x0c@'
p267
tp268
Rp269
sg117
g7
(g11
S'\xcd\xcc\xcc\xcc\xcc\xcc\x0c@'
p270
tp271
Rp272
ssg121
(dp273
g5
(lp274
g7
(g11
S'G)\xb6g\x83\xd6M@'
p275
tp276
Rp277
ag7
(g11
S'\xbf5\xdb\xcfM\x99\xd5?'
p278
tp279
Rp280
asg20
g234
sg23
(lp281
g7
(g11
S'8>/\xb9 ^\xe5?'
p282
tp283
Rp284
asg28
g240
sg30
g31
(g32
(I0
tp285
g34
tp286
Rp287
(I1
(I2
tp288
g40
I00
S'\xde\xf2F\xd1\x8c\xf2\x15@k>\xc3\x94\xb3\xae\xaf?'
p289
tp290
bssg138
g273
ssS'5-cyano-2-(trifluoromethyl)-1H-benzimidazole'
p291
(dp292
g3
(dp293
g5
(lp294
g7
(g11
S'h.\x7fd\xec\x02F@'
p295
tp296
Rp297
ag7
(g11
S'\xeb\xa1\x94A\x18\xc8\xc1?'
p298
tp299
Rp300
asg20
(lp301
S'379'
p302
asg23
(lp303
g7
(g11
S'\x81\x8f>Obj\xe8?'
p304
tp305
Rp306
asg28
(lp307
F-1.15
asg30
g31
(g32
(I0
tp308
g34
tp309
Rp310
(I1
(I2
tp311
g40
I00
S'Y\x1c\xf0|\xb7q\xd1\xbf/\xee\xc8\xb4\xa9\xe3\x9d?'
p312
tp313
bssg45
I1
sg46
g293
sg47
(dp314
g49
I00
sg50
I00
sg51
I00
sg52
I01
sg53
I00
sg54
I00
sg55
I00
ssg56
(dp315
g58
I0
sg59
I0
sg60
I0
sg61
I3
ssg62
S'2-(trifluoromethyl)-1H-benzimidazole-5-carbonitrile'
p316
sS'octanol_DC'
p317
(dp318
g5
(lp319
g7
(g11
S'\x9f\x95\x17hO\xadQ@'
p320
tp321
Rp322
ag7
(g11
S'\xe7\xac\x1eN\xdb\xc8\xd3?'
p323
tp324
Rp325
asg78
(lp326
Nasg23
(lp327
sg73
(lp328
Nasg30
g31
(g32
(I0
tp329
g34
tp330
Rp331
(I1
(I2
tp332
g40
I00
S'\x02\xf3\xd1%!\x9c\x11@5K"\xc0(\xee\xac?'
p333
tp334
bssg86
S'3110'
p335
sg88
(dp336
g5
(lp337
NaNassg91
(dp338
g5
(lp339
g7
(g11
S'pQB\x11\x11\xcaF@'
p340
tp341
Rp342
ag7
(g11
S'4\xa4!\x91\x01\x8c\xb7?'
p343
tp344
Rp345
assS'cyclohexane_DC'
p346
(dp347
g5
(lp348
NaNasg78
g301
sg73
g307
sg30
(lp349
NaNassg105
S'c1cc2c(cc1C#N)nc([nH]2)C(F)(F)F'
p350
sg107
(dp351
g109
g7
(g11
S'ffffff\x12@'
p352
tp353
Rp354
sg113
g7
(g11
S'333333\x0b@'
p355
tp356
Rp357
sg117
g7
(g11
S'ffffff\x0e@'
p358
tp359
Rp360
ssg121
(dp361
g5
(lp362
g7
(g11
S')\xe3\xb1V\x11rQ@'
p363
tp364
Rp365
ag7
(g11
S'\xa1\x1d\x1e\x80\x18u\xd4?'
p366
tp367
Rp368
asg20
g326
sg28
(lp369
Nasg30
g31
(g32
(I0
tp370
g34
tp371
Rp372
(I1
(I2
tp373
g40
I00
S'\x01\xec0p\x11\xf6\x10@E\x18>=\xd8\xd5\xad?'
p374
tp375
bssg138
g361
ssS'Methanol'
p376
(dp377
g3
(dp378
g5
(lp379
g7
(g11
S'\xf2\xaa2\xc8z\xbd\r@'
p380
tp381
Rp382
ag7
(g11
S'\xf1\t\x19\xd9\x91\xbc\xab?'
p383
tp384
Rp385
asg20
(lp386
S'199'
p387
asg23
(lp388
g7
(g11
S'\x03\xce<-\xd6T\xa0?'
p389
tp390
Rp391
asg28
(lp392
F-1.84
asg30
g31
(g32
(I0
tp393
g34
tp394
Rp395
(I1
(I2
tp396
g40
I00
S'^7R\xc1\ta\xfe\xbfz\xe7\xe8&!a\x8a?'
p397
tp398
bssg45
I0
sg46
g378
sg47
(dp399
g49
I01
sg50
I00
sg51
I00
sg52
I00
sg53
I00
sg54
I00
sg55
I00
ssg56
(dp400
g58
I0
sg59
I0
sg60
I0
sg61
I0
ssg62
S'methanol'
p401
sS'octanol_DC'
p402
(dp403
g5
(lp404
g7
(g11
S'\x7f\xdfpnU\xd13@'
p405
tp406
Rp407
ag7
(g11
S'SY\x84\x89#I\xd0?'
p408
tp409
Rp410
asg78
(lp411
S'5'
p412
asg23
(lp413
g7
(g11
S'\t\x85\xdf\x11v\xef\xd8?'
p414
tp415
Rp416
asg73
(lp417
F-0.82
asg30
g31
(g32
(I0
tp418
g34
tp419
Rp420
(I1
(I2
tp421
g40
I00
S'\xbc\xea&\x8d8\x04\xe0\xbf\xf4\xa2i \xf0\\\xa7?'
p422
tp423
bssg86
S'159'
p424
sg88
(dp425
g5
(lp426
g7
(g11
S'x\xf0\x7f\x1c\xb6\xac6@'
p427
tp428
Rp429
ag7
(g11
S'\x97R^\xd0\x05t\xac?'
p430
tp431
Rp432
assg91
(dp433
g5
(lp434
g7
(g11
S'\xae7,\xd4J\x1c-@'
p435
tp436
Rp437
ag7
(g11
S'\x94\xc2\xae8>s\xa9?'
p438
tp439
Rp440
assS'cyclohexane_DC'
p441
(dp442
g5
(lp443
g7
(g11
S'<\xb5#S\x1c\xd3\r@'
p444
tp445
Rp446
ag7
(g11
S'\x89\xcf\xcd\xc2\xd6#\xab?'
p447
tp448
Rp449
asg78
g386
sg23
(lp450
g7
(g11
S'Gs\xf1\x88\x17\xba\xe9?'
p451
tp452
Rp453
asg73
g392
sg30
g31
(g32
(I0
tp454
g34
tp455
Rp456
(I1
(I2
tp457
g40
I00
S"\x1cc'\x1b\xec\x8d\n\xc0D\xc0\xae&!\x8e\x8b?"
p458
tp459
bssg105
S'CO'
p460
sg107
(dp461
g109
g7
(g11
S'333333\x13@'
p462
tp463
Rp464
sg113
g7
(g11
S'\xcd\xcc\xcc\xcc\xcc\xcc\x0c@'
p465
tp466
Rp467
sg117
g7
(g11
S'\xcd\xcc\xcc\xcc\xcc\xcc\x10@'
p468
tp469
Rp470
ssg121
(dp471
g5
(lp472
g7
(g11
S'I\x95jZ\x8b\xd1)@'
p473
tp474
Rp475
ag7
(g11
S'\xd8\x12\xe0\x99\xec\xb8\xc3?'
p476
tp477
Rp478
asg20
g411
sg23
(lp479
g7
(g11
S'Y\xc1Ry(\xbf\xe4?'
p480
tp481
Rp482
asg28
g417
sg30
g31
(g32
(I0
tp483
g34
tp484
Rp485
(I1
(I2
tp486
g40
I00
S'9{\xab\xa9\x94t\xd2\xbfBi\xad\x16c\x0b\x9d?'
p487
tp488
bssg138
g471
ssS'Butanol'
p489
(dp490
g3
(dp491
g5
(lp492
g7
(g11
S'i%gm\xa2\xe5,@'
p493
tp494
Rp495
ag7
(g11
S'?zm\xfa\xfd}\xb8?'
p496
tp497
Rp498
asg20
(lp499
S'272'
p500
aS'82'
p501
asg23
(lp502
g7
(g11
S'\x1c\x1eH\xb9\xf7\xad\xf3?'
p503
tp504
Rp505
ag7
(g11
S'[\x13\x1c\xf7\x8c]\xf2?'
p506
tp507
Rp508
asg28
(lp509
F-0.72
aF-1.12
asg30
g31
(g32
(I0
tp510
g34
tp511
Rp512
(I1
(I2
tp513
g40
I00
S':zM\xd9\xbb1\xc5?Q\x01;\xa8\x8a\xef\x94?'
p514
tp515
bssg45
I2
sg46
g491
sg47
(dp516
g49
I01
sg50
I00
sg51
I00
sg52
I00
sg53
I00
sg54
I00
sg55
I00
ssg56
(dp517
g58
I0
sg59
I0
sg60
I0
sg61
I0
ssg62
S'butan-1-ol'
p518
sS'octanol_DC'
p519
(dp520
g5
(lp521
g7
(g11
S' \x85\xc8zM\x13>@'
p522
tp523
Rp524
ag7
(g11
S"F4tW\xca'\xd2?"
p525
tp526
Rp527
asg78
(lp528
S'216'
p529
asg23
(lp530
g7
(g11
S'\xcfE\xb6\x9dd.\xe7?'
p531
tp532
Rp533
asg73
(lp534
F0.88
asg30
g31
(g32
(I0
tp535
g34
tp536
Rp537
(I1
(I2
tp538
g40
I00
S'Q\xb8;\xe9\x9cG\xf8?\xaf<\x8a\xfa\\;\xaa?'
p539
tp540
bssg86
S'950'
p541
sg88
(dp542
g5
(lp543
g7
(g11
S"'7\xd4e\xe1i5@"
p544
tp545
Rp546
ag7
(g11
S'\xd75\xa9%i1\xb2?'
p547
tp548
Rp549
assg91
(dp550
g5
(lp551
g7
(g11
S'%\xb48\xf2\xb9\x01+@'
p552
tp553
Rp554
ag7
(g11
S'"\xea.,\x86\x1b\xb1?'
p555
tp556
Rp557
assS'cyclohexane_DC'
p558
(dp559
g5
(lp560
g7
(g11
S'\x10\xbd\x93qku-@'
p561
tp562
Rp563
ag7
(g11
S'\x02v]<\xb8A\xb8?'
p564
tp565
Rp566
asg78
g499
sg23
(lp567
g7
(g11
S'\xa3B\xa0F\xbf\x0b\xe4?'
p568
tp569
Rp570
ag7
(g11
S'\t\x1b\xde\xb1AT\xa7?'
p571
tp572
Rp573
asg73
g509
sg30
g31
(g32
(I0
tp574
g34
tp575
Rp576
(I1
(I2
tp577
g40
I00
S'\xd4\xbb\x10\x8a\x8c\xbc\xf2\xbf5]R\x8e\x88?\x95?'
p578
tp579
bssg105
S'CCCCO'
p580
sg107
(dp581
g109
g7
(g11
S'\x9a\x99\x99\x99\x99\x99\x11@'
p582
tp583
Rp584
sg113
g7
(g11
S'\xcd\xcc\xcc\xcc\xcc\xcc\x0c@'
p585
tp586
Rp587
sg117
g7
(g11
S'\x00\x00\x00\x00\x00\x00\x10@'
p588
tp589
Rp590
ssg121
(dp591
g5
(lp592
g7
(g11
S'gVE\xba\xee\x876@'
p593
tp594
Rp595
ag7
(g11
S'\xbc\xe1@\xdc@K\xc7?'
p596
tp597
Rp598
asg20
g528
sg23
(lp599
g7
(g11
S'[Z\xd91\xfc\x82\xe9?'
p600
tp601
Rp602
asg28
g534
sg30
g31
(g32
(I0
tp603
g34
tp604
Rp605
(I1
(I2
tp606
g40
I00
S'(\x8e\xb1\x0b\x1dN\xf9?\xd3C\x16?\xb5c\xa1?'
p607
tp608
bssg138
g591
ssS'ethyl benzalcyanoacetate'
p609
(dp610
g3
(dp611
g5
(lp612
g7
(g11
S"th\x8c'<\xd8F@"
p613
tp614
Rp615
ag7
(g11
S'\xbb\xae\xbb)\x19\x8d\xc3?'
p616
tp617
Rp618
asg20
(lp619
S'141'
p620
aS'304'
p621
asg23
(lp622
g7
(g11
S'\xd3\xbc\xdc\xe7\xbf?\xcb?'
p623
tp624
Rp625
ag7
(g11
S'\xdd_w\xe9i\xb1\xc9?'
p626
tp627
Rp628
asg28
(lp629
F2.63
aF2.59
asg30
g31
(g32
(I0
tp630
g34
tp631
Rp632
(I1
(I2
tp633
g40
I00
S'qe?\xe5\x99\x8f\x00@\x88Em\xc2Y\x83\xa0?'
p634
tp635
bssg45
I4
sg46
g611
sg47
(dp636
g49
I00
sg50
I00
sg51
I00
sg52
I00
sg53
I01
sg54
I00
sg55
I00
ssg56
(dp637
g58
I0
sg59
I0
sg60
I0
sg61
I0
ssg62
S'ethyl (Z)-2-cyano-3-phenyl-prop-2-enoate'
p638
sS'octanol_DC'
p639
(dp640
g5
(lp641
g7
(g11
S'D\xb0\xb8fewG@'
p642
tp643
Rp644
ag7
(g11
S'\x10,\xb9\x82\xf1\xba\xd6?'
p645
tp646
Rp647
asg78
(lp648
S'EQ306'
p649
asg23
(lp650
g7
(g11
S'\xfcF&\xe1~\xed\xad?'
p651
tp652
Rp653
asg73
(lp654
F2.43
asg30
g31
(g32
(I0
tp655
g34
tp656
Rp657
(I1
(I2
tp658
g40
I00
S'\xbfX@\x1a\xbeM\x02@Yp\xb5$\x02\x95\xb0?'
p659
tp660
bssg86
S'4312'
p661
sg88
(dp662
g5
(lp663
NaNassg91
(dp664
g5
(lp665
g7
(g11
S'}zHv\xc1\xef@@'
p666
tp667
Rp668
ag7
(g11
S'i\xc9\xa83\xc4N\xba?'
p669
tp670
Rp671
assS'cyclohexane_DC'
p672
(dp673
g5
(lp674
NaNasg78
g619
sg73
g629
sg30
(lp675
NaNassg105
S'CCOC(=O)/C(=C\\c1ccccc1)/C#N'
p676
sg107
(dp677
g109
g7
(g11
S'ffffff\x12@'
p678
tp679
Rp680
sg113
g7
(g11
S'333333\x0b@'
p681
tp682
Rp683
ssg121
(dp684
g5
(lp685
g7
(g11
S'\x0e\xd1\xebgIpK@'
p686
tp687
Rp688
ag7
(g11
S'\xca\xb8\x12\xe2i\xa7\xd3?'
p689
tp690
Rp691
asg20
g648
sg23
(lp692
g7
(g11
S'\xfbpkb7u\xe0?'
p693
tp694
Rp695
asg28
g654
sg30
g31
(g32
(I0
tp696
g34
tp697
Rp698
(I1
(I2
tp699
g40
I00
S'=n\xfd>+p\r@H\xaf@\xa0\x15\x0c\xad?'
p700
tp701
bssg138
g684
ssS'P-Ethylphenol'
p702
(dp703
g3
(dp704
g5
(lp705
g7
(g11
S'z\xc9\x0c\xe8\x9e^9@'
p706
tp707
Rp708
ag7
(g11
S'\xbe\xd4\x8e\x0bg\xdc\xbe?'
p709
tp710
Rp711
asg20
(lp712
S'132'
p713
aS'325'
p714
asg23
(lp715
g7
(g11
S'yQ08\xe2\xc8\xac?'
p716
tp717
Rp718
ag7
(g11
S'\x01\xc0\xd6\xde\x0cc\xd0?'
p719
tp720
Rp721
asg28
(lp722
F0.44
aF0.37
asg30
g31
(g32
(I0
tp723
g34
tp724
Rp725
(I1
(I2
tp726
g40
I00
S'H\xd1^\xa4?\xbe\xdd?\rg\xb4\xdb\xff\xe8\x99?'
p727
tp728
bssg45
I1
sg46
g704
sg47
(dp729
g49
I01
sg50
I00
sg51
I00
sg52
I00
sg53
I00
sg54
I00
sg55
I00
ssg56
(dp730
g58
I0
sg59
I0
sg60
I0
sg61
I0
ssg62
S'4-ethylphenol'
p731
sS'octanol_DC'
p732
(dp733
g5
(lp734
g7
(g11
S'{\xe7\xc1\x82,\x7fF@'
p735
tp736
Rp737
ag7
(g11
S'J\xdd\xf0\xd5\x81;\xd6?'
p738
tp739
Rp740
asg78
(lp741
S'Sangster'
p742
asg23
(lp743
g7
(g11
S'@\xdc9_\xd4\x98\xb6?'
p744
tp745
Rp746
asg73
(lp747
F2.5
asg30
g31
(g32
(I0
tp748
g34
tp749
Rp750
(I1
(I2
tp751
g40
I00
S'5\x85p\x97\xf0\xc3\x05@y\nO\xa2G\x01\xb0?'
p752
tp753
bssg86
S'2938'
p754
sg88
(dp755
g5
(lp756
g7
(g11
S'\x86\xff\x99\xbc\xc3v=@'
p757
tp758
Rp759
ag7
(g11
S'/fEO\xc6\xea\xb4?'
p760
tp761
Rp762
assg91
(dp763
g5
(lp764
g7
(g11
S'\x91\xfa\x1c4\x86\xb76@'
p765
tp766
Rp767
ag7
(g11
S'\xf4t\x1eF\x04]\xb4?'
p768
tp769
Rp770
assS'cyclohexane_DC'
p771
(dp772
g5
(lp773
g7
(g11
S'\x1dKs\x06\xe0c9@'
p774
tp775
Rp776
ag7
(g11
S' :{`\x9f\x1a\xbe?'
p777
tp778
Rp779
asg78
g712
sg23
(lp780
g7
(g11
S'\xe4\xdb\xd1{\xef\xf9\x04@'
p781
tp782
Rp783
ag7
(g11
S'\x8b\xabE\xe6hn\x07@'
p784
tp785
Rp786
asg73
g722
sg30
g31
(g32
(I0
tp787
g34
tp788
Rp789
(I1
(I2
tp790
g40
I00
S'\xba\xa1R@\x9b\xd6\xe6\xbfo\x96a\x04B\xb0\x99?'
p791
tp792
bssg105
S'CCc1ccc(cc1)O'
p793
sg107
(dp794
g109
g7
(g11
S'333333\x13@'
p795
tp796
Rp797
sg113
g7
(g11
S'\xcd\xcc\xcc\xcc\xcc\xcc\x0c@'
p798
tp799
Rp800
sg117
g7
(g11
S'ffffff\x0e@'
p801
tp802
Rp803
ssg121
(dp804
g5
(lp805
g7
(g11
S'\xcd\x00\x89P\x1a\x12B@'
p806
tp807
Rp808
ag7
(g11
S'l\xf1\x0e\x9d}\xe0\xcc?'
p809
tp810
Rp811
asS'uncert_exp'
p812
(lp813
F0.1
asg28
g747
sg23
(lp814
g7
(g11
S'MF\xf7\x8e\xd4U\xae?'
p815
tp816
Rp817
asg20
g741
sg30
g31
(g32
(I0
tp818
g34
tp819
Rp820
(I1
(I2
tp821
g40
I00
S'AWj\xb2\xa5\xd0\x02@;\xday\xd7\x04u\xa5?'
p822
tp823
bssg138
g804
ssS'Benzaldehyde'
p824
(dp825
g3
(dp826
g5
(lp827
g7
(g11
S'$\xa6\x93O\xed\xb35@'
p828
tp829
Rp830
ag7
(g11
S'g:\xc5X\xe9\xcd\xba?'
p831
tp832
Rp833
asg20
(lp834
S'141'
p835
aS'248'
p836
asg23
(lp837
g7
(g11
S'i\x11F\xdc\x94\x1f\xed?'
p838
tp839
Rp840
ag7
(g11
S'\xd5\xe0\x14\x88\xfd\x92\xed?'
p841
tp842
Rp843
asg28
(lp844
F1.13
aF1.34
asg30
g31
(g32
(I0
tp845
g34
tp846
Rp847
(I1
(I2
tp848
g40
I00
S'fX|.9\x01\xba?\x08.\xa8\xaaU\xdc\x96?'
p849
tp850
bssg45
I1
sg46
g826
sg47
(dp851
g49
I00
sg50
I00
sg51
I01
sg52
I00
sg53
I00
sg54
I00
sg55
I00
ssg56
(dp852
g58
I0
sg59
I0
sg60
I0
sg61
I0
ssg62
S'benzaldehyde'
p853
sS'octanol_DC'
p854
(dp855
g5
(lp856
g7
(g11
S'\x92\x14\xfc\xf8\x1e\xbf:@'
p857
tp858
Rp859
ag7
(g11
S"\x17'\x17\xe7\xb8\xb1\xcf?"
p860
tp861
Rp862
asg78
(lp863
S'235'
p864
asg23
(lp865
g7
(g11
S')j\xd9j\x85e\xd5?'
p866
tp867
Rp868
asg73
(lp869
F1.48
asg30
g31
(g32
(I0
tp870
g34
tp871
Rp872
(I1
(I2
tp873
g40
I00
S'\xae;\xe4Y\xcb\x86\xef?\t\xa7\xbc4m%\xa7?'
p874
tp875
bssg86
S'2133'
p876
sg88
(dp877
g5
(lp878
NaNassg91
(dp879
g5
(lp880
g7
(g11
S'\xb4I>\xd7}\x1f5@'
p881
tp882
Rp883
ag7
(g11
S'\xfb\xafJ\x97\x10\x98\xb2?'
p884
tp885
Rp886
assS'cyclohexane_DC'
p887
(dp888
g5
(lp889
NaNasg78
g834
sg73
g844
sg30
(lp890
NaNassg105
S'c1ccc(cc1)C=O'
p891
sg107
(dp892
g109
g7
(g11
S'\x9a\x99\x99\x99\x99\x99\x11@'
p893
tp894
Rp895
sg113
g7
(g11
S'\xcd\xcc\xcc\xcc\xcc\xcc\x0c@'
p896
tp897
Rp898
sg117
g7
(g11
S'\xcd\xcc\xcc\xcc\xcc\xcc\x10@'
p899
tp900
Rp901
ssg121
(dp902
g5
(lp903
g7
(g11
S'^L\x01\xee\x9d\x89=@'
p904
tp905
Rp906
ag7
(g11
S'8\xd1\x8c\x93\xc0\xd6\xc9?'
p907
tp908
Rp909
asg20
g863
sg23
(lp910
g7
(g11
S'\xb4&\x18\xda\xe1$p?'
p911
tp912
Rp913
asg28
g869
sg30
g31
(g32
(I0
tp914
g34
tp915
Rp916
(I1
(I2
tp917
g40
I00
S'V\x8au\xd0/\x96\xf7?)~\xba#X>\xa3?'
p918
tp919
bssg138
g902
ssS'O-Toluidine'
p920
(dp921
g3
(dp922
g5
(lp923
g7
(g11
S'\xa4\x8d]\xf7\x05\xcd6@'
p924
tp925
Rp926
ag7
(g11
S'\x08[k\xf1B\xb9\xba?'
p927
tp928
Rp929
asg20
(lp930
S'337'
p931
asg23
(lp932
g7
(g11
S'Q\x94c\xc5g\xff\xed?'
p933
tp934
Rp935
asg28
(lp936
F0.67
asg30
g31
(g32
(I0
tp937
g34
tp938
Rp939
(I1
(I2
tp940
g40
I00
S'%x\xfd\xbb\x03w\xa5?Oi*`U\x04\x97?'
p941
tp942
bssg45
I0
sg46
g922
sg47
(dp943
g49
I00
sg50
I00
sg51
I00
sg52
I01
sg53
I00
sg54
I00
sg55
I00
ssg56
(dp944
g58
I0
sg59
I0
sg60
I0
sg61
I0
ssg62
S'2-methylaniline'
p945
sS'octanol_DC'
p946
(dp947
g5
(lp948
g7
(g11
S'\xe9)\x94y\xb929@'
p949
tp950
Rp951
ag7
(g11
S's\xdb\x1a!5D\xce?'
p952
tp953
Rp954
asg78
(lp955
S'312'
p956
aS'301'
p957
asg23
(lp958
g7
(g11
S'\xecA\x85X\xb5\x8a\xe4?'
p959
tp960
Rp961
ag7
(g11
S'\x84\xdd\r\xc5_\xcd\xe4?'
p962
tp963
Rp964
asg73
(lp965
F1.29
aF1.32
asg30
g31
(g32
(I0
tp966
g34
tp967
Rp968
(I1
(I2
tp969
g40
I00
S'\x142\xa8r\xe4\x8f\xdd?\xfdU\xdd\x9bz=\xa6?'
p970
tp971
bssg86
S'2411'
p972
sg88
(dp973
g5
(lp974
NaNassg91
(dp975
g5
(lp976
g7
(g11
S'\x87\xd0\xb2-\xc3\x8f6@'
p977
tp978
Rp979
ag7
(g11
S't\xda\xf1\xb3\x89\x18\xb3?'
p980
tp981
Rp982
assS'cyclohexane_DC'
p983
(dp984
g5
(lp985
NaNasg78
g930
sg73
g936
sg30
(lp986
NaNassg105
S'Cc1ccccc1N'
p987
sg107
(dp988
g109
g7
(g11
S'\xcd\xcc\xcc\xcc\xcc\xcc\x14@'
p989
tp990
Rp991
sg113
g7
(g11
S'\xcd\xcc\xcc\xcc\xcc\xcc\x0c@'
p992
tp993
Rp994
sg117
g7
(g11
S'\xcd\xcc\xcc\xcc\xcc\xcc\x10@'
p995
tp996
Rp997
ssg121
(dp998
g5
(lp999
g7
(g11
S'e\x0e~#\x11\xe4<@'
p1000
tp1001
Rp1002
ag7
(g11
S'\xaa\xe0\xf9d\xa8\xb6\xca?'
p1003
tp1004
Rp1005
asg20
g955
sg23
(lp1006
g7
(g11
S'\x18\xa0\xa4w\x86\xf9\xc1?'
p1007
tp1008
Rp1009
ag7
(g11
S'\x18(x#\xacy\xc4?'
p1010
tp1011
Rp1012
asg28
g965
sg30
g31
(g32
(I0
tp1013
g34
tp1014
Rp1015
(I1
(I2
tp1016
g40
I00
S'\xc9_\xbf\x13\xd8\xbd\xf1?z\t\xfbu<\xe1\xa3?'
p1017
tp1018
bssg138
g998
ssS'2-4-dimethylphenol'
p1019
(dp1020
g3
(dp1021
g5
(lp1022
g7
(g11
S'\xc9\xdc\x951\x18\x8f9@'
p1023
tp1024
Rp1025
ag7
(g11
S'\xb7\x84/\xed\x91v\xbe?'
p1026
tp1027
Rp1028
asg20
(lp1029
S'132'
p1030
aS'325'
p1031
asg23
(lp1032
g7
(g11
S'\x7fkr\t\xe0\x9c\xc4?'
p1033
tp1034
Rp1035
ag7
(g11
S'\xa9\xda\xa9i\xc6V\xe3?'
p1036
tp1037
Rp1038
asg28
(lp1039
F0.76
aF0.55
asg30
g31
(g32
(I0
tp1040
g34
tp1041
Rp1042
(I1
(I2
tp1043
g40
I00
S'wk\x1d\xba\x86<\xec?$\xf7\x85\xae\x0f\xc6\x99?'
p1044
tp1045
bssg45
I0
sg46
g1021
sg47
(dp1046
g49
I01
sg50
I00
sg51
I00
sg52
I00
sg53
I00
sg54
I00
sg55
I00
ssg56
(dp1047
g58
I0
sg59
I0
sg60
I0
sg61
I0
ssg62
S'2,4-dimethylphenol'
p1048
sS'octanol_DC'
p1049
(dp1050
g5
(lp1051
g7
(g11
S'\xbf\x145\xc2\x9f\xa4D@'
p1052
tp1053
Rp1054
ag7
(g11
S'%p\xf0.cQ\xd7?'
p1055
tp1056
Rp1057
asg78
g741
sg23
(lp1058
g7
(g11
S'\xf5io\x9e\x13\x92\x9a?'
p1059
tp1060
Rp1061
asg73
(lp1062
F2.35
asg30
g31
(g32
(I0
tp1063
g34
tp1064
Rp1065
(I1
(I2
tp1066
g40
I00
S'?\xa5h\x8f\xaeI\x03@\xe1\x19*% \xc2\xb0?'
p1067
tp1068
bssg86
S'2914'
p1069
sg88
(dp1070
g5
(lp1071
g7
(g11
S'\x199t^5\x86;@'
p1072
tp1073
Rp1074
ag7
(g11
S'\xb5\x10\xe1\xc9\xf29\xb5?'
p1075
tp1076
Rp1077
assg91
(dp1078
g5
(lp1079
g7
(g11
S'S\x97&n\xb4\x854@'
p1080
tp1081
Rp1082
ag7
(g11
S'\xd1a"\xe5\xaf\x9b\xb4?'
p1083
tp1084
Rp1085
assS'cyclohexane_DC'
p1086
(dp1087
g5
(lp1088
g7
(g11
S'#\xf2\r\xea\xec\x929@'
p1089
tp1090
Rp1091
ag7
(g11
S'\x81{\x03#;y\xbe?'
p1092
tp1093
Rp1094
asg78
g1029
sg23
(lp1095
g7
(g11
S'\x96\x9dm\xce|1\xf7?'
p1096
tp1097
Rp1098
ag7
(g11
S'\xef\x93m\xd7\x99\xf0\xf9?'
p1099
tp1100
Rp1101
asg73
g1039
sg30
g31
(g32
(I0
tp1102
g34
tp1103
Rp1104
(I1
(I2
tp1105
g40
I00
S'\xa9xW@\x1f\xde\xd5\xbf\xa2\xfbp\x02^\x06\x9a?'
p1106
tp1107
bssg105
S'Cc1ccc(c(c1)C)O'
p1108
sg107
(dp1109
g109
g7
(g11
S'\xcd\xcc\xcc\xcc\xcc\xcc\x10@'
p1110
tp1111
Rp1112
sg113
g7
(g11
S'\xcd\xcc\xcc\xcc\xcc\xcc\x0c@'
p1113
tp1114
Rp1115
sg117
g7
(g11
S'\xcd\xcc\xcc\xcc\xcc\xcc\x10@'
p1116
tp1117
Rp1118
ssg121
(dp1119
g5
(lp1120
g7
(g11
S'<\\x\x16\xb7\x01A@'
p1121
tp1122
Rp1123
ag7
(g11
S'\xb1i\xe0 \xfd\x80\xce?'
p1124
tp1125
Rp1126
asg812
(lp1127
F0.15
asg28
g1062
sg23
(lp1128
g7
(g11
S'&7\xcc^\xc7\x9aw?'
p1129
tp1130
Rp1131
asg20
g741
sg30
g31
(g32
(I0
tp1132
g34
tp1133
Rp1134
(I1
(I2
tp1135
g40
I00
S'\xc1\xfc\xa8\x10\x89\xe8\x02@\xd2lj\xf6\x15\x90\xa6?'
p1136
tp1137
bssg138
g1119
ssS'Butylamine'
p1138
(dp1139
g3
(dp1140
g5
(lp1141
g7
(g11
S'\xf0\x92\xe5\xdb\x98;.@'
p1142
tp1143
Rp1144
ag7
(g11
S'T!\xee\x84p\xcb\xb8?'
p1145
tp1146
Rp1147
asg20
(lp1148
S'251'
p1149
asg23
(lp1150
g7
(g11
S'\x13\x91\xe4\x8d\xdb\xfd\x03@'
p1151
tp1152
Rp1153
asg28
(lp1154
F-0.29
asg30
g31
(g32
(I0
tp1155
g34
tp1156
Rp1157
(I1
(I2
tp1158
g40
I00
S"\x9c'\x8d\xd8\x11\xd2\xdb?\x8a\xeab\xceK\x16\x95?"
p1159
tp1160
bssg45
I2
sg46
g1140
sg47
(dp1161
g49
I00
sg50
I00
sg51
I00
sg52
I01
sg53
I00
sg54
I00
sg55
I00
ssg56
(dp1162
g58
I0
sg59
I0
sg60
I0
sg61
I0
ssg62
S'butan-1-amine'
p1163
sS'octanol_DC'
p1164
(dp1165
g5
(lp1166
g7
(g11
S'\x83\x0b\n]\xb2\x000@'
p1167
tp1168
Rp1169
ag7
(g11
S'X\xe5y\xc8\xc6\xdc\xca?'
p1170
tp1171
Rp1172
asg78
(lp1173
S'251'
p1174
aS'218'
p1175
ag412
asg23
(lp1176
g7
(g11
S'\x90\x0e\x91P\xc4\x17\xd5?'
p1177
tp1178
Rp1179
ag7
(g11
S'\xc6\xd3z\x1b\x83b\xd1?'
p1180
tp1181
Rp1182
ag7
(g11
S'\x95\x07\x0eX8\xf2\xc0?'
p1183
tp1184
Rp1185
asg73
(lp1186
F0.88
aF0.81
aF0.68
asg30
g31
(g32
(I0
tp1187
g34
tp1188
Rp1189
(I1
(I2
tp1190
g40
I00
S"'\xbc\x82\x05\x10\xe1\xe2?9\x19\xe8\x1b\xe7\xbf\xa3?"
p1191
tp1192
bssg86
S'1014'
p1193
sg88
(dp1194
g5
(lp1195
NaNassg91
(dp1196
g5
(lp1197
g7
(g11
S'\x8f\x10NU2E)@'
p1198
tp1199
Rp1200
ag7
(g11
S'\x10\x81\x00\xaf\xdc\x0c\xb1?'
p1201
tp1202
Rp1203
assS'cyclohexane_DC'
p1204
(dp1205
g5
(lp1206
NaNasg78
g1148
sg73
g1154
sg30
(lp1207
NaNassg105
S'CCCCN'
p1208
sg107
(dp1209
g109
g7
(g11
S'\xcd\xcc\xcc\xcc\xcc\xcc\x10@'
p1210
tp1211
Rp1212
sg113
g7
(g11
S'\xcd\xcc\xcc\xcc\xcc\xcc\x0c@'
p1213
tp1214
Rp1215
sg117
g7
(g11
S'ffffffE@'
p1216
tp1217
Rp1218
ssg121
(dp1219
g5
(lp1220
g7
(g11
S'\x8e\xbc]\xb7b\x903@'
p1221
tp1222
Rp1223
ag7
(g11
S'\xc3\x1fo\xb7\xb7\x15\xc7?'
p1224
tp1225
Rp1226
asg20
g1173
sg23
(lp1227
g7
(g11
S'xPU\xd8OH\xd8?'
p1228
tp1229
Rp1230
ag7
(g11
S'\x15\x02c\xdel\xe9\xdf?'
p1231
tp1232
Rp1233
ag7
(g11
S'z\x9d\xa01\xbb\x1f\xe9?'
p1234
tp1235
Rp1236
asg28
g1186
sg30
g31
(g32
(I0
tp1237
g34
tp1238
Rp1239
(I1
(I2
tp1240
g40
I00
S'\xb4\x91\xdf\x90\x11l\xf3?|zZG\xba>\xa1?'
p1241
tp1242
bssg138
g1219
ssS'O-Methylphenol'
p1243
(dp1244
g3
(dp1245
g5
(lp1246
g7
(g11
S'\xb6\x91\x9c\x8bp\xfb5@'
p1247
tp1248
Rp1249
ag7
(g11
S'R\r\xa7y\xef\x84\xbb?'
p1250
tp1251
Rp1252
asg20
(lp1253
S'124'
p1254
aS'132'
p1255
aS'325'
p1256
aS'133'
p1257
asg23
(lp1258
g7
(g11
S'\xc0\x8e~\x93\x01b\x07@'
p1259
tp1260
Rp1261
ag7
(g11
S'\x8b\ro\xc2\x07\x80\xca?'
p1262
tp1263
Rp1264
ag7
(g11
S'3\xb1\xfd\xebh6\xe2?'
p1265
tp1266
Rp1267
ag7
(g11
S'\x9a\x9d\x04(.\x93\xcb?'
p1268
tp1269
Rp1270
asg28
(lp1271
F0.04
aF0.13
aF0.1
aF0.2
asg30
g31
(g32
(I0
tp1272
g34
tp1273
Rp1274
(I1
(I2
tp1275
g40
I00
S'H\xad\x98\x91\xc3\x15\xc4?\xd6\x18D\xb3\x07\x8b\x97?'
p1276
tp1277
bssg45
I0
sg46
g1245
sg47
(dp1278
g49
I01
sg50
I00
sg51
I00
sg52
I00
sg53
I00
sg54
I00
sg55
I00
ssg56
(dp1279
g58
I0
sg59
I0
sg60
I0
sg61
I0
ssg62
S'o-cresol'
p1280
sS'octanol_DC'
p1281
(dp1282
g5
(lp1283
g7
(g11
S"E\x90b':\x91D@"
p1284
tp1285
Rp1286
ag7
(g11
S'\x17\x89U\xe8o\x14\xd9?'
p1287
tp1288
Rp1289
asg78
(lp1290
S'216'
p1291
asg23
(lp1292
g7
(g11
S'\x04\xf8\xe0u\x05\x9f\xc6?'
p1293
tp1294
Rp1295
asg73
(lp1296
F1.95
asg30
g31
(g32
(I0
tp1297
g34
tp1298
Rp1299
(I1
(I2
tp1300
g40
I00
S':\x9e*wa[\x02@ef\xba\xaa7\xeb\xb1?'
p1301
tp1302
bssg86
S'2336'
p1303
sg88
(dp1304
g5
(lp1305
g7
(g11
S'S\xb8\xd8Vq\t<@'
p1306
tp1307
Rp1308
ag7
(g11
S']\xe8\x9f:0\xef\xb3?'
p1309
tp1310
Rp1311
assg91
(dp1312
g5
(lp1313
g7
(g11
S'A\xab\x9b\x1b&\x165@'
p1314
tp1315
Rp1316
ag7
(g11
S'N\xf3\xef\xc6qE\xb3?'
p1317
tp1318
Rp1319
assS'cyclohexane_DC'
p1320
(dp1321
g5
(lp1322
g7
(g11
S'G\xae\xab4\x84:6@'
p1323
tp1324
Rp1325
ag7
(g11
S'\x81\n\x9d\x02\t6\xbb?'
p1326
tp1327
Rp1328
asg78
g1253
sg23
(lp1329
g7
(g11
S'u\xba\xa6\xa7up:@'
p1330
tp1331
Rp1332
ag7
(g11
S'\xe5\xe8R\xdd\xaa\xa7!@'
p1333
tp1334
Rp1335
ag7
(g11
S'\xc4.R\xb9\xf7Y&@'
p1336
tp1337
Rp1338
ag7
(g11
S'\xc3.R\xb9\xf7Y\x18@'
p1339
tp1340
Rp1341
asg73
g1271
sg30
g31
(g32
(I0
tp1342
g34
tp1343
Rp1344
(I1
(I2
tp1345
g40
I00
S"\xd0\x8b\x0ea\xf9G\xf0\xbf'\x08\x1f\xddY\xa3\x97?"
p1346
tp1347
bssg105
S'Cc1ccccc1O'
p1348
sg107
(dp1349
g109
g7
(g11
S'ffffff\x12@'
p1350
tp1351
Rp1352
sg113
g7
(g11
S'\xcd\xcc\xcc\xcc\xcc\xcc\x0c@'
p1353
tp1354
Rp1355
sg117
g7
(g11
S'ffffff\x0e@'
p1356
tp1357
Rp1358
ssg121
(dp1359
g5
(lp1360
g7
(g11
S'\x04/\xf2\x07\xb0\xc0?@'
p1361
tp1362
Rp1363
ag7
(g11
S'\xda\xf4\xd5&\xc9\x08\xd2?'
p1364
tp1365
Rp1366
asg20
g1290
sg23
(lp1367
g7
(g11
S'5\x81\xf4\xe45]\xa5?'
p1368
tp1369
Rp1370
asg28
g1296
sg30
g31
(g32
(I0
tp1371
g34
tp1372
Rp1373
(I1
(I2
tp1374
g40
I00
S'\xedL\x0c\x84\xeb\xe5\xfd?bq\xef6\x87)\xaa?'
p1375
tp1376
bssg138
g1359
ssS'1-Cinnamoylpiperidine'
p1377
(dp1378
g3
(dp1379
g5
(lp1380
g7
(g11
S'n\xb93\x03Y8I@'
p1381
tp1382
Rp1383
ag7
(g11
S'\x80\xdf\x94\x02\x07\xa3\xc5?'
p1384
tp1385
Rp1386
asg20
(lp1387
S'446'
p1388
asg23
(lp1389
g7
(g11
S'\x90\xe2\xbdt\xcf>\xca?'
p1390
tp1391
Rp1392
asg28
(lp1393
F1.44
asg30
g31
(g32
(I0
tp1394
g34
tp1395
Rp1396
(I1
(I2
tp1397
g40
I00
S'\xd2\x7f\xda8\xa0\xc3\xfb?\xaf\x15\xab\xc9Y\xf9\xa1?'
p1398
tp1399
bssg45
I3
sg46
g1379
sg47
(dp1400
g49
I00
sg50
I01
sg51
I00
sg52
I00
sg53
I00
sg54
I00
sg55
I00
ssg56
(dp1401
g58
I0
sg59
I0
sg60
I0
sg61
I0
ssg62
S'(E)-3-phenyl-1-(1-piperidyl)prop-2-en-1-one'
p1402
sS'octanol_DC'
p1403
(dp1404
g5
(lp1405
g7
(g11
S'\xec\xab\xec(i\x1cQ@'
p1406
tp1407
Rp1408
ag7
(g11
S'^\xbf]\x92\x0b\x17\xdc?'
p1409
tp1410
Rp1411
asg78
(lp1412
S'EQ572'
p1413
asg23
(lp1414
g7
(g11
S"'n\x11\x9e(\x1a\xe9?"
p1415
tp1416
Rp1417
asg73
(lp1418
F2.74
asg30
g31
(g32
(I0
tp1419
g34
tp1420
Rp1421
(I1
(I2
tp1422
g40
I00
S'\xf8?\xc7&\xb8\x8e\x13@\xc0>\xfch\x83D\xb4?'
p1423
tp1424
bssg86
S'4764'
p1425
sg88
(dp1426
g5
(lp1427
NaNassg91
(dp1428
g5
(lp1429
g7
(g11
S'\x91\xf6\x13\r\x86DD@'
p1430
tp1431
Rp1432
ag7
(g11
S'\xa8\x05 \xea,\x8c\xbb?'
p1433
tp1434
Rp1435
assS'cyclohexane_DC'
p1436
(dp1437
g5
(lp1438
NaNasg78
g1387
sg73
g1393
sg30
(lp1439
NaNassg105
S'c1ccc(cc1)/C=C/C(=O)N2CCCCC2'
p1440
sg107
(dp1441
g109
g7
(g11
S'\xcd\xcc\xcc\xcc\xcc\xcc\x10@'
p1442
tp1443
Rp1444
sg113
g7
(g11
S'\xcd\xcc\xcc\xcc\xcc\xcc\x0c@'
p1445
tp1446
Rp1447
sg117
g7
(g11
S'ffffff\x0e@'
p1448
tp1449
Rp1450
ssg121
(dp1451
g5
(lp1452
g7
(g11
S'\xaa\xe2\x0b\xa3\xee\xcfP@'
p1453
tp1454
Rp1455
ag7
(g11
S'\xda-k\xd2\x03a\xd7?'
p1456
tp1457
Rp1458
asg20
g1412
sg23
(lp1459
g7
(g11
S'c\xda\xd1\x86>\xa8\xe6?'
p1460
tp1461
Rp1462
asg28
g1418
sg30
g31
(g32
(I0
tp1463
g34
tp1464
Rp1465
(I1
(I2
tp1466
g40
I00
S'\\\x1d\xb2\xf9W\xb8\x12@\x04\x90\xc0\xaeN\x14\xb1?'
p1467
tp1468
bssg138
g1451
ssS'2-2-2-trichloro-1-dimethoxyphosphorylethanol'
p1469
(dp1470
g3
(dp1471
g5
(lp1472
g7
(g11
S'\x07%\x14\xab\xe6AE@'
p1473
tp1474
Rp1475
ag7
(g11
S'\x87\xd8}$\x92)\xc3?'
p1476
tp1477
Rp1478
asg20
(lp1479
S'262'
p1480
asg23
(lp1481
g7
(g11
S'\xdd\x0b\x89\x18k\xdb\xd5?'
p1482
tp1483
Rp1484
asg28
(lp1485
F-1.7
asg30
g31
(g32
(I0
tp1486
g34
tp1487
Rp1488
(I1
(I2
tp1489
g40
I00
S'R\x1f\x9d[\xa0>\x02\xc0\x88x\x08\xa1X\xa3\xa0?'
p1490
tp1491
bssg45
I4
sg46
g1471
sg47
(dp1492
g49
I01
sg50
I00
sg51
I00
sg52
I00
sg53
I00
sg54
I01
sg55
I00
ssg56
(dp1493
g58
I0
sg59
I3
sg60
I0
sg61
I0
ssg62
S'2,2,2-trichloro-1-dimethoxyphosphoryl-ethanol'
p1494
sS'octanol_DC'
p1495
(dp1496
g5
(lp1497
g7
(g11
S'7\xdf?L.\xe1Q@'
p1498
tp1499
Rp1500
ag7
(g11
S'm\x97\x13\x9d}\t\xe0?'
p1501
tp1502
Rp1503
asg78
(lp1504
S'262'
p1505
asg23
(lp1506
g7
(g11
S'9\x16\x8a<q\xc6\x03@'
p1507
tp1508
Rp1509
asg73
(lp1510
F0.51
asg30
g31
(g32
(I0
tp1511
g34
tp1512
Rp1513
(I1
(I2
tp1514
g40
I00
S'\xca\x9b\x82\xb3\xa6T\xfc?*\xc5\xbd:\x10\x13\xb7?'
p1515
tp1516
bssg86
S'835'
p1517
sg88
(dp1518
g5
(lp1519
g7
(g11
S'&\xa2\x161\xab\xb4N@'
p1520
tp1521
Rp1522
ag7
(g11
S'\xf0\xed\xfc\xe5\x9b\xc9\xbd?'
p1523
tp1524
Rp1525
assg91
(dp1526
g5
(lp1527
g7
(g11
S'\x8c\x8f\x1c\x13&\xc4K@'
p1528
tp1529
Rp1530
ag7
(g11
S'\x9cG\xa3\xe6Y\t\xbc?'
p1531
tp1532
Rp1533
assS'cyclohexane_DC'
p1534
(dp1535
g5
(lp1536
g7
(g11
S'\x0bVr\xc2\xccCE@'
p1537
tp1538
Rp1539
ag7
(g11
S'\xe6\xaa5\\\xbcl\xc2?'
p1540
tp1541
Rp1542
asg78
g1479
sg23
(lp1543
g7
(g11
S'\xae\xf7\xdf=kD\xee?'
p1544
tp1545
Rp1546
asg73
g1485
sg30
g31
(g32
(I0
tp1547
g34
tp1548
Rp1549
(I1
(I2
tp1550
g40
I00
S'\x10\x96\xe5\x93\xadv\n\xc0\xedfHK8\x9a\xa0?'
p1551
tp1552
bssg105
S'COP(=O)([C@H](C(Cl)(Cl)Cl)O)OC'
p1553
sg107
(dp1554
g109
g7
(g11
S'333333\x13@'
p1555
tp1556
Rp1557
sg113
g7
(g11
S'\xcd\xcc\xcc\xcc\xcc\xcc\x0c@'
p1558
tp1559
Rp1560
sg117
g7
(g11
S'ffffff\x0e@'
p1561
tp1562
Rp1563
ssg121
(dp1564
g5
(lp1565
g7
(g11
S'X\x16\xb7\x03\xff(Q@'
p1566
tp1567
Rp1568
ag7
(g11
S'nB\xca\xb7s,\xde?'
p1569
tp1570
Rp1571
asg20
g1504
sg23
(lp1572
g7
(g11
S'\xc3q\x92!\xd3\x05\x0c@'
p1573
tp1574
Rp1575
asg28
g1510
sg30
g31
(g32
(I0
tp1576
g34
tp1577
Rp1578
(I1
(I2
tp1579
g40
I00
S'\x94|\xd7o!_\x02@\x14\xa9\x07\xfe0\xb5\xb5?'
p1580
tp1581
bssg138
g1564
ssS'pentachlorophenol'
p1582
(dp1583
g3
(dp1584
g5
(lp1585
g7
(g11
S'\x0f\xa0\xcd\xa3\x87\xc4E@'
p1586
tp1587
Rp1588
ag7
(g11
S'\x8b\xe4\x19\xc0\t\x1d\xc3?'
p1589
tp1590
Rp1591
asg20
(lp1592
S'300'
p1593
asg23
(lp1594
g7
(g11
S'[\x02\xb1|\xd1_%@'
p1595
tp1596
Rp1597
asg28
(lp1598
F-0.52
asg30
g31
(g32
(I0
tp1599
g34
tp1600
Rp1601
(I1
(I2
tp1602
g40
I00
S'\xd0\x91\xcc\x066&\x14@lH\xc2\x1c\x1bU\x9f?'
p1603
tp1604
bssg45
I0
sg46
g1584
sg47
(dp1605
g49
I01
sg50
I00
sg51
I00
sg52
I00
sg53
I00
sg54
I00
sg55
I00
ssg56
(dp1606
g58
I0
sg59
I5
sg60
I0
sg61
I0
ssg62
S'2,3,4,5,6-pentachlorophenol'
p1607
sS'octanol_DC'
p1608
(dp1609
g5
(lp1610
g7
(g11
S'L\xd0\xf2\x03\x11\xb0N@'
p1611
tp1612
Rp1613
ag7
(g11
S'q\xd8\xabp\xf8"\xdc?'
p1614
tp1615
Rp1616
asg78
(lp1617
S'56'
p1618
asg23
(lp1619
g7
(g11
S'\xbd\xac\x05?W\x7f\xda?'
p1620
tp1621
Rp1622
asg73
(lp1623
F5.01
asg30
g31
(g32
(I0
tp1624
g34
tp1625
Rp1626
(I1
(I2
tp1627
g40
I00
S'\x02L\xf9\tFV\x1c@j\x1c\x17\xc9\xa0 \xb4?'
p1628
tp1629
bssg86
S'1307'
p1630
sg88
(dp1631
g5
(lp1632
g7
(g11
S'\xe9\xb6\x97\x1cF\xf04@'
p1633
tp1634
Rp1635
ag7
(g11
S"'\xccEUH\x13\xb7?"
p1636
tp1637
Rp1638
assg91
(dp1639
g5
(lp1640
g7
(g11
S'\xc3\x94I\xe6\x91\x90-@'
p1641
tp1642
Rp1643
ag7
(g11
S'\xd3\xae\xaf\x8b\xe20\xb7?'
p1644
tp1645
Rp1646
assS'cyclohexane_DC'
p1647
(dp1648
g5
(lp1649
g7
(g11
S'\x89\xe3A\x1f\x9e\x03F@'
p1650
tp1651
Rp1652
ag7
(g11
S'\xf0V\x1e7\xed\x0e\xc3?'
p1653
tp1654
Rp1655
asg78
g1592
sg23
(lp1656
g7
(g11
S'\r\x19\xd2\xaa\xe8\x8e!@'
p1657
tp1658
Rp1659
asg73
g1598
sg30
g31
(g32
(I0
tp1660
g34
tp1661
Rp1662
(I1
(I2
tp1663
g40
I00
S'\x9e\xdci\xa79.\x10@7\xbd\xc5\xb5p9\x9f?'
p1664
tp1665
bssg105
S'c1(c(c(c(c(c1Cl)Cl)Cl)Cl)Cl)O'
p1666
sg107
(dp1667
g109
g7
(g11
S'333333\x13@'
p1668
tp1669
Rp1670
sg113
g7
(g11
S'\xcd\xcc\xcc\xcc\xcc\xcc\x0c@'
p1671
tp1672
Rp1673
sg117
g7
(g11
S'\xcd\xcc\xcc\xcc\xcc\xcc\x10@'
p1674
tp1675
Rp1676
ssg121
(dp1677
g5
(lp1678
g7
(g11
S'\x06\xf1\xff2.\xf4I@'
p1679
tp1680
Rp1681
ag7
(g11
S'c\x9a\x1803\xfc\xd0?'
p1682
tp1683
Rp1684
asg20
g1617
sg23
(lp1685
g7
(g11
S'\r\xc6\x95\x16\x03\x16\xd3?'
p1686
tp1687
Rp1688
asg28
g1623
sg30
g31
(g32
(I0
tp1689
g34
tp1690
Rp1691
(I1
(I2
tp1692
g40
I00
S't\x7f\xc0*,\x04\x1a@\x94z\x82"m\'\xa9?'
p1693
tp1694
bssg138
g1677
ssS'2-5-dimethylphenol'
p1695
(dp1696
g3
(dp1697
g5
(lp1698
g7
(g11
S'"Si\xf08\x1c9@'
p1699
tp1700
Rp1701
ag7
(g11
S'\xd59\x07\x95\x98\x1d\xbe?'
p1702
tp1703
Rp1704
asg20
(lp1705
S'132'
p1706
aS'325'
p1707
asg23
(lp1708
g7
(g11
S'\x14\x16o^\xcf\x1ci?'
p1709
tp1710
Rp1711
ag7
(g11
S'\xb5-_\x8c\xec0\xd6?'
p1712
tp1713
Rp1714
asg28
(lp1715
F0.77
aF0.57
asg30
g31
(g32
(I0
tp1716
g34
tp1717
Rp1718
(I1
(I2
tp1719
g40
I00
S'\xd3\xb94\xdb\x80\x90\xe8?i\xe3\x95\x1baq\x99?'
p1720
tp1721
bssg45
I0
sg46
g1697
sg47
(dp1722
g49
I01
sg50
I00
sg51
I00
sg52
I00
sg53
I00
sg54
I00
sg55
I00
ssg56
(dp1723
g58
I0
sg59
I0
sg60
I0
sg61
I0
ssg62
S'2,5-dimethylphenol'
p1724
sS'octanol_DC'
p1725
(dp1726
g5
(lp1727
g7
(g11
S"\xc4'\xaa\x90L\xc2B@"
p1728
tp1729
Rp1730
ag7
(g11
S'\xd9\x85\xad\x02\x1dN\xd3?'
p1731
tp1732
Rp1733
asg78
g741
sg23
(lp1734
g7
(g11
S'\x07\xf9\xb1\xbf\xd3\xba\xcf?'
p1735
tp1736
Rp1737
asg73
(lp1738
F2.34
asg30
g31
(g32
(I0
tp1739
g34
tp1740
Rp1741
(I1
(I2
tp1742
g40
I00
S'\x1e\x10!\x8b\xb6(\xfc?\xdc1\xf0\xfd\xd4\x0f\xac?'
p1743
tp1744
bssg86
S'2917'
p1745
sg88
(dp1746
g5
(lp1747
g7
(g11
S'\xb9\x8bP\x1b\xe3x;@'
p1748
tp1749
Rp1750
ag7
(g11
S'\xd9\xc3\x02\x8d\xa6=\xb5?'
p1751
tp1752
Rp1753
assg91
(dp1754
g5
(lp1755
g7
(g11
S'\x8d\xedQm\x82\xba4@'
p1756
tp1757
Rp1758
ag7
(g11
S'.\xec\xd9\xfc\x81G\xb4?'
p1759
tp1760
Rp1761
assS'cyclohexane_DC'
p1762
(dp1763
g5
(lp1764
g7
(g11
S'Ye\xa4Y\x83\x879@'
p1765
tp1766
Rp1767
ag7
(g11
S'\x11}\xaf\x828\x11\xbe?'
p1768
tp1769
Rp1770
asg78
g1705
sg23
(lp1771
g7
(g11
S'\xb5C>k\x9f\x12\xf7?'
p1772
tp1773
Rp1774
ag7
(g11
S'\xb1\xe6\xbf\xcf\xed\x8d\xf9?'
p1775
tp1776
Rp1777
asg73
g1715
sg30
g31
(g32
(I0
tp1778
g34
tp1779
Rp1780
(I1
(I2
tp1781
g40
I00
S'\xc7\xdam\xcf\xb7\xc8\xd5\xbf/d\x87\xd7/\xcc\x99?'
p1782
tp1783
bssg105
S'Cc1ccc(c(c1)O)C'
p1784
sg107
(dp1785
g109
g7
(g11
S'\xcd\xcc\xcc\xcc\xcc\xcc\x14@'
p1786
tp1787
Rp1788
sg113
g7
(g11
S'\xcd\xcc\xcc\xcc\xcc\xcc\x0c@'
p1789
tp1790
Rp1791
sg117
g7
(g11
S'ffffff\x0e@'
p1792
tp1793
Rp1794
ssg121
(dp1795
g5
(lp1796
g7
(g11
S'\x88\xd4#\xdb\x87\xec@@'
p1797
tp1798
Rp1799
ag7
(g11
S'\xf7\xc8\xf2\xa9\xf4\x1c\xd4?'
p1800
tp1801
Rp1802
asg812
(lp1803
F0.15
asg28
g1738
sg23
(lp1804
g7
(g11
S'\x86\x11\x82\xb8\x1b3\x92?'
p1805
tp1806
Rp1807
asg20
g741
sg30
g31
(g32
(I0
tp1808
g34
tp1809
Rp1810
(I1
(I2
tp1811
g40
I00
S'f$\x11K%c\x02@\x80\xd0\x03#2\x12\xad?'
p1812
tp1813
bssg138
g1795
ssS'Acetone'
p1814
(dp1815
g3
(dp1816
g5
(lp1817
g7
(g11
S'T\xc1\x8dW\xdb\xff#@'
p1818
tp1819
Rp1820
ag7
(g11
S'\x12VH\xc7 \xe1\xb4?'
p1821
tp1822
Rp1823
asg20
(lp1824
S'242'
p1825
asg23
(lp1826
g7
(g11
S'_\xe7W\xd0_\x8a\xbc?'
p1827
tp1828
Rp1829
asg28
(lp1830
F-0.96
asg30
g31
(g32
(I0
tp1831
g34
tp1832
Rp1833
(I1
(I2
tp1834
g40
I00
S'<\xe42\x1a\x8eK\xeb\xbf`\xc8\x84\xee\xde\x8a\x92?'
p1835
tp1836
bssg45
I0
sg46
g1816
sg47
(dp1837
g49
I00
sg50
I00
sg51
I01
sg52
I00
sg53
I00
sg54
I00
sg55
I00
ssg56
(dp1838
g58
I0
sg59
I0
sg60
I0
sg61
I0
ssg62
S'acetone'
p1839
sS'octanol_DC'
p1840
(dp1841
g5
(lp1842
g7
(g11
S'%\x0f\xefY$\xc30@'
p1843
tp1844
Rp1845
ag7
(g11
S'j@,t\xfa\xc3\xd0?'
p1846
tp1847
Rp1848
asg78
(lp1849
g412
asg23
(lp1850
g7
(g11
S"r\xf8\xc78'\x0f\x03@"
p1851
tp1852
Rp1853
asg73
(lp1854
F-0.24
asg30
g31
(g32
(I0
tp1855
g34
tp1856
Rp1857
(I1
(I2
tp1858
g40
I00
S'6\x10\x05m\xd0;\xd5?bQ\x80\x83\x8a-\xa8?'
p1859
tp1860
bssg86
S'492'
p1861
sg88
(dp1862
g5
(lp1863
NaNassg91
(dp1864
g5
(lp1865
g7
(g11
S'\xd0!\xeam\xab\xbc-@'
p1866
tp1867
Rp1868
ag7
(g11
S'\xf0\x97\xa3\x1a\xfe@\xb0?'
p1869
tp1870
Rp1871
assS'cyclohexane_DC'
p1872
(dp1873
g5
(lp1874
NaNasg78
g1824
sg73
g1830
sg30
(lp1875
NaNassg105
S'CC(=O)C'
p1876
sg107
(dp1877
g109
g7
(g11
S'ffffff\x12@'
p1878
tp1879
Rp1880
sg113
g7
(g11
S'\xcd\xcc\xcc\xcc\xcc\xcc\x0c@'
p1881
tp1882
Rp1883
sg117
g7
(g11
S'ffffff\x0e@'
p1884
tp1885
Rp1886
ssg121
(dp1887
g5
(lp1888
g7
(g11
S'\x0b*\x90d\x90\x010@'
p1889
tp1890
Rp1891
ag7
(g11
S'k\xd7q\xf1\x9e\xb3\xc6?'
p1892
tp1893
Rp1894
asg20
g1849
sg23
(lp1895
g7
(g11
S'\xd7\n\x80\x85iI\xfd?'
p1896
tp1897
Rp1898
asg28
g1854
sg30
g31
(g32
(I0
tp1899
g34
tp1900
Rp1901
(I1
(I2
tp1902
g40
I00
S'AR\n\x1f\xb6\x82\xc9?M@\x1f\xe7\xb5\xe5\xa0?'
p1903
tp1904
bssg138
g1887
ssS'ethyl cinnamate'
p1905
(dp1906
g3
(dp1907
g5
(lp1908
g7
(g11
S'k\xab\xd5O\x8b\xc4B@'
p1909
tp1910
Rp1911
ag7
(g11
S'\x03L\xebM\x84\x17\xc3?'
p1912
tp1913
Rp1914
asg20
(lp1915
S'304'
p1916
asg23
(lp1917
g7
(g11
S'y4O/\x1aS\xd3?'
p1918
tp1919
Rp1920
asg28
(lp1921
F3.27
asg30
g31
(g32
(I0
tp1922
g34
tp1923
Rp1924
(I1
(I2
tp1925
g40
I00
S'Z/\x1a\xfa\xd4B\x02@\xe6\xe03\x94\xe2\xd0\x9f?'
p1926
tp1927
bssg45
I4
sg46
g1907
sg47
(dp1928
g49
I00
sg50
I00
sg51
I00
sg52
I00
sg53
I01
sg54
I00
sg55
I00
ssg56
(dp1929
g58
I0
sg59
I0
sg60
I0
sg61
I0
ssg62
S'ethyl (E)-3-phenylprop-2-enoate'
p1930
sS'octanol_DC'
p1931
(dp1932
g5
(lp1933
g7
(g11
S'\xe03t\x94\x94\xf1D@'
p1934
tp1935
Rp1936
ag7
(g11
S'\xd2i\xc8MO\x99\xd5?'
p1937
tp1938
Rp1939
asg78
(lp1940
g649
asg23
(lp1941
g7
(g11
S'N4\x92C\xde\xd9\x92?'
p1942
tp1943
Rp1944
asg73
(lp1945
F2.99
asg30
g31
(g32
(I0
tp1946
g34
tp1947
Rp1948
(I1
(I2
tp1949
g40
I00
S'X\xc1\xdb\xcf?\\\x08@\xa7\xc82\xe9\xa4x\xaf?'
p1950
tp1951
bssg86
S'4059'
p1952
sg88
(dp1953
g5
(lp1954
NaNassg91
(dp1955
g5
(lp1956
g7
(g11
S'\xd4\xb6v\xa4\x97\x818@'
p1957
tp1958
Rp1959
ag7
(g11
S'\x0c\xd2\xb0E\xdf\x8f\xb8?'
p1960
tp1961
Rp1962
assS'cyclohexane_DC'
p1963
(dp1964
g5
(lp1965
NaNasg78
g1915
sg73
g1921
sg30
(lp1966
NaNassg105
S'CCOC(=O)/C=C/c1ccccc1'
p1967
sg107
(dp1968
g113
g7
(g11
S'\xcd\xcc\xcc\xcc\xcc\xcc\x0c@'
p1969
tp1970
Rp1971
sg117
g7
(g11
S'\x9a\x99\x99\x99\x99\x99\x11@'
p1972
tp1973
Rp1974
ssg121
(dp1975
g5
(lp1976
g7
(g11
S'\xb0\xfd\xae:"\xe5F@'
p1977
tp1978
Rp1979
ag7
(g11
S'\xef\x8d\x80\xafT\xaf\xd2?'
p1980
tp1981
Rp1982
asg20
g1940
sg23
(lp1983
g7
(g11
S'\x00\xabt\x13j\xa0\xcf?'
p1984
tp1985
Rp1986
asg28
g1945
sg30
g31
(g32
(I0
tp1987
g34
tp1988
Rp1989
(I1
(I2
tp1990
g40
I00
S'\xc2\\<\x95\x89\xd4\r@c\xa3\xe9Q\xc5\x90\xab?'
p1991
tp1992
bssg138
g1975
ssS'P-Methylphenol'
p1993
(dp1994
g3
(dp1995
g5
(lp1996
g7
(g11
S'\x17ec\xc81h6@'
p1997
tp1998
Rp1999
ag7
(g11
S'\x83!\x13\xf0v\xe7\xbb?'
p2000
tp2001
Rp2002
asg20
(lp2003
S'132'
p2004
aS'325'
p2005
asg23
(lp2006
g7
(g11
S'\xdb\x0e\xdb\xa0\x83\x8d\xd0?'
p2007
tp2008
Rp2009
ag7
(g11
S'.\xf8\x05M\x92\x9a\xd5?'
p2010
tp2011
Rp2012
asg28
(lp2013
F-0.1
aF-0.19
asg30
g31
(g32
(I0
tp2014
g34
tp2015
Rp2016
(I1
(I2
tp2017
g40
I00
S',6\x92\x86M\x1c\xc0\xbf\xb5)\x15wI\xdc\x97?'
p2018
tp2019
bssg45
I0
sg46
g1995
sg47
(dp2020
g49
I01
sg50
I00
sg51
I00
sg52
I00
sg53
I00
sg54
I00
sg55
I00
ssg56
(dp2021
g58
I0
sg59
I0
sg60
I0
sg61
I0
ssg62
S'p-cresol'
p2022
sS'octanol_DC'
p2023
(dp2024
g5
(lp2025
g7
(g11
S'\x9e,l\xac\x0b\xc7D@'
p2026
tp2027
Rp2028
ag7
(g11
S'\xea\n\\\xb6M\xb7\xd0?'
p2029
tp2030
Rp2031
asg78
(lp2032
S'10'
p2033
aS'301'
p2034
asg23
(lp2035
g7
(g11
S'J\xce\xb4\x07v\x1e\x94?'
p2036
tp2037
Rp2038
ag7
(g11
S'\xc8\x05tB\xc7\xfe\x9e?'
p2039
tp2040
Rp2041
asg73
(lp2042
F1.94
aF1.92
asg30
g31
(g32
(I0
tp2043
g34
tp2044
Rp2045
(I1
(I2
tp2046
g40
I00
S'~\xb8\x8d\x04]\xa6\xff?\xe0=2\xba2t\xa8?'
p2047
tp2048
bssg86
S'2348'
p2049
sg88
(dp2050
g5
(lp2051
g7
(g11
S'\xb3\xcc&\xf2\x91C>@'
p2052
tp2053
Rp2054
ag7
(g11
S'\xcdT\x7f\xa5F\x00\xb4?'
p2055
tp2056
Rp2057
assg91
(dp2058
g5
(lp2059
g7
(g11
S'\x8bgR\xdf\x1c 7@'
p2060
tp2061
Rp2062
ag7
(g11
S'\xb0-\xe8\xd4\xe2\x82\xb3?'
p2063
tp2064
Rp2065
assS'cyclohexane_DC'
p2066
(dp2067
g5
(lp2068
g7
(g11
S'`-\x9d\x80\x8ac6@'
p2069
tp2070
Rp2071
ag7
(g11
S'\xe6"\xa0\x08&\xd5\xbb?'
p2072
tp2073
Rp2074
asg78
g2003
sg23
(lp2075
g7
(g11
S'ZK\xf7`\xdd\x97)@'
p2076
tp2077
Rp2078
ag7
(g11
S'm\x19p\xa9\xa5\x0b\x19@'
p2079
tp2080
Rp2081
asg73
g2013
sg30
g31
(g32
(I0
tp2082
g34
tp2083
Rp2084
(I1
(I2
tp2085
g40
I00
S'\xe2\xd5\xc5\x80\x17\x13\xf6\xbf|\xd0\xa1\xf5\xa1\x04\x98?'
p2086
tp2087
bssg105
S'Cc1ccc(cc1)O'
p2088
sg107
(dp2089
g109
g7
(g11
S'\xcd\xcc\xcc\xcc\xcc\xcc\x10@'
p2090
tp2091
Rp2092
sg113
g7
(g11
S'\xcd\xcc\xcc\xcc\xcc\xcc\x0c@'
p2093
tp2094
Rp2095
ssg121
(dp2096
g5
(lp2097
g7
(g11
S'$\xe3\xb7B\x01>A@'
p2098
tp2099
Rp2100
ag7
(g11
S'\xb5\xdd\xb8K6\xe1\xca?'
p2101
tp2102
Rp2103
asg20
g2032
sg23
(lp2104
g7
(g11
S'4\x92\x7f\xc5Ce\x9a?'
p2105
tp2106
Rp2107
ag7
(g11
S'\xde\x1d\xc7\xe7(\xab\xa2?'
p2108
tp2109
Rp2110
asg28
g2042
sg30
g31
(g32
(I0
tp2111
g34
tp2112
Rp2113
(I1
(I2
tp2114
g40
I00
S'\x8dww\xd0\x11\xd7\xff?\x1a\r\xcfx\xeb\t\xa4?'
p2115
tp2116
bssg138
g2096
ssS'2-chloro-1-4-napthoquinone'
p2117
(dp2118
g3
(dp2119
g5
(lp2120
g7
(g11
S"\xe7'\x97\xa7\xf3 D@"
p2121
tp2122
Rp2123
ag7
(g11
S'\xb1\xb48\xd1\x90\xa3\xc0?'
p2124
tp2125
Rp2126
asg20
(lp2127
S'141'
p2128
asg23
(lp2129
g7
(g11
S'\xce!\x920\x1f9\xc2?'
p2130
tp2131
Rp2132
asg28
(lp2133
F1.91
asg30
g31
(g32
(I0
tp2134
g34
tp2135
Rp2136
(I1
(I2
tp2137
g40
I00
S'\xb0\xfd\xd7\xe9\x8f5\xfa?z\xf3\x83t\xdc\xe7\x9b?'
p2138
tp2139
bssg45
I0
sg46
g2119
sg47
(dp2140
g49
I00
sg50
I00
sg51
I01
sg52
I00
sg53
I00
sg54
I00
sg55
I00
ssg56
(dp2141
g58
I0
sg59
I1
sg60
I0
sg61
I0
ssg62
S'2-chloronaphthalene-1,4-dione'
p2142
sS'octanol_DC'
p2143
(dp2144
g5
(lp2145
g7
(g11
S'X\xc9\x84\x857\x85G@'
p2146
tp2147
Rp2148
ag7
(g11
S'P\x12\x15\xcd\x13\x7f\xd3?'
p2149
tp2150
Rp2151
asg78
(lp2152
S'141'
p2153
asg23
(lp2154
g7
(g11
S'\x7f\x87"6\xf8"\xd4?'
p2155
tp2156
Rp2157
asg73
(lp2158
F2.15
asg30
g31
(g32
(I0
tp2159
g34
tp2160
Rp2161
(I1
(I2
tp2162
g40
I00
S'\x9dGY\x1b\x99\x9c\x06@\xe1\x89\x8c%\x14a\xac?'
p2163
tp2164
bssg86
S'3517'
p2165
sg88
(dp2166
g5
(lp2167
NaNassg91
(dp2168
g5
(lp2169
g7
(g11
S'\xf5\r4\xc9C\xe8>@'
p2170
tp2171
Rp2172
ag7
(g11
S'%\n\xf3X\xf1\xde\xb5?'
p2173
tp2174
Rp2175
assS'cyclohexane_DC'
p2176
(dp2177
g5
(lp2178
NaNasg78
g2127
sg73
g2133
sg30
(lp2179
NaNassg105
S'c1ccc2c(c1)C(=O)C=C(C2=O)Cl'
p2180
sg107
(dp2181
g109
g7
(g11
S'\x9a\x99\x99\x99\x99\x99\x11@'
p2182
tp2183
Rp2184
sg113
g7
(g11
S'\xcd\xcc\xcc\xcc\xcc\xcc\x0c@'
p2185
tp2186
Rp2187
sg117
g7
(g11
S'\xcd\xcc\xcc\xcc\xcc\xcc\x10@'
p2188
tp2189
Rp2190
ssg121
(dp2191
g5
(lp2192
g7
(g11
S'\xffW\x8d\x1f\x167H@'
p2193
tp2194
Rp2195
ag7
(g11
S'\xf2L\xe3\x15Z\x15\xd2?'
p2196
tp2197
Rp2198
asg20
g2152
sg23
(lp2199
g7
(g11
S'\xe94\x8b()b\xdb?'
p2200
tp2201
Rp2202
asg28
g2158
sg30
g31
(g32
(I0
tp2203
g34
tp2204
Rp2205
(I1
(I2
tp2206
g40
I00
S'ki\xe5B.\x8f\x08@\x02\xf8\xb8LRz\xaa?'
p2207
tp2208
bssg138
g2191
ssS'Quinone'
p2209
(dp2210
g3
(dp2211
g5
(lp2212
g7
(g11
S'@\x8a`\x1e\x82\xb17@'
p2213
tp2214
Rp2215
ag7
(g11
S'W\xc5<L\x80\x1d\xb9?'
p2216
tp2217
Rp2218
asg20
(lp2219
S'304'
p2220
asg23
(lp2221
g7
(g11
S'j\x1b\x0e\xfav\xd9\xf6?'
p2222
tp2223
Rp2224
asg28
(lp2225
F-0.39
asg30
g31
(g32
(I0
tp2226
g34
tp2227
Rp2228
(I1
(I2
tp2229
g40
I00
S'%\x0b\xe2fvM\xee\xbfE\xa3_==\xd1\x95?'
p2230
tp2231
bssg45
I0
sg46
g2211
sg47
(dp2232
g49
I00
sg50
I00
sg51
I01
sg52
I00
sg53
I00
sg54
I00
sg55
I00
ssg56
(dp2233
g58
I0
sg59
I0
sg60
I0
sg61
I0
ssg62
S'1,4-benzoquinone'
p2234
sS'octanol_DC'
p2235
(dp2236
g5
(lp2237
g7
(g11
S'\x85\xda\xad\xaf\xed\xcc>@'
p2238
tp2239
Rp2240
ag7
(g11
S'bV\xde\x86~?\xce?'
p2241
tp2242
Rp2243
asg78
(lp2244
S'238'
p2245
asg23
(lp2246
g7
(g11
S'p\xc2\xc3\x08\x00i\xdf?'
p2247
tp2248
Rp2249
asg73
(lp2250
F0.2
asg30
g31
(g32
(I0
tp2251
g34
tp2252
Rp2253
(I1
(I2
tp2254
g40
I00
S"}\xc0\xc0\x01\x00\x15\xd3?\x90&>\xa9\xd1'\xa6?"
p2255
tp2256
bssg86
S'1363'
p2257
sg88
(dp2258
g5
(lp2259
NaNassg91
(dp2260
g5
(lp2261
g7
(g11
S'_\x95<@?\x19=@'
p2262
tp2263
Rp2264
ag7
(g11
S'X\xa34\xd3\x10f\xb2?'
p2265
tp2266
Rp2267
assS'cyclohexane_DC'
p2268
(dp2269
g5
(lp2270
NaNasg78
g2219
sg73
g2225
sg30
(lp2271
NaNassg105
S'C1=CC(=O)C=CC1=O'
p2272
sg107
(dp2273
g109
g7
(g11
S'333333\x13@'
p2274
tp2275
Rp2276
sg113
g7
(g11
S'\xcd\xcc\xcc\xcc\xcc\xcc\x0c@'
p2277
tp2278
Rp2279
sg117
g7
(g11
S'\x9a\x99\x99\x99\x99\x99\x11@'
p2280
tp2281
Rp2282
ssg121
(dp2283
g5
(lp2284
g7
(g11
S'B\x14\x8a\x14\xf9H@@'
p2285
tp2286
Rp2287
ag7
(g11
S'\xbd\x01\x1eH\xdb\x13\xd1?'
p2288
tp2289
Rp2290
asg20
g2244
sg23
(lp2291
g7
(g11
S'\xe0I\x99u\xbcS\x00@'
p2292
tp2293
Rp2294
asg28
g2250
sg30
g31
(g32
(I0
tp2295
g34
tp2296
Rp2297
(I1
(I2
tp2298
g40
I00
S'\x1a;\x14^0v\xe3?`\xca\x97l\xb1\xc9\xa8?'
p2299
tp2300
bssg138
g2283
ssS'3-4-dimethylphenol'
p2301
(dp2302
g3
(dp2303
g5
(lp2304
g7
(g11
S'\x9a\x8aO\x18\x0c\x9e9@'
p2305
tp2306
Rp2307
ag7
(g11
S"'b\xec:0,\xc0?"
p2308
tp2309
Rp2310
asg20
(lp2311
S'325'
p2312
asg23
(lp2313
g7
(g11
S'\x86>@\x87\x98\x0b\xf7?'
p2314
tp2315
Rp2316
asg28
(lp2317
F0.2
asg30
g31
(g32
(I0
tp2318
g34
tp2319
Rp2320
(I1
(I2
tp2321
g40
I00
S'\xd2\xfe\xcc\x05z<\xdf?0\xdbZ\x8f\xbb\xe2\x9a?'
p2322
tp2323
bssg45
I0
sg46
g2303
sg47
(dp2324
g49
I01
sg50
I00
sg51
I00
sg52
I00
sg53
I00
sg54
I00
sg55
I00
ssg56
(dp2325
g58
I0
sg59
I0
sg60
I0
sg61
I0
ssg62
S'3,4-dimethylphenol'
p2326
sS'octanol_DC'
p2327
(dp2328
g5
(lp2329
g7
(g11
S'\xc6\xea\x14\xad\xc5\x98F@'
p2330
tp2331
Rp2332
ag7
(g11
S'f\x1b\x1byE\x02\xd6?'
p2333
tp2334
Rp2335
asg78
g741
sg23
(lp2336
g7
(g11
S':w3_\xa2\x95\xcc?'
p2337
tp2338
Rp2339
asg73
(lp2340
F2.23
asg30
g31
(g32
(I0
tp2341
g34
tp2342
Rp2343
(I1
(I2
tp2344
g40
I00
S'u\x88:n\xef\xd2\x05@\x1c\xea\xf1\xa0\xf4\xc2\xaf?'
p2345
tp2346
bssg86
S'2925'
p2347
sg88
(dp2348
g5
(lp2349
g7
(g11
S'\xcb\x84\x8c\rC\x9f=@'
p2350
tp2351
Rp2352
ag7
(g11
S'\x8f\xa0\x85\xce\x9a\x9a\xb5?'
p2353
tp2354
Rp2355
assg91
(dp2356
g5
(lp2357
g7
(g11
S'\xb8\xc6/Z\xdc\xd46@'
p2358
tp2359
Rp2360
ag7
(g11
S'M\xb5\xcf\xf4\x18\xa2\xb4?'
p2361
tp2362
Rp2363
assS'cyclohexane_DC'
p2364
(dp2365
g5
(lp2366
g7
(g11
S'\xc5\x85D\x7f\xc6\x8a9@'
p2367
tp2368
Rp2369
ag7
(g11
S'*\xaa\xcfw\xae\x9d\xbe?'
p2370
tp2371
Rp2372
asg78
g2311
sg23
(lp2373
g7
(g11
S'1,\xae\x8f\xb9K\x12@'
p2374
tp2375
Rp2376
asg73
g2317
sg30
g31
(g32
(I0
tp2377
g34
tp2378
Rp2379
(I1
(I2
tp2380
g40
I00
S'P\xe0IL\x8f\xdf\xe6\xbf\x0c\x17\xde\x83*B\x9a?'
p2381
tp2382
bssg105
S'Cc1ccc(cc1C)O'
p2383
sg107
(dp2384
g109
g7
(g11
S'ffffff\x12@'
p2385
tp2386
Rp2387
sg113
g7
(g11
S'\xcd\xcc\xcc\xcc\xcc\xcc\x0c@'
p2388
tp2389
Rp2390
sg117
g7
(g11
S'\xcd\xcc\xcc\xcc\xcc\xcc\x10@'
p2391
tp2392
Rp2393
ssg121
(dp2394
g5
(lp2395
g7
(g11
S'oi\x92~\xf2IB@'
p2396
tp2397
Rp2398
ag7
(g11
S'|\x05\xec\xcf\x11\xf4\xcf?'
p2399
tp2400
Rp2401
asg812
(lp2402
F0.25
asg28
g2340
sg23
(lp2403
g7
(g11
S'\x9e\xadb\xd8\x0fv\xb4?'
p2404
tp2405
Rp2406
asg20
g741
sg30
g31
(g32
(I0
tp2407
g34
tp2408
Rp2409
(I1
(I2
tp2410
g40
I00
S'8\xad\xa3C\x11D\x03@h\xdf6m\xb7\x87\xa7?'
p2411
tp2412
bssg138
g2394
ssS'Diethylamine'
p2413
(dp2414
g3
(dp2415
g5
(lp2416
g7
(g11
S'\xc6^:\xaab].@'
p2417
tp2418
Rp2419
ag7
(g11
S']\x9c6\xfd\xb6Y\xb8?'
p2420
tp2421
Rp2422
asg20
(lp2423
S'251'
p2424
asg23
(lp2425
g7
(g11
S'\xa6}\xb0o\xd8a\x03@'
p2426
tp2427
Rp2428
asg28
(lp2429
F-0.34
asg30
g31
(g32
(I0
tp2430
g34
tp2431
Rp2432
(I1
(I2
tp2433
g40
I00
S'\x14\x0e\xe0\xdd\xa8\xf5\xde?\xf97:(+\xb3\x95?'
p2434
tp2435
bssg45
I2
sg46
g2415
sg47
(dp2436
g49
I00
sg50
I00
sg51
I00
sg52
I01
sg53
I00
sg54
I00
sg55
I00
ssg56
(dp2437
g58
I0
sg59
I0
sg60
I0
sg61
I0
ssg62
S'N-ethylethanamine'
p2438
sS'octanol_DC'
p2439
(dp2440
g5
(lp2441
g7
(g11
S'\x90-\n\xf1@X6@'
p2442
tp2443
Rp2444
ag7
(g11
S'\x00\xb7\x1b\xa9\xc21\xc8?'
p2445
tp2446
Rp2447
asg78
(lp2448
S'251'
p2449
ag412
asg23
(lp2450
g7
(g11
S'\x1e\xd7\xe8_\x85f\x00@'
p2451
tp2452
Rp2453
ag7
(g11
S'\xb1X\xdb\xa2EX\x08@'
p2454
tp2455
Rp2456
asg73
(lp2457
F0.57
aF0.43
asg30
g31
(g32
(I0
tp2458
g34
tp2459
Rp2460
(I1
(I2
tp2461
g40
I00
S'\x13\x99\xe5\xaf\x08\xd1\xfb?\x1c\xa5\xb0\x0fC;\xa2?'
p2462
tp2463
bssg86
S'1028'
p2464
sg88
(dp2465
g5
(lp2466
NaNassg91
(dp2467
g5
(lp2468
g7
(g11
S'\r\xe7\x9b\xf8\xa4\xd7(@'
p2469
tp2470
Rp2471
ag7
(g11
S'\xfc0{\x06 !\xb3?'
p2472
tp2473
Rp2474
assS'cyclohexane_DC'
p2475
(dp2476
g5
(lp2477
NaNasg78
g2423
sg73
g2429
sg30
(lp2478
NaNassg105
S'CCNCC'
p2479
sg107
(dp2480
g109
g7
(g11
S'\x9a\x99\x99\x99\x99\x99\x11@'
p2481
tp2482
Rp2483
sg113
g7
(g11
S'\xcd\xcc\xcc\xcc\xcc\xcc\x0c@'
p2484
tp2485
Rp2486
sg117
g7
(g11
S'\x00\x00\x00\x00\x00\x80@@'
p2487
tp2488
Rp2489
ssg121
(dp2490
g5
(lp2491
g7
(g11
S'.3T\xbc\xba\xb04@'
p2492
tp2493
Rp2494
ag7
(g11
S'\xff\xd44\x16\x13\xed\xc5?'
p2495
tp2496
Rp2497
asg20
g2448
sg23
(lp2498
g7
(g11
S'\xa4\xab\x83{H\xaa\xf8?'
p2499
tp2500
Rp2501
ag7
(g11
S'\xda\xe5\x06\xbd\xd6\xf3\x02@'
p2502
tp2503
Rp2504
asg28
g2457
sg30
g31
(g32
(I0
tp2505
g34
tp2506
Rp2507
(I1
(I2
tp2508
g40
I00
S"'\xda\xd7\x83\xdc-\xf7?@\xcb\x05\xf4p\xc3\xa0?"
p2509
tp2510
bssg138
g2490
ssS'Trimethylamine'
p2511
(dp2512
g3
(dp2513
g5
(lp2514
g7
(g11
S'%Bs\xb2\xd2+(@'
p2515
tp2516
Rp2517
ag7
(g11
S'A\x0b\x065]T\xb7?'
p2518
tp2519
Rp2520
asg20
(lp2521
S'251'
p2522
asg23
(lp2523
g7
(g11
S'nA\x8a\xd2\xca\xd6\xf5?'
p2524
tp2525
Rp2526
asg28
(lp2527
F-0.44
asg30
g31
(g32
(I0
tp2528
g34
tp2529
Rp2530
(I1
(I2
tp2531
g40
I00
S'2a\x057\xab\x8d\xc4?z\x9e\xfcQ\xb0:\x94?'
p2532
tp2533
bssg45
I0
sg46
g2513
sg47
(dp2534
g49
I00
sg50
I00
sg51
I00
sg52
I01
sg53
I00
sg54
I00
sg55
I00
ssg56
(dp2535
g58
I0
sg59
I0
sg60
I0
sg61
I0
ssg62
S'N,N-dimethylmethanamine'
p2536
sS'octanol_DC'
p2537
(dp2538
g5
(lp2539
g7
(g11
S"'\x870\x07F22@"
p2540
tp2541
Rp2542
ag7
(g11
S'\xd9Wh\xc2\xc9\x8e\xc7?'
p2543
tp2544
Rp2545
asg78
(lp2546
S'251'
p2547
asg23
(lp2548
g7
(g11
S'\x8doe\xebhz\x0c@'
p2549
tp2550
Rp2551
asg73
(lp2552
F0.27
asg30
g31
(g32
(I0
tp2553
g34
tp2554
Rp2555
(I1
(I2
tp2556
g40
I00
S'\\A\xcb\xc6\xbd\xb2\xf3?y9\x95\x14\xec\x8c\xa1?'
p2557
tp2558
bssg86
S'671'
p2559
sg88
(dp2560
g5
(lp2561
NaNassg91
(dp2562
g5
(lp2563
g7
(g11
S'8\x84\xba&\x8cV&@'
p2564
tp2565
Rp2566
ag7
(g11
S'\x19\xd6\xb9\x8bX\x00\xb1?'
p2567
tp2568
Rp2569
assS'cyclohexane_DC'
p2570
(dp2571
g5
(lp2572
NaNasg78
g2521
sg73
g2527
sg30
(lp2573
NaNassg105
S'CN(C)C'
p2574
sg107
(dp2575
g109
g7
(g11
S'333333\x13@'
p2576
tp2577
Rp2578
sg113
g7
(g11
S'\xcd\xcc\xcc\xcc\xcc\xcc\x0c@'
p2579
tp2580
Rp2581
sg117
g7
(g11
S'\xcd\xcc\xcc\xcc\xcc\xcc\x10@'
p2582
tp2583
Rp2584
ssg121
(dp2585
g5
(lp2586
g7
(g11
S'\x89\xadd\xbf\xce`1@'
p2587
tp2588
Rp2589
ag7
(g11
S"\x8e\xe6'\xf2n\xe1\xc4?"
p2590
tp2591
Rp2592
asg20
g2546
sg23
(lp2593
g7
(g11
S'\xd2\xf6\xd7`\x18;\x08@'
p2594
tp2595
Rp2596
asg28
g2552
sg30
g31
(g32
(I0
tp2597
g34
tp2598
Rp2599
(I1
(I2
tp2600
g40
I00
S'S\xdc~g\x97g\xf1?\xc8\x80\xec\xab\xe3\x98\x9f?'
p2601
tp2602
bssg138
g2585
ssS'cinnamamide'
p2603
(dp2604
g3
(dp2605
g5
(lp2606
g7
(g11
S'\xfb\xe6\x9a\xbb\x1c>@@'
p2607
tp2608
Rp2609
ag7
(g11
S'\x9b@\xba\xa4\x0b\xd6\xbf?'
p2610
tp2611
Rp2612
asg20
(lp2613
S'304'
p2614
asg23
(lp2615
g7
(g11
S'\xeb\xb4\xff\xec\xdf\xcb\xb7?'
p2616
tp2617
Rp2618
asg28
(lp2619
F-2.21
asg30
g31
(g32
(I0
tp2620
g34
tp2621
Rp2622
(I1
(I2
tp2623
g40
I00
S'\x93\xf0*\xd3\xccR\x03\xc0\x1e3;\xa1\xbe\x94\x9b?'
p2624
tp2625
bssg45
I2
sg46
g2605
sg47
(dp2626
g49
I00
sg50
I01
sg51
I00
sg52
I00
sg53
I00
sg54
I00
sg55
I00
ssg56
(dp2627
g58
I0
sg59
I0
sg60
I0
sg61
I0
ssg62
S'(E)-3-phenylprop-2-enamide'
p2628
sS'octanol_DC'
p2629
(dp2630
g5
(lp2631
g7
(g11
S'\xf2DE(\xf6\xceL@'
p2632
tp2633
Rp2634
ag7
(g11
S'=\x9bA\xdc\xaa\x01\xd0?'
p2635
tp2636
Rp2637
asg78
g741
sg23
(lp2638
g7
(g11
S'-\x80\xfc\xd8\xd6\xf2\xd8?'
p2639
tp2640
Rp2641
asg73
(lp2642
F1.43
asg30
g31
(g32
(I0
tp2643
g34
tp2644
Rp2645
(I1
(I2
tp2646
g40
I00
S'C\xab@5\x93\xcc\xff?\xff\x81\xff\xf1\xa9\xda\xa7?'
p2647
tp2648
bssg86
S'3228'
p2649
sg88
(dp2650
g5
(lp2651
NaNassg91
(dp2652
g5
(lp2653
g7
(g11
S'\x98\x9a\x87\x8e\xe2"G@'
p2654
tp2655
Rp2656
ag7
(g11
S'\xc9Z\x12\x907$\xb7?'
p2657
tp2658
Rp2659
assS'cyclohexane_DC'
p2660
(dp2661
g5
(lp2662
NaNasg78
g2613
sg73
g2619
sg30
(lp2663
NaNassg105
S'c1ccc(cc1)/C=C/C(=O)N'
p2664
sg107
(dp2665
g109
g7
(g11
S'\x9a\x99\x99\x99\x99\x99\x11@'
p2666
tp2667
Rp2668
sg113
g7
(g11
S'\xcd\xcc\xcc\xcc\xcc\xcc\x0c@'
p2669
tp2670
Rp2671
sg117
g7
(g11
S'\xcd\xcc\xcc\xcc\xcc\xcc\x10@'
p2672
tp2673
Rp2674
ssg121
(dp2675
g5
(lp2676
g7
(g11
S'_\xdd]J\xe3\x85K@'
p2677
tp2678
Rp2679
ag7
(g11
S'h\x869\xbcc\xa1\xd7?'
p2680
tp2681
Rp2682
asg812
(lp2683
F0.15
asg28
g2642
sg23
(lp2684
g7
(g11
S'\x83T:\xfb\xc9)\xb3?'
p2685
tp2686
Rp2687
asg20
g741
sg30
g31
(g32
(I0
tp2688
g34
tp2689
Rp2690
(I1
(I2
tp2691
g40
I00
S'\xd5@\xd0!\xbc\x97\xf8?\xe3\x15\xce\xdbn\x0c\xb1?'
p2692
tp2693
bssg138
g2675
ssS'Phthalimide'
p2694
(dp2695
g3
(dp2696
g5
(lp2697
g7
(g11
S'\xc9\xd2o\xfd\xa9#B@'
p2698
tp2699
Rp2700
ag7
(g11
S'\x9e\xc7\xd0\xbe\x97\xe7\xbb?'
p2701
tp2702
Rp2703
asg20
(lp2704
S'304'
p2705
asg23
(lp2706
g7
(g11
S'\xfdt\x13\xb7\xe0\xd5\xe4?'
p2707
tp2708
Rp2709
asg28
(lp2710
F-1.46
asg30
g31
(g32
(I0
tp2711
g34
tp2712
Rp2713
(I1
(I2
tp2714
g40
I00
S'W\xfba\x05\xf2H\x03\xc0\x97o!\x8dSr\x98?'
p2715
tp2716
bssg45
I0
sg46
g2696
sg47
(dp2717
g49
I00
sg50
I01
sg51
I00
sg52
I00
sg53
I00
sg54
I00
sg55
I00
ssg56
(dp2718
g58
I0
sg59
I0
sg60
I0
sg61
I0
ssg62
S'isoindoline-1,3-dione'
p2719
sS'octanol_DC'
p2720
(dp2721
g5
(lp2722
g7
(g11
S'B\xb3\x1aT\xbc\xf7I@'
p2723
tp2724
Rp2725
ag7
(g11
S'\xe9\x93u\xafp\xf2\xd5?'
p2726
tp2727
Rp2728
asg73
(lp2729
F1.15
asg75
S'Warning energy difference (2.537) is bigger than 2.0 * the largest uncertainty (0.746)'
p2730
sg23
(lp2731
g7
(g11
S'\xd7\x9a#~\x98\xc0\xe6?'
p2732
tp2733
Rp2734
asg78
(lp2735
S'9'
p2736
asg30
g31
(g32
(I0
tp2737
g34
tp2738
Rp2739
(I1
(I2
tp2740
g40
I00
S'\xde\x1b\xae\xaa\x07E\xd5?,\x88~\xf1L\x9f\xaf?'
p2741
tp2742
bssg86
S'2612'
p2743
sg88
(dp2744
g5
(lp2745
NaNassg91
(dp2746
g5
(lp2747
g7
(g11
S'O\xa2~\xcd\xeb\x04I@'
p2748
tp2749
Rp2750
ag7
(g11
S'0b\x90h\x9c\xef\xb4?'
p2751
tp2752
Rp2753
assS'cyclohexane_DC'
p2754
(dp2755
g5
(lp2756
NaNasg78
g2704
sg73
g2710
sg30
(lp2757
NaNassg105
S'c1ccc2c(c1)C(=O)NC2=O'
p2758
sg107
(dp2759
g109
g7
(g11
S'ffffff\x12@'
p2760
tp2761
Rp2762
sg113
g7
(g11
S'\xcd\xcc\xcc\xcc\xcc\xcc\x0c@'
p2763
tp2764
Rp2765
ssg121
(dp2766
g5
(lp2767
g7
(g11
S'\xca\x1a+\xb0\\\xe2L@'
p2768
tp2769
Rp2770
ag7
(g11
S'~\xc5^\xed\x01\xc4\xd7?'
p2771
tp2772
Rp2773
asg28
g2729
sg75
S'Warning energy difference (1.914) is bigger than 2.0 * the largest uncertainty (0.641)'
p2774
sg23
(lp2775
g7
(g11
S'\x94aR\xbd\x95\xbb\xc6?'
p2776
tp2777
Rp2778
asg20
g2735
sg30
g31
(g32
(I0
tp2779
g34
tp2780
Rp2781
(I1
(I2
tp2782
g40
I00
S'\xa0\xd7\x03 \xf7\xaa\xf5? ct\x84\xa9\r\xb1?'
p2783
tp2784
bssg138
g2766
ssS'Erythromycin'
p2785
(dp2786
g3
(dp2787
g5
(lp2788
g7
(g11
S'\xedK\xd1\\f\xa9^@'
p2789
tp2790
Rp2791
ag7
(g11
S'\x1bc\xfb\x89\x8cG\xda?'
p2792
tp2793
Rp2794
asg20
(lp2795
S'519'
p2796
asg23
(lp2797
g7
(g11
S'W\x9355\xff3\x15@'
p2798
tp2799
Rp2800
asg28
(lp2801
F-0.22
asg30
g31
(g32
(I0
tp2802
g34
tp2803
Rp2804
(I1
(I2
tp2805
g40
I00
S'\xc2@\x87\xd8\x08G\xee?\xc7\xef\xd7\xf0\xb4\x86\xb5?'
p2806
tp2807
bssg45
I7
sg46
g2787
sg47
(dp2808
g49
I01
sg50
I00
sg51
I01
sg52
I01
sg53
I01
sg54
I00
sg55
I00
ssg56
(dp2809
g58
I0
sg59
I0
sg60
I0
sg61
I0
ssg62
S'(3R,4S,5R,6R,7R,9R,11R,12S,13S,14R)-6-[(2S,3R,4S,6R)-4-(dimethylamino)-3-hydroxy-6-methyl-tetrahydropyran-2-yl]oxy-14-ethyl-7,12,13-trihydroxy-4-[(2R,4R,5S,6S)-5-hydroxy-4-methoxy-4,6-dimethyl-tetrahydropyran-2-yl]oxy-3,5,7,9,11,13-hexamethyl-oxacyclotetradecane-2,10-dione'
p2810
sS'octanol_DC'
p2811
(dp2812
g5
(lp2813
g7
(g11
S'\x94\x97\x14SF`c@'
p2814
tp2815
Rp2816
ag7
(g11
S'\x83e\xae%\x8aq\xf1?'
p2817
tp2818
Rp2819
asg73
(lp2820
F2.48
asg75
S'Warning energy difference (9.864) is bigger than 2.0 * the largest uncertainty (0.784)'
p2821
sg23
(lp2822
g7
(g11
S"#\x81=\xa3'\xc7\xe6?"
p2823
tp2824
Rp2825
asg78
(lp2826
S'519'
p2827
asg30
g31
(g32
(I0
tp2828
g34
tp2829
Rp2830
(I1
(I2
tp2831
g40
I00
S'\xfe\x10S\x91-\xfb\x10@C\xf4\xc5L\x8b\xcc\xc9?'
p2832
tp2833
bssg86
S'5785'
p2834
sg88
(dp2835
g75
S'Warning energy difference (3.820) is bigger than 2.0 * the largest uncertainty (1.093)'
p2836
sg5
(lp2837
g7
(g11
S'\x03m\x90\x95\xd8X`@'
p2838
tp2839
Rp2840
ag7
(g11
S'M\xb5\xe7\x9d1\x84\xd7?'
p2841
tp2842
Rp2843
assg91
(dp2844
g75
S'Warning energy difference (2.445) is bigger than 2.0 * the largest uncertainty (0.827)'
p2845
sg5
(lp2846
g7
(g11
S'\xc5E\nv\xc0O]@'
p2847
tp2848
Rp2849
ag7
(g11
S'\xa4\x8f\xe5\xe3\x84\xcf\xcf?'
p2850
tp2851
Rp2852
assS'cyclohexane_DC'
p2853
(dp2854
g5
(lp2855
g7
(g11
S'\xc3|\x1b"\'\xbf^@'
p2856
tp2857
Rp2858
ag7
(g11
S'.\xee\xe6,n&\xd9?'
p2859
tp2860
Rp2861
asg78
g2795
sg23
(lp2862
g7
(g11
S'e\xf3\xcfj\x06\xd0\x14@'
p2863
tp2864
Rp2865
asg73
g2801
sg30
g31
(g32
(I0
tp2866
g34
tp2867
Rp2868
(I1
(I2
tp2869
g40
I00
S'\xab\xea\x085\xc8\xd5\xf5\xbf\x00\xd4\x87j\xf7 \xb8?'
p2870
tp2871
bssg105
S'CC[C@@H]1[C@@]([C@H]([C@H](C(=O)[C@@H](C[C@@]([C@@H]([C@@H]([C@@H]([C@H](C(=O)O1)C)O[C@H]2C[C@@]([C@H]([C@@H](O2)C)O)(C)OC)C)O[C@H]3[C@@H]([C@H](C[C@H](O3)C)N(C)C)O)(C)O)C)C)O)(C)O'
p2872
sg107
(dp2873
g109
g7
(g11
S'ffffff\x12@'
p2874
tp2875
Rp2876
sg113
g7
(g11
S'\xcd\xcc\xcc\xcc\xcc\xcc\x0c@'
p2877
tp2878
Rp2879
sg117
g7
(g11
S'\x00\x00\x00\x00\x00\x006@'
p2880
tp2881
Rp2882
ssg121
(dp2883
g5
(lp2884
g7
(g11
S'H\xfb\x97\xec\x0f&c@'
p2885
tp2886
Rp2887
ag7
(g11
S"}9\x84\x9b'\x91\xec?"
p2888
tp2889
Rp2890
asg28
g2820
sg75
S'Warning energy difference (4.411) is bigger than 2.0 * the largest uncertainty (0.909)'
p2891
sg23
(lp2892
g7
(g11
S'\x85[\xe4\x845\xa0\xf8?'
p2893
tp2894
Rp2895
asg20
g2826
sg30
g31
(g32
(I0
tp2896
g34
tp2897
Rp2898
(I1
(I2
tp2899
g40
I00
S'\xe7\x94\x8d.!0\x19@7\xd5\xe1.\xb8\xc7\xc4?'
p2900
tp2901
bssg138
g2883
ssS'P-Toluidine'
p2902
(dp2903
g3
(dp2904
g5
(lp2905
g7
(g11
S'\x88\x9a\xd2O\x96\xda6@'
p2906
tp2907
Rp2908
ag7
(g11
S'8g\\Rc,\xbb?'
p2909
tp2910
Rp2911
asg20
(lp2912
S'337'
p2913
aS'314'
p2914
asg23
(lp2915
g7
(g11
S' \xbdQ\xd3*M\xef?'
p2916
tp2917
Rp2918
ag7
(g11
S'\x14S\xa5\xabiC\xef?'
p2919
tp2920
Rp2921
asg28
(lp2922
F0.58
aF0.55
asg30
g31
(g32
(I0
tp2923
g34
tp2924
Rp2925
(I1
(I2
tp2926
g40
I00
S'!-\xde2E\xee\x89?\x10\xc0p\t\xe2H\x97?'
p2927
tp2928
bssg45
I0
sg46
g2904
sg47
(dp2929
g49
I00
sg50
I00
sg51
I00
sg52
I01
sg53
I00
sg54
I00
sg55
I00
ssg56
(dp2930
g58
I0
sg59
I0
sg60
I0
sg61
I0
ssg62
S'4-methylaniline'
p2931
sS'octanol_DC'
p2932
(dp2933
g5
(lp2934
g7
(g11
S'\x13 \xff\xcd\xefw>@'
p2935
tp2936
Rp2937
ag7
(g11
S'w\xec\x02<\xb5\xbc\xd3?'
p2938
tp2939
Rp2940
asg78
(lp2941
S'10'
p2942
aS'301'
p2943
asg23
(lp2944
g7
(g11
S'\x8e6u8\xd0\xe7\x9f?'
p2945
tp2946
Rp2947
ag7
(g11
S"nd\xc7\xfe'\xfd\xa6?"
p2948
tp2949
Rp2950
asg73
(lp2951
F1.39
aF1.41
asg30
g31
(g32
(I0
tp2952
g34
tp2953
Rp2954
(I1
(I2
tp2955
g40
I00
S'\xc6\x88\x03\x99\x0b\x8c\xf5?`\xcbq\x9eVv\xac?'
p2956
tp2957
bssg86
S'2422'
p2958
sg88
(dp2959
g5
(lp2960
NaNassg91
(dp2961
g5
(lp2962
g7
(g11
S']\xa1\xac\xe6\x15\xc86@'
p2963
tp2964
Rp2965
ag7
(g11
S'\xf4{7\x84K\x1f\xb3?'
p2966
tp2967
Rp2968
assS'cyclohexane_DC'
p2969
(dp2970
g5
(lp2971
NaNasg78
g2912
sg73
g2922
sg30
(lp2972
NaNassg105
S'Cc1ccc(cc1)N'
p2973
sg107
(dp2974
g109
g7
(g11
S'\x00\x00\x00\x00\x00\x00\x10@'
p2975
tp2976
Rp2977
sg113
g7
(g11
S'\xcd\xcc\xcc\xcc\xcc\xcc\x0c@'
p2978
tp2979
Rp2980
sg117
g7
(g11
S'\x00\x00\x00\x00\x00\x00\x10@'
p2981
tp2982
Rp2983
ssg121
(dp2984
g5
(lp2985
g7
(g11
S'S\x87\x91\x96\x11\xde=@'
p2986
tp2987
Rp2988
ag7
(g11
S'l\x18\x8c\xb3`E\xce?'
p2989
tp2990
Rp2991
asg20
g2941
sg23
(lp2992
g7
(g11
S'\x80\xad\xf0\xf9\x9b^\xbb?'
p2993
tp2994
Rp2995
ag7
(g11
S'/Gc;\xd0\x9c\xbe?'
p2996
tp2997
Rp2998
asg28
g2951
sg30
g31
(g32
(I0
tp2999
g34
tp3000
Rp3001
(I1
(I2
tp3002
g40
I00
S'\xc4TI\xa6\xbd\xdc\xf3?SI\xd5?\xf9>\xa6?'
p3003
tp3004
bssg138
g2984
ssS'P-Iodophenol'
p3005
(dp3006
g3
(dp3007
g5
(lp3008
g7
(g11
S'\xe4iRQ\x84\xfe=@'
p3009
tp3010
Rp3011
ag7
(g11
S'\x8b2\xed\xcb\xfe0\xbd?'
p3012
tp3013
Rp3014
asg20
(lp3015
S'124'
p3016
aS'56'
p3017
asg23
(lp3018
F0.0
ag7
(g11
S'\xad\xd7\xdc\xa8W\xd3\t@'
p3019
tp3020
Rp3021
asg28
(lp3022
F0.0
aF0.21
asg30
g31
(g32
(I0
tp3023
g34
tp3024
Rp3025
(I1
(I2
tp3026
g40
I00
S'S\x11|\xfe\xd8i\xec?\x04X_s@\x87\x98?'
p3027
tp3028
bssg45
I0
sg46
g3007
sg47
(dp3029
g49
I01
sg50
I00
sg51
I00
sg52
I00
sg53
I00
sg54
I00
sg55
I00
ssg56
(dp3030
g58
I1
sg59
I0
sg60
I0
sg61
I0
ssg62
S'4-iodophenol'
p3031
sS'octanol_DC'
p3032
(dp3033
g5
(lp3034
g7
(g11
S'4\xfd6\x0fLlI@'
p3035
tp3036
Rp3037
ag7
(g11
S'X:\x8d\xa5\xd1K\xd7?'
p3038
tp3039
Rp3040
asg73
(lp3041
F2.91
asg75
S'Warning energy difference (1.193) is bigger than 2.0 * the largest uncertainty (0.531)'
p3042
sg23
(lp3043
g7
(g11
S'S\xdf\x16\xc0G/\xc1?'
p3044
tp3045
Rp3046
asg78
(lp3047
S'10'
p3048
asg30
g31
(g32
(I0
tp3049
g34
tp3050
Rp3051
(I1
(I2
tp3052
g40
I00
S'\xbd\xf5\xd0\x91\xccg\n@36\x10wB\xb2\xb0?'
p3053
tp3054
bssg86
S'1425'
p3055
sg88
(dp3056
g5
(lp3057
g7
(g11
S'\xd1h\x06~\xbc\x00@@'
p3058
tp3059
Rp3060
ag7
(g11
S'\xcb\x93\xe9\xe3\r\xfb\xb3?'
p3061
tp3062
Rp3063
assg91
(dp3064
g5
(lp3065
g7
(g11
S'\xe6>k\xff\n\xed8@'
p3066
tp3067
Rp3068
ag7
(g11
S'\xc2\xc6\xd0d.P\xb3?'
p3069
tp3070
Rp3071
assS'cyclohexane_DC'
p3072
(dp3073
g5
(lp3074
g7
(g11
S'\xa5\xf4\x8c\x94D->@'
p3075
tp3076
Rp3077
ag7
(g11
S'\xdf\x0f!E`b\xbe?'
p3078
tp3079
Rp3080
asg78
g3015
sg23
(lp3081
F0.0
ag7
(g11
S'\x07{\xc4{\xcc4\x04@'
p3082
tp3083
Rp3084
asg73
g3022
sg30
g31
(g32
(I0
tp3085
g34
tp3086
Rp3087
(I1
(I2
tp3088
g40
I00
S'\xa5\xf7\xc4s\xa9\x81\xd4\xbf\xa2\xaa=\xfc\xd2{\x99?'
p3089
tp3090
bssg105
S'c1cc(ccc1O)I'
p3091
sg107
(dp3092
g109
g7
(g11
S'ffffff\x12@'
p3093
tp3094
Rp3095
sg113
g7
(g11
S'\xcd\xcc\xcc\xcc\xcc\xcc\x0c@'
p3096
tp3097
Rp3098
sg117
g7
(g11
S'ffffff\x0e@'
p3099
tp3100
Rp3101
ssg121
(dp3102
g5
(lp3103
g7
(g11
S'\xda\x99\xd9\x02\x19\x87F@'
p3104
tp3105
Rp3106
ag7
(g11
S'ZB\x1b\x13\xb4\xd3\xce?'
p3107
tp3108
Rp3109
asg20
g3047
sg23
(lp3110
g7
(g11
S'\xd0\xce\xda\xc6\x84\x1e\xcb?'
p3111
tp3112
Rp3113
asg28
g3041
sg30
g31
(g32
(I0
tp3114
g34
tp3115
Rp3116
(I1
(I2
tp3117
g40
I00
S'\xb2\xcb\xaf\xbfY6\x0c@\xdf\xd7\xc1SA\xa3\xa6?'
p3118
tp3119
bssg138
g3102
ssS'(4-bromobenzyl)propanedinitrile'
p3120
(dp3121
g3
(dp3122
g5
(lp3123
g7
(g11
S'P\xc9\xf0\xb0\x98\xbbH@'
p3124
tp3125
Rp3126
ag7
(g11
S'\xfb\xdfQ\xc9\xc7\xfa\xc3?'
p3127
tp3128
Rp3129
asg20
(lp3130
S'304'
p3131
asg23
(lp3132
g7
(g11
S'\xa3\x10\x8aw\xe0\xdd\xea?'
p3133
tp3134
Rp3135
asg28
(lp3136
F2.03
asg30
g31
(g32
(I0
tp3137
g34
tp3138
Rp3139
(I1
(I2
tp3140
g40
I00
S'\xd7N\xa0e\xf6\xdf\r@\rw\x0c\xdf\xe9C\xa0?'
p3141
tp3142
bssg45
I2
sg46
g3122
sg47
(dp3143
g49
I00
sg50
I00
sg51
I00
sg52
I00
sg53
I00
sg54
I00
sg55
I00
ssg56
(dp3144
g58
I0
sg59
I0
sg60
I1
sg61
I0
ssg62
S'2-[(4-bromophenyl)methyl]propanedinitrile'
p3145
sS'octanol_DC'
p3146
(dp3147
g5
(lp3148
g7
(g11
S'\xf1PT2\x04\xdeJ@'
p3149
tp3150
Rp3151
ag7
(g11
S'\xf7\x00\xe27OP\xd8?'
p3152
tp3153
Rp3154
asg78
(lp3155
Nasg23
(lp3156
sg73
(lp3157
Nasg30
g31
(g32
(I0
tp3158
g34
tp3159
Rp3160
(I1
(I2
tp3161
g40
I00
S'\xa9\xd5\xf0\x8f\xcf\xed\x11@:i\xb9u\xab\x88\xb1?'
p3162
tp3163
bssg86
S'3510'
p3164
sg88
(dp3165
g5
(lp3166
NaNassg91
(dp3167
g5
(lp3168
g7
(g11
S'\x9b\x05\x99\xb5]&<@'
p3169
tp3170
Rp3171
ag7
(g11
S'\xb3$hc?\xa0\xb7?'
p3172
tp3173
Rp3174
assS'cyclohexane_DC'
p3175
(dp3176
g5
(lp3177
NaNasg78
g3130
sg73
g3136
sg30
(lp3178
NaNassg105
S'c1cc(ccc1CC(C#N)C#N)Br'
p3179
sg107
(dp3180
g109
g7
(g11
S'\x9a\x99\x99\x99\x99\x99\x11@'
p3181
tp3182
Rp3183
sg113
g7
(g11
S'\xcd\xcc\xcc\xcc\xcc\xcc\x0c@'
p3184
tp3185
Rp3186
sg117
g7
(g11
S'ffffff\x0e@'
p3187
tp3188
Rp3189
ssg121
(dp3190
g75
S'Warning energy difference (1.817) is bigger than 2.0 * the largest uncertainty (0.892)'
p3191
sg5
(lp3192
g7
(g11
S'b\r\xb1\xce8\xc2K@'
p3193
tp3194
Rp3195
ag7
(g11
S'\xb2D_\x15\xa3$\xd2?'
p3196
tp3197
Rp3198
asg20
g3155
sg28
(lp3199
Nasg30
g31
(g32
(I0
tp3200
g34
tp3201
Rp3202
(I1
(I2
tp3203
g40
I00
S'E\xeedf\xa6-\x13@\x9f+\xbbq\xea\xbd\xaa?'
p3204
tp3205
bssg138
g3190
ssS'O-Nitrophenol'
p3206
(dp3207
g3
(dp3208
g5
(lp3209
g7
(g11
S'p=\xeee.\xcb@@'
p3210
tp3211
Rp3212
ag7
(g11
S'\xf0<\xdcGO\x05\xbc?'
p3213
tp3214
Rp3215
asg20
(lp3216
S'308'
p3217
asg23
(lp3218
g7
(g11
S'5\xa8\xd48A\x96\xd3?'
p3219
tp3220
Rp3221
asg28
(lp3222
F1.49
asg30
g31
(g32
(I0
tp3223
g34
tp3224
Rp3225
(I1
(I2
tp3226
g40
I00
S'\xd1\xda?\x93\xd9"\xff?\xe6\x1d\xda<\xa8\x9f\x9b?'
p3227
tp3228
bssg45
I1
sg46
g3208
sg47
(dp3229
g49
I01
sg50
I00
sg51
I00
sg52
I00
sg53
I00
sg54
I00
sg55
I00
ssg56
(dp3230
g58
I0
sg59
I0
sg60
I0
sg61
I0
ssg62
S'2-nitrophenol'
p3231
sS'octanol_DC'
p3232
(dp3233
g5
(lp3234
g7
(g11
S'\x1c\x1e\xa5mE\xf1E@'
p3235
tp3236
Rp3237
ag7
(g11
S'\xc6\xa8\xd9\xa3\x1fa\xd8?'
p3238
tp3239
Rp3240
asg78
(lp3241
S'10'
p3242
aS'301'
p3243
asg23
(lp3244
g7
(g11
S'E\xaa\xd1\x02s\xa6\xe0?'
p3245
tp3246
Rp3247
ag7
(g11
S'\xbe\x86\x1b>eV\xe2?'
p3248
tp3249
Rp3250
asg73
(lp3251
F1.79
aF1.73
asg30
g31
(g32
(I0
tp3252
g34
tp3253
Rp3254
(I1
(I2
tp3255
g40
I00
S'2\xfc\x19\xb5]\xc5\x05@f4Zs9\xef\xb1?'
p3256
tp3257
bssg86
S'1453'
p3258
sg88
(dp3259
g5
(lp3260
g7
(g11
S'\xe7I\xb4\x0f\xf1Y<@'
p3261
tp3262
Rp3263
ag7
(g11
S't\xc2\x19\xb2\xe4$\xbf?'
p3264
tp3265
Rp3266
assg91
(dp3267
g5
(lp3268
g7
(g11
S'\xd6\xfe\x86D\xc2z6@'
p3269
tp3270
Rp3271
ag7
(g11
S'E\xaes\xad\xb1\xb9\xbb?'
p3272
tp3273
Rp3274
assS'cyclohexane_DC'
p3275
(dp3276
g5
(lp3277
g7
(g11
S'F\x1b\xff\xf4%\xa9@@'
p3278
tp3279
Rp3280
ag7
(g11
S'\xa1A\xbc\x9ba\xdd\xbb?'
p3281
tp3282
Rp3283
asg78
g3216
sg23
(lp3284
g7
(g11
S'u\xf6B\xc9w\x99\xda?'
p3285
tp3286
Rp3287
asg73
g3222
sg30
g31
(g32
(I0
tp3288
g34
tp3289
Rp3290
(I1
(I2
tp3291
g40
I00
S'\x12Pa\xc2\x06\xdd\xeb?L\r\xc8C\x00I\x9d?'
p3292
tp3293
bssg105
S'c1ccc(c(c1)[N+](=O)[O-])O'
p3294
sg107
(dp3295
g109
g7
(g11
S'333333\x13@'
p3296
tp3297
Rp3298
sg113
g7
(g11
S'\xcd\xcc\xcc\xcc\xcc\xcc\x0c@'
p3299
tp3300
Rp3301
sg117
g7
(g11
S'\x00\x00\x00\x00\x00\x00\x10@'
p3302
tp3303
Rp3304
ssg121
(dp3305
g5
(lp3306
g7
(g11
S'f\xd9<\xce\xa6\xbaB@'
p3307
tp3308
Rp3309
ag7
(g11
S'+&\xfdR\xde \xd3?'
p3310
tp3311
Rp3312
asg20
g3241
sg23
(lp3313
g7
(g11
S'\x8c\x862g\x13\xd3\xdd?'
p3314
tp3315
Rp3316
ag7
(g11
S'\xd7}\xc9\xbc\r\x8a\xe0?'
p3317
tp3318
Rp3319
asg28
g3251
sg30
g31
(g32
(I0
tp3320
g34
tp3321
Rp3322
(I1
(I2
tp3323
g40
I00
S'\xc9\x95T\xa9D\xfe\x04@\xd2\x1f\xceh\xd8\x83\xac?'
p3324
tp3325
bssg138
g3305
ssS'Aniline'
p3326
(dp3327
g3
(dp3328
g5
(lp3329
g7
(g11
S'\xd9\xf9\x9fh3\xc33@'
p3330
tp3331
Rp3332
ag7
(g11
S'\xfc\x82\xb7\x1ddg\xb8?'
p3333
tp3334
Rp3335
asg20
(lp3336
S'301'
p3337
aS'337'
p3338
asg23
(lp3339
g7
(g11
S'\x0cX\xb4\x07\xbc4\xf9?'
p3340
tp3341
Rp3342
ag7
(g11
S'\xa4M\x98\xd7\x7f1=@'
p3343
tp3344
Rp3345
asg28
(lp3346
F0.98
aF0.02
asg30
g31
(g32
(I0
tp3347
g34
tp3348
Rp3349
(I1
(I2
tp3350
g40
I00
S'\xee;W\x193\x0b\xe2\xbf\xae\x90\x1fh.@\x95?'
p3351
tp3352
bssg45
I0
sg46
g3328
sg47
(dp3353
g49
I00
sg50
I00
sg51
I00
sg52
I01
sg53
I00
sg54
I00
sg55
I00
ssg56
(dp3354
g58
I0
sg59
I0
sg60
I0
sg61
I0
ssg62
S'aniline'
p3355
sS'octanol_DC'
p3356
(dp3357
g5
(lp3358
g7
(g11
S'\r^\n\xcf\xe648@'
p3359
tp3360
Rp3361
ag7
(g11
S'v\x89\xba\xe3\xa9\xd4\xcc?'
p3362
tp3363
Rp3364
asg78
(lp3365
S'10'
p3366
asg23
(lp3367
g7
(g11
S'\x98U\xd0\xf2\xa0]\xe8?'
p3368
tp3369
Rp3370
asg73
(lp3371
F0.9
asg30
g31
(g32
(I0
tp3372
g34
tp3373
Rp3374
(I1
(I2
tp3375
g40
I00
S'\xde\xcb\xde\x95\xbc{\xcb?\xa8[t\x17U*\xa5?'
p3376
tp3377
bssg86
S'1711'
p3378
sg88
(dp3379
g5
(lp3380
NaNassg91
(dp3381
g5
(lp3382
g7
(g11
S'\x83?\xa4\xc1&\xfb6@'
p3383
tp3384
Rp3385
ag7
(g11
S'\xf6\x8b\x1c0P\x00\xb2?'
p3386
tp3387
Rp3388
assS'cyclohexane_DC'
p3389
(dp3390
g5
(lp3391
NaNasg78
g3336
sg73
g3346
sg30
(lp3392
NaNassg105
S'c1ccc(cc1)N'
p3393
sg107
(dp3394
g109
g7
(g11
S'ffffff\x12@'
p3395
tp3396
Rp3397
sg113
g7
(g11
S'\xcd\xcc\xcc\xcc\xcc\xcc\x0c@'
p3398
tp3399
Rp3400
ssg121
(dp3401
g5
(lp3402
g7
(g11
S'\xf2b\xc3"\xec\x92:@'
p3403
tp3404
Rp3405
ag7
(g11
S'\x10p\xaa\x92/`\xc8?'
p3406
tp3407
Rp3408
asg20
g3365
sg23
(lp3409
g7
(g11
S'\xcf\xc9V5^=\xd3?'
p3410
tp3411
Rp3412
asg28
g3371
sg30
g31
(g32
(I0
tp3413
g34
tp3414
Rp3415
(I1
(I2
tp3416
g40
I00
S'cX\xffgb$\xe4?\xd2&a9\x855\xa2?'
p3417
tp3418
bssg138
g3401
ssS'Coumarin'
p3419
(dp3420
g3
(dp3421
g5
(lp3422
g7
(g11
S'\x1aI\x9a\xe8_\xa4@@'
p3423
tp3424
Rp3425
ag7
(g11
S'`"\xcd\xfc\x195\xbe?'
p3426
tp3427
Rp3428
asg20
(lp3429
S'304'
p3430
asg23
(lp3431
g7
(g11
S'\x9d\xb2\x01\xf9\xf1\x99\xf5?'
p3432
tp3433
Rp3434
asg28
(lp3435
F0.48
asg30
g31
(g32
(I0
tp3436
g34
tp3437
Rp3438
(I1
(I2
tp3439
g40
I00
S'\xd4\xd6\xbe~Y\x82\xc5\xbf\x0c\xa7\xc1"\xc7\x92\x99?'
p3440
tp3441
bssg45
I0
sg46
g3421
sg47
(dp3442
g49
I00
sg50
I00
sg51
I00
sg52
I00
sg53
I01
sg54
I00
sg55
I00
ssg56
(dp3443
g58
I0
sg59
I0
sg60
I0
sg61
I0
ssg62
S'chromen-2-one'
p3444
sS'octanol_DC'
p3445
(dp3446
g5
(lp3447
g7
(g11
S'O\x0ba8\x12fH@'
p3448
tp3449
Rp3450
ag7
(g11
S'\xadz\x0f^\xdeR\xd9?'
p3451
tp3452
Rp3453
asg78
(lp3454
S'218'
p3455
asg23
(lp3456
g7
(g11
S'\xc4\xfe\xb7\xe9\x1b\xb3\xea?'
p3457
tp3458
Rp3459
asg73
(lp3460
F1.39
asg30
g31
(g32
(I0
tp3461
g34
tp3462
Rp3463
(I1
(I2
tp3464
g40
I00
S'!B\xa8\x9e\xebe\x04@\xf6\xc7\xf9n\xe3\x1a\xb2?'
p3465
tp3466
bssg86
S'3126'
p3467
sg88
(dp3468
g5
(lp3469
NaNassg91
(dp3470
g5
(lp3471
g7
(g11
S'K<4/&\x1fA@'
p3472
tp3473
Rp3474
ag7
(g11
S'T[&\xa6\xd9y\xb4?'
p3475
tp3476
Rp3477
assS'cyclohexane_DC'
p3478
(dp3479
g5
(lp3480
NaNasg78
g3429
sg73
g3435
sg30
(lp3481
NaNassg105
S'c1ccc2c(c1)ccc(=O)o2'
p3482
sg107
(dp3483
g109
g7
(g11
S'\x9a\x99\x99\x99\x99\x99\x11@'
p3484
tp3485
Rp3486
sg113
g7
(g11
S'\xcd\xcc\xcc\xcc\xcc\xcc\x0c@'
p3487
tp3488
Rp3489
sg117
g7
(g11
S'\xcd\xcc\xcc\xcc\xccLH@'
p3490
tp3491
Rp3492
ssg121
(dp3493
g5
(lp3494
g7
(g11
S'\xaf\xabxP\xc0\xf0G@'
p3495
tp3496
Rp3497
ag7
(g11
S'\xa5Fv\xccD\x02\xd4?'
p3498
tp3499
Rp3500
asg20
g3454
sg23
(lp3501
g7
(g11
S'\xd6o\x19\xda\xc1\x00\xe7?'
p3502
tp3503
Rp3504
asg28
g3460
sg30
g31
(g32
(I0
tp3505
g34
tp3506
Rp3507
(I1
(I2
tp3508
g40
I00
S'l\x99\xde)\x10\x1d\x03@\x18\xa2\x11\nI\xf2\xac?'
p3509
tp3510
bssg138
g3493
ssS'Nicotine'
p3511
(dp3512
g3
(dp3513
g5
(lp3514
g7
(g11
S'\x95\x983\xdff\xe6B@'
p3515
tp3516
Rp3517
ag7
(g11
S'\x04+$A\x9bq\xc2?'
p3518
tp3519
Rp3520
asg20
(lp3521
S'435'
p3522
asg23
(lp3523
g7
(g11
S'es(hp\xe5\x13@'
p3524
tp3525
Rp3526
asg28
(lp3527
F0.25
asg30
g31
(g32
(I0
tp3528
g34
tp3529
Rp3530
(I1
(I2
tp3531
g40
I00
S'es(hp\xe5\xf7?\xa3\xe4\xee\x99\xda\xbd\x9e?'
p3532
tp3533
bssg45
I1
sg46
g3513
sg47
(dp3534
g49
I00
sg50
I00
sg51
I00
sg52
I01
sg53
I00
sg54
I00
sg55
I00
ssg56
(dp3535
g58
I0
sg59
I0
sg60
I0
sg61
I0
ssg62
S'3-[(2S)-1-methylpyrrolidin-2-yl]pyridine'
p3536
sS'octanol_DC'
p3537
(dp3538
g5
(lp3539
g7
(g11
S'@xw\xc5",F@'
p3540
tp3541
Rp3542
ag7
(g11
S'\x1f\xf9\x08\xac\x8f\xae\xd6?'
p3543
tp3544
Rp3545
asg78
(lp3546
S'341'
p3547
asg23
(lp3548
g7
(g11
S'\xf0\x8a\xd9\xa0\xa8\x1a\xf4?'
p3549
tp3550
Rp3551
asg73
(lp3552
F1.17
asg30
g31
(g32
(I0
tp3553
g34
tp3554
Rp3555
(I1
(I2
tp3556
g40
I00
S'\xff\x0fL\x91\xf4\x1e\x05@\xef\xb3*\x04\x18n\xb0?'
p3557
tp3558
bssg86
S'3799'
p3559
sg88
(dp3560
g5
(lp3561
NaNassg91
(dp3562
g5
(lp3563
g7
(g11
S"O/'\xb1gF=@"
p3564
tp3565
Rp3566
ag7
(g11
S'\xa0\x0bR\xe1A\xbe\xb7?'
p3567
tp3568
Rp3569
assS'cyclohexane_DC'
p3570
(dp3571
g5
(lp3572
NaNasg78
g3521
sg73
g3527
sg30
(lp3573
NaNassg105
S'C[N@@]1CCC[C@H]1c2cccnc2'
p3574
sg107
(dp3575
g109
g7
(g11
S'\x9a\x99\x99\x99\x99\x99\x11@'
p3576
tp3577
Rp3578
sg113
g7
(g11
S'\xcd\xcc\xcc\xcc\xcc\xcc\x0c@'
p3579
tp3580
Rp3581
sg117
g7
(g11
S'\x9a\x99\x99\x99\x99\x999@'
p3582
tp3583
Rp3584
ssg121
(dp3585
g5
(lp3586
g7
(g11
S'\x05\xd5\xc2_-\xbcG@'
p3587
tp3588
Rp3589
ag7
(g11
S'\xcaY\xb7\xe9\x12\xb8\xd3?'
p3590
tp3591
Rp3592
asg20
g3546
sg23
(lp3593
g7
(g11
S'\x0c\x92\x9cO~\x97\xfb?'
p3594
tp3595
Rp3596
asg28
g3552
sg30
g31
(g32
(I0
tp3597
g34
tp3598
Rp3599
(I1
(I2
tp3600
g40
I00
S'\to_\xbbM\x80\t@s\xbf\xddV\xac\xdc\xac?'
p3601
tp3602
bssg138
g3585
ssS'2-methylbenzal Malonamide'
p3603
(dp3604
g3
(dp3605
g5
(lp3606
g7
(g11
S'\x15\x08\x9f6.5F@'
p3607
tp3608
Rp3609
ag7
(g11
S'4\xb87x1G\xc2?'
p3610
tp3611
Rp3612
asg20
(lp3613
S'304'
p3614
asg23
(lp3615
g7
(g11
S'b)\xf4\xfe9/\xe3?'
p3616
tp3617
Rp3618
asg28
(lp3619
F-2.86
asg30
g31
(g32
(I0
tp3620
g34
tp3621
Rp3622
(I1
(I2
tp3623
g40
I00
S'\xe7r\xbc\x8b\x81S\xf2\xbf\xe3l8At\x18\x9f?'
p3624
tp3625
bssg45
I3
sg46
g3605
sg47
(dp3626
g49
I00
sg50
I01
sg51
I00
sg52
I00
sg53
I00
sg54
I00
sg55
I00
ssg56
(dp3627
g58
I0
sg59
I0
sg60
I0
sg61
I0
ssg62
S'2-(o-tolylmethylene)propanediamide'
p3628
sS'octanol_DC'
p3629
(dp3630
g5
(lp3631
g7
(g11
S'\x89\x8b\x0f\x8e!JP@'
p3632
tp3633
Rp3634
ag7
(g11
S'jP\x80\xf6l\x8c\xf3?'
p3635
tp3636
Rp3637
asg78
(lp3638
Nasg23
(lp3639
sg73
(lp3640
Nasg30
g31
(g32
(I0
tp3641
g34
tp3642
Rp3643
(I1
(I2
tp3644
g40
I00
S'\xa3;\xd4\x8f\xa7\xe8\x03@fD3\xcd\x8b|\xcb?'
p3645
tp3646
bssg86
S'4027'
p3647
sg88
(dp3648
g5
(lp3649
NaNassg91
(dp3650
g5
(lp3651
g7
(g11
S'\xceq\x8d]\x07zI@'
p3652
tp3653
Rp3654
ag7
(g11
S'\x17&\x97\xa9\xfe&\xb9?'
p3655
tp3656
Rp3657
assS'cyclohexane_DC'
p3658
(dp3659
g5
(lp3660
NaNasg78
g3613
sg73
g3619
sg30
(lp3661
NaNassg105
S'Cc1ccccc1C=C(C(=O)N)C(=O)N'
p3662
sg107
(dp3663
g109
g7
(g11
S'333333\x1b@'
p3664
tp3665
Rp3666
sg113
g7
(g11
S'\xcd\xcc\xcc\xcc\xcc\xcc\x0c@'
p3667
tp3668
Rp3669
sg117
g7
(g11
S'\x00\x00\x00\x00\x00\x00G@'
p3670
tp3671
Rp3672
ssg121
(dp3673
g75
S'Warning energy difference (1.951) is bigger than 2.0 * the largest uncertainty (0.715)'
p3674
sg5
(lp3675
g7
(g11
S'\xd4\xf8s\xc0\x1e\xfdP@'
p3676
tp3677
Rp3678
ag7
(g11
S'\x04\x02<Ia\xf9\xf2?'
p3679
tp3680
Rp3681
asg20
g3638
sg28
(lp3682
Nasg30
g31
(g32
(I0
tp3683
g34
tp3684
Rp3685
(I1
(I2
tp3686
g40
I00
S'\xf8\xd8\xc1\x91\x18\xd4\x07@\xac&\xf0\x8d#\xaf\xca?'
p3687
tp3688
bssg138
g3673
ssS'Vanillin'
p3689
(dp3690
g3
(dp3691
g5
(lp3692
g7
(g11
S'T\x0f}\x9d\x9b\xa4@@'
p3693
tp3694
Rp3695
ag7
(g11
S'}\xf3\xcc\xeaW\xe1\xbe?'
p3696
tp3697
Rp3698
asg20
(lp3699
S'248'
p3700
asg23
(lp3701
g7
(g11
S'\xab\xcd\xee\xdc\x06\x99\xeb?'
p3702
tp3703
Rp3704
asg28
(lp3705
F-0.75
asg30
g31
(g32
(I0
tp3706
g34
tp3707
Rp3708
(I1
(I2
tp3709
g40
I00
S'\x01.g\xd2\xd6i\xba\xbf)l\x12_X=\x9b?'
p3710
tp3711
bssg45
I2
sg46
g3691
sg47
(dp3712
g49
I01
sg50
I00
sg51
I01
sg52
I00
sg53
I00
sg54
I01
sg55
I00
ssg56
(dp3713
g58
I0
sg59
I0
sg60
I0
sg61
I0
ssg62
S'4-hydroxy-3-methoxy-benzaldehyde'
p3714
sS'octanol_DC'
p3715
(dp3716
g5
(lp3717
g7
(g11
S'\x9f-\xcd\x9d\xc5zF@'
p3718
tp3719
Rp3720
ag7
(g11
S'\xb5\xd8T\x96\\N\xd6?'
p3721
tp3722
Rp3723
asg78
(lp3724
S'EQ825'
p3725
asg23
(lp3726
g7
(g11
S'\xb7\x9a#\xf3\xec\xe1\xb2?'
p3727
tp3728
Rp3729
asg73
(lp3730
F1.21
asg30
g31
(g32
(I0
tp3731
g34
tp3732
Rp3733
(I1
(I2
tp3734
g40
I00
S"\x8a\xf2!)\x98\xee\xf1?K\x9a'?\xc4!\xb0?"
p3735
tp3736
bssg86
S'2790'
p3737
sg88
(dp3738
g5
(lp3739
g7
(g11
S'\xa1\xa9\xc8\x7f\xecGC@'
p3740
tp3741
Rp3742
ag7
(g11
S'P\x9e\x14\t\xfa\xc1\xb6?'
p3743
tp3744
Rp3745
assg91
(dp3746
g5
(lp3747
g7
(g11
S'v\x07\x89\xec\xfd\xef@@'
p3748
tp3749
Rp3750
ag7
(g11
S'|\xf4b\xd5\xca\x9b\xb7?'
p3751
tp3752
Rp3753
assS'cyclohexane_DC'
p3754
(dp3755
g5
(lp3756
g7
(g11
S'\xa5x*\xb9\xad\xc3@@'
p3757
tp3758
Rp3759
ag7
(g11
S'\xa9\xa6\xe5W\xfa;\xbf?'
p3760
tp3761
Rp3762
asg78
g3699
sg23
(lp3763
g7
(g11
S'\x1b\xb0\t\xa8@}\xc6?'
p3764
tp3765
Rp3766
asg73
g3705
sg30
g31
(g32
(I0
tp3767
g34
tp3768
Rp3769
(I1
(I2
tp3770
g40
I00
S'\x05\xd1\x81\x1f|7\xec\xbf\x12\x1c\x9eh\xf0\x14\x9b?'
p3771
tp3772
bssg105
S'COc1cc(ccc1O)C=O'
p3773
sg107
(dp3774
g109
g7
(g11
S'\x00\x00\x00\x00\x00\x00\x14@'
p3775
tp3776
Rp3777
sg113
g7
(g11
S'\xcd\xcc\xcc\xcc\xcc\xcc\x0c@'
p3778
tp3779
Rp3780
sg117
g7
(g11
S'\xcd\xcc\xcc\xcc\xcc\xcc\x10@'
p3781
tp3782
Rp3783
ssg121
(dp3784
g5
(lp3785
g7
(g11
S'\xd3\x13\x19"4\xc1E@'
p3786
tp3787
Rp3788
ag7
(g11
S'\x0eH\x8e\x86 \x19\xd2?'
p3789
tp3790
Rp3791
asg20
g3724
sg23
(lp3792
g7
(g11
S'\xcc\x1c\x06q\xd2F\xd9?'
p3793
tp3794
Rp3795
asg28
g3730
sg30
g31
(g32
(I0
tp3796
g34
tp3797
Rp3798
(I1
(I2
tp3799
g40
I00
S';T&k\x95\x01\xfb?B\xb4\xaf\x18\x18\xae\xaa?'
p3800
tp3801
bssg138
g3784
ssS'1-3-Indanedione'
p3802
(dp3803
g3
(dp3804
g5
(lp3805
g7
(g11
S'\xce(M\xc2\x84\xac@@'
p3806
tp3807
Rp3808
ag7
(g11
S'Ty]\xee\xd8H\xbf?'
p3809
tp3810
Rp3811
asg20
(lp3812
S'304'
p3813
asg23
(lp3814
g7
(g11
S'\xd3\x0b\x9a7 n\t@'
p3815
tp3816
Rp3817
asg28
(lp3818
F-0.12
asg30
g31
(g32
(I0
tp3819
g34
tp3820
Rp3821
(I1
(I2
tp3822
g40
I00
S'\xa1\xecj\x0c\xa4\xbb\xd0?\x00\x91\xfa\xd2\x90*\x9a?'
p3823
tp3824
bssg45
I0
sg46
g3804
sg47
(dp3825
g49
I00
sg50
I00
sg51
I01
sg52
I00
sg53
I00
sg54
I00
sg55
I00
ssg56
(dp3826
g58
I0
sg59
I0
sg60
I0
sg61
I0
ssg62
S'indane-1,3-dione'
p3827
sS'octanol_DC'
p3828
(dp3829
g5
(lp3830
g7
(g11
S'.\x87j\t<\xe0C@'
p3831
tp3832
Rp3833
ag7
(g11
S'\x08c\xd7M\xcd\xfa\xd3?'
p3834
tp3835
Rp3836
asg78
(lp3837
S'409'
p3838
asg23
(lp3839
g7
(g11
S'\x915\x149\xf5\xbd\x06@'
p3840
tp3841
Rp3842
asg73
(lp3843
F0.36
asg30
g31
(g32
(I0
tp3844
g34
tp3845
Rp3846
(I1
(I2
tp3847
g40
I00
S'\x17\x12\xfa\xa3^"\xf6?\x00L\x1f\x9f\x19\xe6\xac?'
p3848
tp3849
bssg86
S'3130'
p3850
sg88
(dp3851
g5
(lp3852
NaNassg91
(dp3853
g5
(lp3854
g7
(g11
S'~l\x8fT\xfd\xda?@'
p3855
tp3856
Rp3857
ag7
(g11
S'\xec-;QBb\xb4?'
p3858
tp3859
Rp3860
assS'cyclohexane_DC'
p3861
(dp3862
g5
(lp3863
NaNasg78
g3812
sg73
g3818
sg30
(lp3864
NaNassg105
S'c1ccc2c(c1)C(=O)CC2=O'
p3865
sg107
(dp3866
g113
g7
(g11
S'\xcd\xcc\xcc\xcc\xcc\xcc\x0c@'
p3867
tp3868
Rp3869
sg117
g7
(g11
S'ffffff@@'
p3870
tp3871
Rp3872
ssg121
(dp3873
g5
(lp3874
g7
(g11
S'\xc4\xa5Q\xcf\xb6\x1dE@'
p3875
tp3876
Rp3877
ag7
(g11
S'\x02\xcf\x10\x8a\xdcS\xd0?'
p3878
tp3879
Rp3880
asg20
g3837
sg23
(lp3881
g7
(g11
S'\x10x\xfe\xe7\xfa2\x10@'
p3882
tp3883
Rp3884
asg28
g3843
sg30
g31
(g32
(I0
tp3885
g34
tp3886
Rp3887
(I1
(I2
tp3888
g40
I00
S'J\x13\xdf\x1a6\x16\xfd?\xc6k|p\xf1\xf8\xa7?'
p3889
tp3890
bssg138
g3873
ssS'M-Methylphenol'
p3891
(dp3892
g3
(dp3893
g5
(lp3894
g7
(g11
S'\xbd\xfa\x8a\x0f\x07+6@'
p3895
tp3896
Rp3897
ag7
(g11
S'piL\x80\xed{\xbb?'
p3898
tp3899
Rp3900
asg20
(lp3901
S'124'
p3902
aS'132'
p3903
aS'325'
p3904
aS'133'
p3905
asg23
(lp3906
g7
(g11
S'M\x8288\x0f\xe8\xe7?'
p3907
tp3908
Rp3909
ag7
(g11
S'2\t\xe2\xe0<\xa0\xdf?'
p3910
tp3911
Rp3912
ag7
(g11
S's\xc3T\xd4\x16\xdc\xe3?'
p3913
tp3914
Rp3915
ag7
(g11
S'\x9a\x1b\xa6\xa2\xb6\xe0\xce?'
p3916
tp3917
Rp3918
asg28
(lp3919
F-0.3
aF-0.15
aF-0.2
aF-0.1
asg30
g31
(g32
(I0
tp3920
g34
tp3921
Rp3922
(I1
(I2
tp3923
g40
I00
S'H\xc7\xdeE\xa8l\xb3\xbf\x0b\xca\x9f\x945\xc2\x97?'
p3924
tp3925
bssg45
I0
sg46
g3893
sg47
(dp3926
g49
I01
sg50
I00
sg51
I00
sg52
I00
sg53
I00
sg54
I00
sg55
I00
ssg56
(dp3927
g58
I0
sg59
I0
sg60
I0
sg61
I0
ssg62
S'm-cresol'
p3928
sS'octanol_DC'
p3929
(dp3930
g5
(lp3931
g7
(g11
S'g9\xce\xef\xc2\x97E@'
p3932
tp3933
Rp3934
ag7
(g11
S'\x16\x19\xe1>J\xcb\xd1?'
p3935
tp3936
Rp3937
asg78
(lp3938
S'10'
p3939
aS'301'
p3940
asg23
(lp3941
g7
(g11
S'\xf0\x8f\x0cmu{\xcb?'
p3942
tp3943
Rp3944
ag7
(g11
S'\xa8\x9b\x04\xaaR\x9d\xc7?'
p3945
tp3946
Rp3947
asg73
(lp3948
F1.96
aF2.01
asg30
g31
(g32
(I0
tp3949
g34
tp3950
Rp3951
(I1
(I2
tp3952
g40
I00
S'\xfe`\xf5v\xec\x0b\x03@>\xa2\x8c\xabB\xf2\xa9?'
p3953
tp3954
bssg86
S'2323'
p3955
sg88
(dp3956
g5
(lp3957
g7
(g11
S'j\xfel=\x8c\x98=@'
p3958
tp3959
Rp3960
ag7
(g11
S'\xae$\xf1$\x85n\xb4?'
p3961
tp3962
Rp3963
assg91
(dp3964
g5
(lp3965
g7
(g11
S'\x90\xf4\x92\x04\xe7\x996@'
p3966
tp3967
Rp3968
ag7
(g11
S's\xc0Ao\xf6\xd9\xb3?'
p3969
tp3970
Rp3971
assS'cyclohexane_DC'
p3972
(dp3973
g5
(lp3974
g7
(g11
S'\xf6\x14a\x0b\xe5J6@'
p3975
tp3976
Rp3977
ag7
(g11
S'"-\x0cT\x10d\xbb?'
p3978
tp3979
Rp3980
asg78
g3901
sg23
(lp3981
g7
(g11
S'z\x7f\xff\x9f\xa5\x1e\n@'
p3982
tp3983
Rp3984
ag7
(g11
S'{\x7f\xff\x9f\xa5\x1e\x1e@'
p3985
tp3986
Rp3987
ag7
(g11
S'\x9b\x9f\xff7\xfc\x96\x15@'
p3988
tp3989
Rp3990
ag7
(g11
S"\x9a\x9f\xff7\xfc\x96'@"
p3991
tp3992
Rp3993
asg73
g3919
sg30
g31
(g32
(I0
tp3994
g34
tp3995
Rp3996
(I1
(I2
tp3997
g40
I00
S'I\x19f\xc6\xc9x\xf4\xbf\xf5&)\x02U\xf2\x97?'
p3998
tp3999
bssg105
S'Cc1cccc(c1)O'
p4000
sg107
(dp4001
g109
g7
(g11
S'\xcd\xcc\xcc\xcc\xcc\xcc\x10@'
p4002
tp4003
Rp4004
sg113
g7
(g11
S'\xcd\xcc\xcc\xcc\xcc\xcc\x0c@'
p4005
tp4006
Rp4007
sg117
g7
(g11
S'\x00\x00\x00\x00\x00\x00\x10@'
p4008
tp4009
Rp4010
ssg121
(dp4011
g5
(lp4012
g7
(g11
S'\xec\xfd\xfdZ\xaa\x80@@'
p4013
tp4014
Rp4015
ag7
(g11
S'\xe4\xf1\x14\xd6\xba\x0e\xcc?'
p4016
tp4017
Rp4018
asg20
g3938
sg23
(lp4019
g7
(g11
S'\xf7\xbf\nD\xa8\xee\xb1?'
p4020
tp4021
Rp4022
ag7
(g11
S'\x07\xf71\xe9\xb5\xda\xb7?'
p4023
tp4024
Rp4025
asg28
g3948
sg30
g31
(g32
(I0
tp4026
g34
tp4027
Rp4028
(I1
(I2
tp4029
g40
I00
S'\xaf{\x8b\xf2\xcd)\xfd?\xd0\xef\xe4\x84\x1f\xdb\xa4?'
p4030
tp4031
bssg138
g4011
ssS'salicylic acid'
p4032
(dp4033
g3
(dp4034
g5
(lp4035
g7
(g11
S'\xf07\xdd\xfbvz?@'
p4036
tp4037
Rp4038
ag7
(g11
S'\x9d\xec(R\xde\x8e\xbb?'
p4039
tp4040
Rp4041
asg20
(lp4042
S'15'
p4043
aS'357'
p4044
asg23
(lp4045
g7
(g11
S'\xee\xfc:\xd2&a\xfa?'
p4046
tp4047
Rp4048
ag7
(g11
S'\xc0\xf7\x08pK\x96\x02@'
p4049
tp4050
Rp4051
asg28
(lp4052
F-1.02
aF-0.5
asg30
g31
(g32
(I0
tp4053
g34
tp4054
Rp4055
(I1
(I2
tp4056
g40
I00
S'\x81\xef\x11\xe0\x96,\xe5?4\xf9~\x9e\x83<\x9e?'
p4057
tp4058
bssg45
I1
sg46
g4034
sg47
(dp4059
g49
I01
sg50
I00
sg51
I00
sg52
I00
sg53
I00
sg54
I00
sg55
I01
ssg56
(dp4060
g58
I0
sg59
I0
sg60
I0
sg61
I0
ssg62
S'2-hydroxybenzoic acid'
p4061
sS'octanol_DC'
p4062
(dp4063
g75
S'File not found'
p4064
sg5
(lp4065
NaNasg78
(lp4066
S'186'
p4067
aS'218'
p4068
asg73
(lp4069
F2.26
aF2.21
asg30
(lp4070
NaNassg86
S'2185'
p4071
sg88
(dp4072
g5
(lp4073
g7
(g11
S'\x12\xe8\xbe\xf9\xd4\x89B@'
p4074
tp4075
Rp4076
ag7
(g11
S'\x83\xb5-6\xf09\xc6?'
p4077
tp4078
Rp4079
assg91
(dp4080
g5
(lp4081
g7
(g11
S'\x7f\x11\xd8\xef\x90\xb3;@'
p4082
tp4083
Rp4084
ag7
(g11
S"\xfd@\xcd'\x9d\x99\xc0?"
p4085
tp4086
Rp4087
assS'cyclohexane_DC'
p4088
(dp4089
g5
(lp4090
g7
(g11
S'\x03\xdb\x8bHs\xa6?@'
p4091
tp4092
Rp4093
ag7
(g11
S'\xda\x97\xea6?>\xbc?'
p4094
tp4095
Rp4096
asg78
g4042
sg23
(lp4097
g7
(g11
S'\xf9\xff\xbd\xc7nd\xb1?'
p4098
tp4099
Rp4100
ag7
(g11
S'\x02\xc0bEO\xd8\xec?'
p4101
tp4102
Rp4103
asg73
g4052
sg30
g31
(g32
(I0
tp4104
g34
tp4105
Rp4106
(I1
(I2
tp4107
g40
I00
S"\x01`\xb1\xa2'l\xee\xbfP\xba\xf0\xe8\x11t\xa2?"
p4108
tp4109
bssg105
S'c1ccc(c(c1)C(=O)O)O'
p4110
sg107
(dp4111
g109
g7
(g11
S'\x9a\x99\x99\x99\x99\x99\x11@'
p4112
tp4113
Rp4114
sg113
g7
(g11
S'\xcd\xcc\xcc\xcc\xcc\xcc\x0c@'
p4115
tp4116
Rp4117
sg117
g7
(g11
S'\xcd\xcc\xcc\xcc\xcc\xcc\x10@'
p4118
tp4119
Rp4120
ssg121
(dp4121
g5
(lp4122
g7
(g11
S'\xb5d\xc3\x10\xdd~D@'
p4123
tp4124
Rp4125
ag7
(g11
S'c\x13\xad\x9f\x151\xce?'
p4126
tp4127
Rp4128
asg20
g4066
sg23
(lp4129
g7
(g11
S'\xe1\x91\x12\xa9\r\xed\x9e?'
p4130
tp4131
Rp4132
ag7
(g11
S'\xd5\n\xbd\x16\x84e\xab?'
p4133
tp4134
Rp4135
asg28
g4069
sg30
g31
(g32
(I0
tp4136
g34
tp4137
Rp4138
(I1
(I2
tp4139
g40
I00
S'\x18\xb0\x10\xf6C\xa0\x02@S[\xaez\x03%\xa8?'
p4140
tp4141
bssg138
g4121
ssS'(4-bromo-benzal)-Acetylacetone'
p4142
(dp4143
g3
(dp4144
g5
(lp4145
g7
(g11
S'\xc4\x19\xdc\x8fa\xb3G@'
p4146
tp4147
Rp4148
ag7
(g11
S'{\xfbI\x9e\xd2\x8f\xc4?'
p4149
tp4150
Rp4151
asg20
(lp4152
S'304'
p4153
asg23
(lp4154
g7
(g11
S'\xa1/K\xf5\xd3\x02\xf0?'
p4155
tp4156
Rp4157
asg28
(lp4158
F1.82
asg30
g31
(g32
(I0
tp4159
g34
tp4160
Rp4161
(I1
(I2
tp4162
g40
I00
S'jc\xcb`j\x96T\xbf}\xb8\xdfP\xd9\x98\xab?'
p4163
tp4164
bssg45
I3
sg46
g4144
sg47
(dp4165
g49
I00
sg50
I00
sg51
I01
sg52
I00
sg53
I00
sg54
I00
sg55
I00
ssg56
(dp4166
g58
I0
sg59
I0
sg60
I1
sg61
I0
ssg62
S'3-[(4-bromophenyl)methylene]pentane-2,4-dione'
p4167
sS'octanol_DC'
p4168
(dp4169
g5
(lp4170
g7
(g11
S'<\xcb\xfaS\xd2>P@'
p4171
tp4172
Rp4173
ag7
(g11
S'\xad\xf8_B^\x9d\xe0?'
p4174
tp4175
Rp4176
asg73
(lp4177
F2.75
asg75
S'Warning energy difference (2.597) is bigger than 2.0 * the largest uncertainty (0.883)'
p4178
sg23
(lp4179
g7
(g11
S't_\n\xebX\x98\xbe?'
p4180
tp4181
Rp4182
asg78
(lp4183
g649
asg30
g31
(g32
(I0
tp4184
g34
tp4185
Rp4186
(I1
(I2
tp4187
g40
I00
S'4\xe42\xa4\x17\xa1\x08@\x18`\xda\xacL\x17\xba?'
p4188
tp4189
bssg86
S'4299'
p4190
sg88
(dp4191
g5
(lp4192
NaNassg91
(dp4193
g5
(lp4194
g7
(g11
S'LF\xfc\x96L\xb4G@'
p4195
tp4196
Rp4197
ag7
(g11
S'\xb5_\xdeX\x1f\xcb\xd0?'
p4198
tp4199
Rp4200
assS'cyclohexane_DC'
p4201
(dp4202
g5
(lp4203
NaNasg78
g4152
sg73
g4158
sg30
(lp4204
NaNassg105
S'CC(=O)C(=Cc1ccc(cc1)Br)C(=O)C'
p4205
sg107
(dp4206
g109
g7
(g11
S'\x9a\x99\x99\x99\x99\x99\x11@'
p4207
tp4208
Rp4209
sg113
g7
(g11
S'\xcd\xcc\xcc\xcc\xcc\xcc\x0c@'
p4210
tp4211
Rp4212
sg117
g7
(g11
S'\x00\x00\x00\x00\x00\x00\x10@'
p4213
tp4214
Rp4215
ssg121
(dp4216
g5
(lp4217
g7
(g11
S';\x81\x16o\x06#P@'
p4218
tp4219
Rp4220
ag7
(g11
S'\xa6\x93EB\xb2c\xde?'
p4221
tp4222
Rp4223
asg20
g4183
sg23
(lp4224
g7
(g11
S'\xdd\x9c\x01;\t\x83\xb7?'
p4225
tp4226
Rp4227
asg28
g4177
sg30
g31
(g32
(I0
tp4228
g34
tp4229
Rp4230
(I1
(I2
tp4231
g40
I00
S'{#\x12\xcbB\x05\x08@\xd6a{\x9e\xd2T\xb8?'
p4232
tp4233
bssg138
g4216
ssS'Nitrocyclohexane'
p4234
(dp4235
g3
(dp4236
g5
(lp4237
g7
(g11
S'\xbb\xb6\xe11\xbf\xc8?@'
p4238
tp4239
Rp4240
ag7
(g11
S'7\x11\x170\n\xba\xc0?'
p4241
tp4242
Rp4243
asg20
(lp4244
S'354'
p4245
asg23
(lp4246
g7
(g11
S'\xf5\t\x9c\xcb\xc6\xb8C@'
p4247
tp4248
Rp4249
asg28
(lp4250
F-0.1
asg30
g31
(g32
(I0
tp4251
g34
tp4252
Rp4253
(I1
(I2
tp4254
g40
I00
S'"C\x93\x12>\xc1\x0e@9Vih\xfc\x8b\x9b?'
p4255
tp4256
bssg45
I1
sg46
g4236
sg47
(dp4257
g49
I00
sg50
I00
sg51
I00
sg52
I00
sg53
I00
sg54
I00
sg55
I00
ssg56
(dp4258
g58
I0
sg59
I0
sg60
I0
sg61
I0
ssg62
S'nitrocyclohexane'
p4259
sS'octanol_DC'
p4260
(dp4261
g5
(lp4262
g7
(g11
S'Y\xd2\xa8\xae\xdc`?@'
p4263
tp4264
Rp4265
ag7
(g11
S'\x1d."\x12\xe5\x18\xd2?'
p4266
tp4267
Rp4268
asg78
(lp4269
Nasg23
(lp4270
sg73
(lp4271
Nasg30
g31
(g32
(I0
tp4272
g34
tp4273
Rp4274
(I1
(I2
tp4275
g40
I00
S'\x14U\xe9\xca\xa4/\x0e@\xef\x03\x8e\x0c\x05`\xaa?'
p4276
tp4277
bssg86
S'1879'
p4278
sg88
(dp4279
g5
(lp4280
NaNassg91
(dp4281
g5
(lp4282
g7
(g11
S'\xb8\xc5`z]\xae#@'
p4283
tp4284
Rp4285
ag7
(g11
S'\xe0H\x002[\xa4\xb4?'
p4286
tp4287
Rp4288
assS'cyclohexane_DC'
p4289
(dp4290
g5
(lp4291
NaNasg78
g4244
sg73
g4250
sg30
(lp4292
NaNassg105
S'C1CCC(CC1)[N+](=O)[O-]'
p4293
sg107
(dp4294
g109
g7
(g11
S'333333\x13@'
p4295
tp4296
Rp4297
sg113
g7
(g11
S'\xcd\xcc\xcc\xcc\xcc\xcc\x0c@'
p4298
tp4299
Rp4300
sg117
g7
(g11
S'ffffff\x0e@'
p4301
tp4302
Rp4303
ssg121
(dp4304
g5
(lp4305
g7
(g11
S'\x18\xd38\xd3K$@@'
p4306
tp4307
Rp4308
ag7
(g11
S'\xb1\x06\xa2\xcaX\x0e\xca?'
p4309
tp4310
Rp4311
asg20
g4269
sg28
(lp4312
Nasg30
g31
(g32
(I0
tp4313
g34
tp4314
Rp4315
(I1
(I2
tp4316
g40
I00
S'G\xca\xf5Qlt\x0f@\xb3\xf9\xe6\xa5\xbb\xa3\xa3?'
p4317
tp4318
bssg138
g4304
ss.